(dp1
S'output'
p2
S"<type 'exceptions.TypeError'> __init__() got multiple values for keyword argument 'label'"
p3
sS'layer'
p4
S'/home/urvashi/Desktop/WEB2PY/web2py/applications/SSAD/models/db.py'
p5
sS'code'
p6
S"# -*- coding: utf-8 -*-\n\n#########################################################################\n## This scaffolding model makes your app work on Google App Engine too\n## File is released under public domain and you can use without limitations\n#########################################################################\n\n## if SSL/HTTPS is properly configured and you want all HTTP requests to\n## be redirected to HTTPS, uncomment the line below:\n# request.requires_https()\n\nif not request.env.web2py_runtime_gae:\n    ## if NOT running on Google App Engine use SQLite or other DB\n    db = DAL('sqlite://storage.sqlite',pool_size=1,check_reserved=['all'])\nelse:\n    ## connect to Google BigTable (optional 'google:datastore://namespace')\n    db = DAL('google:datastore')\n    ## store sessions and tickets there\n    session.connect(request, response, db=db)\n    ## or store session in Memcache, Redis, etc.\n    ## from gluon.contrib.memdb import MEMDB\n    ## from google.appengine.api.memcache import Client\n    ## session.connect(request, response, db = MEMDB(Client()))\n\n## by default give a view/generic.extension to all actions from localhost\n## none otherwise. a pattern can be 'controller/function.extension'\nresponse.generic_patterns = ['*'] if request.is_local else []\n## (optional) optimize handling of static files\n# response.optimize_css = 'concat,minify,inline'\n# response.optimize_js = 'concat,minify,inline'\n\n#########################################################################\n## Here is sample code if you need for\n## - email capabilities\n## - authentication (registration, login, logout, ... )\n## - authorization (role based authorization)\n## - services (xml, csv, json, xmlrpc, jsonrpc, amf, rss)\n## - old style crud actions\n## (more options discussed in gluon/tools.py)\n#########################################################################\n\nfrom gluon.tools import Auth, Crud, Service, PluginManager, prettydate\nauth = Auth(db)\ncrud, service, plugins = Crud(db), Service(), PluginManager()\n\n## create all tables needed by auth if not custom tables\nauth.define_tables(username=False, signature=False)\n\n## configure email\nmail = auth.settings.mailer\nmail.settings.server = 'logging' or 'smtp.gmail.com:587'\nmail.settings.sender = 'you@gmail.com'\nmail.settings.login = 'username:password'\n\n## configure auth policy\nauth.settings.registration_requires_verification = False\nauth.settings.registration_requires_approval = False\nauth.settings.reset_password_requires_verification = True\n\n## if you need to use OpenID, Facebook, MySpace, Twitter, Linkedin, etc.\n## register with janrain.com, write your domain:api_key in private/janrain.key\nfrom gluon.contrib.login_methods.rpx_account import use_janrain\nuse_janrain(auth, filename='private/janrain.key')\n\n#########################################################################\n## Define your tables below (or better in another model file) for example\n##\n## >>> db.define_table('mytable',Field('myfield','string'))\n##\n## Fields can be 'string','text','password','integer','double','boolean'\n##       'date','time','datetime','blob','upload', 'reference TABLENAME'\n## There is an implicit 'id integer autoincrement' field\n## Consult manual for more options, validators, etc.\n##\n## More API examples for controllers:\n##\n## >>> db.mytable.insert(myfield='value')\n## >>> rows=db(db.mytable.myfield=='value').select(db.mytable.ALL)\n## >>> for row in rows: print row.id, row.myfield\n#########################################################################\n\n## after defining tables, uncomment below to enable auditing\n# auth.enable_record_versioning(db)\n\ndb.define_table('categories',\n    db.Field('name','string',required=True,requires=IS_NOT_IN_DB('categories.id','categories.name')))\n    \ndb.define_table('links',\n    db.Field('url','string',requires=IS_URL(),label='Link'),\n    db.Field('username',db.auth_user,requires=IS_IN_DB(db,'auth_user.id','auth_user.username'),label='Author'),\n    db.Field('category',db.categories,requires=IS_IN_DB(db,'categories.id','categories.name',label='Category')),\n    db.Field('date_posted','datetime',default=request.now.date()),\n    db.Field('time_posted','datetime',default=request.now),\n    db.Field('likes','integer'),\n    db.Field('dislikes','integer'))\n"
p7
sS'snapshot'
p8
(dp9
S'exception'
p10
(dp11
S'__hash__'
p12
S"<method-wrapper '__hash__' of exceptions.TypeError object>"
p13
sS'__setattr__'
p14
S"<method-wrapper '__setattr__' of exceptions.TypeError object>"
p15
sS'__reduce_ex__'
p16
S'<built-in method __reduce_ex__ of exceptions.TypeError object>'
p17
sS'__getslice__'
p18
S"<method-wrapper '__getslice__' of exceptions.TypeError object>"
p19
sS'__getitem__'
p20
S"<method-wrapper '__getitem__' of exceptions.TypeError object>"
p21
sS'__setstate__'
p22
S'<built-in method __setstate__ of exceptions.TypeError object>'
p23
sS'args'
p24
S'("__init__() got multiple values for keyword argument \'label\'",)'
p25
sS'__reduce__'
p26
S'<built-in method __reduce__ of exceptions.TypeError object>'
p27
sS'__str__'
p28
S"<method-wrapper '__str__' of exceptions.TypeError object>"
p29
sS'__format__'
p30
S'<built-in method __format__ of exceptions.TypeError object>'
p31
sS'__getattribute__'
p32
S"<method-wrapper '__getattribute__' of exceptions.TypeError object>"
p33
sS'__class__'
p34
S"<type 'exceptions.TypeError'>"
p35
sS'__unicode__'
p36
S'<built-in method __unicode__ of exceptions.TypeError object>'
p37
sS'__delattr__'
p38
S"<method-wrapper '__delattr__' of exceptions.TypeError object>"
p39
sS'__subclasshook__'
p40
S'<built-in method __subclasshook__ of type object>'
p41
sS'__repr__'
p42
S"<method-wrapper '__repr__' of exceptions.TypeError object>"
p43
sS'__dict__'
p44
S'{}'
p45
sS'__sizeof__'
p46
S'<built-in method __sizeof__ of exceptions.TypeError object>'
p47
sS'__doc__'
p48
S"'Inappropriate argument type.'"
p49
sS'__init__'
p50
S"<method-wrapper '__init__' of exceptions.TypeError object>"
p51
sS'__new__'
p52
S'<built-in method __new__ of type object>'
p53
ssS'evalue'
p54
S"__init__() got multiple values for keyword argument 'label'"
p55
sS'request'
p56
ccopy_reg
_reconstructor
p57
(cgluon.html
BEAUTIFY
p58
c__builtin__
object
p59
NtRp60
(dp61
S'attributes'
p62
(dp63
sS'components'
p64
(lp65
g57
(cgluon.html
TABLE
p66
g59
NtRp67
(dp68
g62
(dp69
S'level'
p70
I5
ssS'parent'
p71
Nsg64
(lp72
g57
(cgluon.html
TR
p73
g59
NtRp74
(dp75
g62
(dp76
sg71
g67
sg64
(lp77
g57
(cgluon.html
TD
p78
g59
NtRp79
(dp80
g62
(dp81
S'_style'
p82
S'font-weight:bold;vertical-align:top'
p83
ssg71
g74
sg64
(lp84
S'ajax'
p85
asbag57
(g78
g59
NtRp86
(dp87
g62
(dp88
S'_valign'
p89
S'top'
p90
ssg71
g74
sg64
(lp91
S':'
asbag57
(g78
g59
NtRp92
(dp93
g62
(dp94
sg71
g74
sg64
(lp95
g57
(g58
g59
NtRp96
(dp97
g62
(dp98
g70
I5
ssg71
g92
sg64
(lp99
S'False'
p100
asbasbasbag57
(g73
g59
NtRp101
(dp102
g62
(dp103
sg71
g67
sg64
(lp104
g57
(g78
g59
NtRp105
(dp106
g62
(dp107
g82
g83
ssg71
g101
sg64
(lp108
S'application'
p109
asbag57
(g78
g59
NtRp110
(dp111
g62
(dp112
g89
g90
ssg71
g101
sg64
(lp113
S':'
asbag57
(g78
g59
NtRp114
(dp115
g62
(dp116
sg71
g101
sg64
(lp117
g57
(g58
g59
NtRp118
(dp119
g62
(dp120
g70
I5
ssg71
g114
sg64
(lp121
S'SSAD'
p122
asbasbasbag57
(g73
g59
NtRp123
(dp124
g62
(dp125
sg71
g67
sg64
(lp126
g57
(g78
g59
NtRp127
(dp128
g62
(dp129
g82
g83
ssg71
g123
sg64
(lp130
g24
asbag57
(g78
g59
NtRp131
(dp132
g62
(dp133
g89
g90
ssg71
g123
sg64
(lp134
S':'
asbag57
(g78
g59
NtRp135
(dp136
g62
(dp137
sg71
g123
sg64
(lp138
g57
(g58
g59
NtRp139
(dp140
g62
(dp141
g70
I5
ssg71
g135
sg64
(lp142
g57
(g66
g59
NtRp143
(dp144
g62
(dp145
g70
I4
ssg71
Nsg64
(lp146
g57
(g73
g59
NtRp147
(dp148
g62
(dp149
sg71
g143
sg64
(lp150
g57
(g78
g59
NtRp151
(dp152
g62
(dp153
sg71
g147
sg64
(lp154
g57
(g58
g59
NtRp155
(dp156
g62
(dp157
g70
I4
ssg71
g151
sg64
(lp158
S'logout'
p159
asbasbasbasbasbasbasbag57
(g73
g59
NtRp160
(dp161
g62
(dp162
sg71
g67
sg64
(lp163
g57
(g78
g59
NtRp164
(dp165
g62
(dp166
g82
g83
ssg71
g160
sg64
(lp167
S'body'
p168
asbag57
(g78
g59
NtRp169
(dp170
g62
(dp171
g89
g90
ssg71
g160
sg64
(lp172
S':'
asbag57
(g78
g59
NtRp173
(dp174
g62
(dp175
sg71
g160
sg64
(lp176
g57
(g58
g59
NtRp177
(dp178
g62
(dp179
g70
I5
ssg71
g173
sg64
(lp180
S'<cStringIO.StringO object at 0x7f9f402500a0>'
p181
asbasbasbag57
(g73
g59
NtRp182
(dp183
g62
(dp184
sg71
g67
sg64
(lp185
g57
(g78
g59
NtRp186
(dp187
g62
(dp188
g82
g83
ssg71
g182
sg64
(lp189
S'cid'
p190
asbag57
(g78
g59
NtRp191
(dp192
g62
(dp193
g89
g90
ssg71
g182
sg64
(lp194
S':'
asbag57
(g78
g59
NtRp195
(dp196
g62
(dp197
sg71
g182
sg64
(lp198
g57
(g58
g59
NtRp199
(dp200
g62
(dp201
g70
I5
ssg71
g195
sg64
(lp202
S'None'
p203
asbasbasbag57
(g73
g59
NtRp204
(dp205
g62
(dp206
sg71
g67
sg64
(lp207
g57
(g78
g59
NtRp208
(dp209
g62
(dp210
g82
g83
ssg71
g204
sg64
(lp211
S'client'
p212
asbag57
(g78
g59
NtRp213
(dp214
g62
(dp215
g89
g90
ssg71
g204
sg64
(lp216
S':'
asbag57
(g78
g59
NtRp217
(dp218
g62
(dp219
sg71
g204
sg64
(lp220
g57
(g58
g59
NtRp221
(dp222
g62
(dp223
g70
I5
ssg71
g217
sg64
(lp224
S'127.0.0.1'
p225
asbasbasbag57
(g73
g59
NtRp226
(dp227
g62
(dp228
sg71
g67
sg64
(lp229
g57
(g78
g59
NtRp230
(dp231
g62
(dp232
g82
g83
ssg71
g226
sg64
(lp233
S'controller'
p234
asbag57
(g78
g59
NtRp235
(dp236
g62
(dp237
g89
g90
ssg71
g226
sg64
(lp238
S':'
asbag57
(g78
g59
NtRp239
(dp240
g62
(dp241
sg71
g226
sg64
(lp242
g57
(g58
g59
NtRp243
(dp244
g62
(dp245
g70
I5
ssg71
g239
sg64
(lp246
S'default'
p247
asbasbasbag57
(g73
g59
NtRp248
(dp249
g62
(dp250
sg71
g67
sg64
(lp251
g57
(g78
g59
NtRp252
(dp253
g62
(dp254
g82
g83
ssg71
g248
sg64
(lp255
S'cookies'
p256
asbag57
(g78
g59
NtRp257
(dp258
g62
(dp259
g89
g90
ssg71
g248
sg64
(lp260
S':'
asbag57
(g78
g59
NtRp261
(dp262
g62
(dp263
sg71
g248
sg64
(lp264
g57
(g58
g59
NtRp265
(dp266
g62
(dp267
g70
I5
ssg71
g261
sg64
(lp268
g57
(g66
g59
NtRp269
(dp270
g62
(dp271
g70
I4
ssg71
Nsg64
(lp272
g57
(g73
g59
NtRp273
(dp274
g62
(dp275
sg71
g269
sg64
(lp276
g57
(g78
g59
NtRp277
(dp278
g62
(dp279
g82
g83
ssg71
g273
sg64
(lp280
S'session_id_admin'
p281
asbag57
(g78
g59
NtRp282
(dp283
g62
(dp284
g89
g90
ssg71
g273
sg64
(lp285
S':'
asbag57
(g78
g59
NtRp286
(dp287
g62
(dp288
sg71
g273
sg64
(lp289
g57
(g58
g59
NtRp290
(dp291
g62
(dp292
g70
I4
ssg71
g286
sg64
(lp293
S'127.0.0.1-5083e7c3-8a51-4296-80f8-514c399375cc'
p294
ag57
(g66
g59
NtRp295
(dp296
g62
(dp297
g70
I3
ssg71
Nsg64
(lp298
g57
(g73
g59
NtRp299
(dp300
g62
(dp301
sg71
g295
sg64
(lp302
g57
(g78
g59
NtRp303
(dp304
g62
(dp305
g82
g83
ssg71
g299
sg64
(lp306
S'comment'
p307
asbag57
(g78
g59
NtRp308
(dp309
g62
(dp310
g89
g90
ssg71
g299
sg64
(lp311
S':'
asbag57
(g78
g59
NtRp312
(dp313
g62
(dp314
sg71
g299
sg64
(lp315
g57
(g58
g59
NtRp316
(dp317
g62
(dp318
g70
I3
ssg71
g312
sg64
(lp319
S''
asbasbasbag57
(g73
g59
NtRp320
(dp321
g62
(dp322
sg71
g295
sg64
(lp323
g57
(g78
g59
NtRp324
(dp325
g62
(dp326
g82
g83
ssg71
g320
sg64
(lp327
S'domain'
p328
asbag57
(g78
g59
NtRp329
(dp330
g62
(dp331
g89
g90
ssg71
g320
sg64
(lp332
S':'
asbag57
(g78
g59
NtRp333
(dp334
g62
(dp335
sg71
g320
sg64
(lp336
g57
(g58
g59
NtRp337
(dp338
g62
(dp339
g70
I3
ssg71
g333
sg64
(lp340
S''
asbasbasbag57
(g73
g59
NtRp341
(dp342
g62
(dp343
sg71
g295
sg64
(lp344
g57
(g78
g59
NtRp345
(dp346
g62
(dp347
g82
g83
ssg71
g341
sg64
(lp348
S'expires'
p349
asbag57
(g78
g59
NtRp350
(dp351
g62
(dp352
g89
g90
ssg71
g341
sg64
(lp353
S':'
asbag57
(g78
g59
NtRp354
(dp355
g62
(dp356
sg71
g341
sg64
(lp357
g57
(g58
g59
NtRp358
(dp359
g62
(dp360
g70
I3
ssg71
g354
sg64
(lp361
S''
asbasbasbag57
(g73
g59
NtRp362
(dp363
g62
(dp364
sg71
g295
sg64
(lp365
g57
(g78
g59
NtRp366
(dp367
g62
(dp368
g82
g83
ssg71
g362
sg64
(lp369
S'httponly'
p370
asbag57
(g78
g59
NtRp371
(dp372
g62
(dp373
g89
g90
ssg71
g362
sg64
(lp374
S':'
asbag57
(g78
g59
NtRp375
(dp376
g62
(dp377
sg71
g362
sg64
(lp378
g57
(g58
g59
NtRp379
(dp380
g62
(dp381
g70
I3
ssg71
g375
sg64
(lp382
S''
asbasbasbag57
(g73
g59
NtRp383
(dp384
g62
(dp385
sg71
g295
sg64
(lp386
g57
(g78
g59
NtRp387
(dp388
g62
(dp389
g82
g83
ssg71
g383
sg64
(lp390
S'max-age'
p391
asbag57
(g78
g59
NtRp392
(dp393
g62
(dp394
g89
g90
ssg71
g383
sg64
(lp395
S':'
asbag57
(g78
g59
NtRp396
(dp397
g62
(dp398
sg71
g383
sg64
(lp399
g57
(g58
g59
NtRp400
(dp401
g62
(dp402
g70
I3
ssg71
g396
sg64
(lp403
S''
asbasbasbag57
(g73
g59
NtRp404
(dp405
g62
(dp406
sg71
g295
sg64
(lp407
g57
(g78
g59
NtRp408
(dp409
g62
(dp410
g82
g83
ssg71
g404
sg64
(lp411
S'path'
p412
asbag57
(g78
g59
NtRp413
(dp414
g62
(dp415
g89
g90
ssg71
g404
sg64
(lp416
S':'
asbag57
(g78
g59
NtRp417
(dp418
g62
(dp419
sg71
g404
sg64
(lp420
g57
(g58
g59
NtRp421
(dp422
g62
(dp423
g70
I3
ssg71
g417
sg64
(lp424
S''
asbasbasbag57
(g73
g59
NtRp425
(dp426
g62
(dp427
sg71
g295
sg64
(lp428
g57
(g78
g59
NtRp429
(dp430
g62
(dp431
g82
g83
ssg71
g425
sg64
(lp432
S'secure'
p433
asbag57
(g78
g59
NtRp434
(dp435
g62
(dp436
g89
g90
ssg71
g425
sg64
(lp437
S':'
asbag57
(g78
g59
NtRp438
(dp439
g62
(dp440
sg71
g425
sg64
(lp441
g57
(g58
g59
NtRp442
(dp443
g62
(dp444
g70
I3
ssg71
g438
sg64
(lp445
S''
asbasbasbag57
(g73
g59
NtRp446
(dp447
g62
(dp448
sg71
g295
sg64
(lp449
g57
(g78
g59
NtRp450
(dp451
g62
(dp452
g82
g83
ssg71
g446
sg64
(lp453
S'version'
p454
asbag57
(g78
g59
NtRp455
(dp456
g62
(dp457
g89
g90
ssg71
g446
sg64
(lp458
S':'
asbag57
(g78
g59
NtRp459
(dp460
g62
(dp461
sg71
g446
sg64
(lp462
g57
(g58
g59
NtRp463
(dp464
g62
(dp465
g70
I3
ssg71
g459
sg64
(lp466
S''
asbasbasbasbasbasbasbag57
(g73
g59
NtRp467
(dp468
g62
(dp469
sg71
g269
sg64
(lp470
g57
(g78
g59
NtRp471
(dp472
g62
(dp473
g82
g83
ssg71
g467
sg64
(lp474
S'session_id_isas_portal'
p475
asbag57
(g78
g59
NtRp476
(dp477
g62
(dp478
g89
g90
ssg71
g467
sg64
(lp479
S':'
asbag57
(g78
g59
NtRp480
(dp481
g62
(dp482
sg71
g467
sg64
(lp483
g57
(g58
g59
NtRp484
(dp485
g62
(dp486
g70
I4
ssg71
g480
sg64
(lp487
S'127.0.0.1-34819d4e-510b-4573-85b4-19fec05e1966'
p488
ag57
(g66
g59
NtRp489
(dp490
g62
(dp491
g70
I3
ssg71
Nsg64
(lp492
g57
(g73
g59
NtRp493
(dp494
g62
(dp495
sg71
g489
sg64
(lp496
g57
(g78
g59
NtRp497
(dp498
g62
(dp499
g82
g83
ssg71
g493
sg64
(lp500
g307
asbag57
(g78
g59
NtRp501
(dp502
g62
(dp503
g89
g90
ssg71
g493
sg64
(lp504
S':'
asbag57
(g78
g59
NtRp505
(dp506
g62
(dp507
sg71
g493
sg64
(lp508
g57
(g58
g59
NtRp509
(dp510
g62
(dp511
g70
I3
ssg71
g505
sg64
(lp512
S''
asbasbasbag57
(g73
g59
NtRp513
(dp514
g62
(dp515
sg71
g489
sg64
(lp516
g57
(g78
g59
NtRp517
(dp518
g62
(dp519
g82
g83
ssg71
g513
sg64
(lp520
g328
asbag57
(g78
g59
NtRp521
(dp522
g62
(dp523
g89
g90
ssg71
g513
sg64
(lp524
S':'
asbag57
(g78
g59
NtRp525
(dp526
g62
(dp527
sg71
g513
sg64
(lp528
g57
(g58
g59
NtRp529
(dp530
g62
(dp531
g70
I3
ssg71
g525
sg64
(lp532
S''
asbasbasbag57
(g73
g59
NtRp533
(dp534
g62
(dp535
sg71
g489
sg64
(lp536
g57
(g78
g59
NtRp537
(dp538
g62
(dp539
g82
g83
ssg71
g533
sg64
(lp540
g349
asbag57
(g78
g59
NtRp541
(dp542
g62
(dp543
g89
g90
ssg71
g533
sg64
(lp544
S':'
asbag57
(g78
g59
NtRp545
(dp546
g62
(dp547
sg71
g533
sg64
(lp548
g57
(g58
g59
NtRp549
(dp550
g62
(dp551
g70
I3
ssg71
g545
sg64
(lp552
S''
asbasbasbag57
(g73
g59
NtRp553
(dp554
g62
(dp555
sg71
g489
sg64
(lp556
g57
(g78
g59
NtRp557
(dp558
g62
(dp559
g82
g83
ssg71
g553
sg64
(lp560
g370
asbag57
(g78
g59
NtRp561
(dp562
g62
(dp563
g89
g90
ssg71
g553
sg64
(lp564
S':'
asbag57
(g78
g59
NtRp565
(dp566
g62
(dp567
sg71
g553
sg64
(lp568
g57
(g58
g59
NtRp569
(dp570
g62
(dp571
g70
I3
ssg71
g565
sg64
(lp572
S''
asbasbasbag57
(g73
g59
NtRp573
(dp574
g62
(dp575
sg71
g489
sg64
(lp576
g57
(g78
g59
NtRp577
(dp578
g62
(dp579
g82
g83
ssg71
g573
sg64
(lp580
g391
asbag57
(g78
g59
NtRp581
(dp582
g62
(dp583
g89
g90
ssg71
g573
sg64
(lp584
S':'
asbag57
(g78
g59
NtRp585
(dp586
g62
(dp587
sg71
g573
sg64
(lp588
g57
(g58
g59
NtRp589
(dp590
g62
(dp591
g70
I3
ssg71
g585
sg64
(lp592
S''
asbasbasbag57
(g73
g59
NtRp593
(dp594
g62
(dp595
sg71
g489
sg64
(lp596
g57
(g78
g59
NtRp597
(dp598
g62
(dp599
g82
g83
ssg71
g593
sg64
(lp600
g412
asbag57
(g78
g59
NtRp601
(dp602
g62
(dp603
g89
g90
ssg71
g593
sg64
(lp604
S':'
asbag57
(g78
g59
NtRp605
(dp606
g62
(dp607
sg71
g593
sg64
(lp608
g57
(g58
g59
NtRp609
(dp610
g62
(dp611
g70
I3
ssg71
g605
sg64
(lp612
S''
asbasbasbag57
(g73
g59
NtRp613
(dp614
g62
(dp615
sg71
g489
sg64
(lp616
g57
(g78
g59
NtRp617
(dp618
g62
(dp619
g82
g83
ssg71
g613
sg64
(lp620
g433
asbag57
(g78
g59
NtRp621
(dp622
g62
(dp623
g89
g90
ssg71
g613
sg64
(lp624
S':'
asbag57
(g78
g59
NtRp625
(dp626
g62
(dp627
sg71
g613
sg64
(lp628
g57
(g58
g59
NtRp629
(dp630
g62
(dp631
g70
I3
ssg71
g625
sg64
(lp632
S''
asbasbasbag57
(g73
g59
NtRp633
(dp634
g62
(dp635
sg71
g489
sg64
(lp636
g57
(g78
g59
NtRp637
(dp638
g62
(dp639
g82
g83
ssg71
g633
sg64
(lp640
g454
asbag57
(g78
g59
NtRp641
(dp642
g62
(dp643
g89
g90
ssg71
g633
sg64
(lp644
S':'
asbag57
(g78
g59
NtRp645
(dp646
g62
(dp647
sg71
g633
sg64
(lp648
g57
(g58
g59
NtRp649
(dp650
g62
(dp651
g70
I3
ssg71
g645
sg64
(lp652
S''
asbasbasbasbasbasbasbag57
(g73
g59
NtRp653
(dp654
g62
(dp655
sg71
g269
sg64
(lp656
g57
(g78
g59
NtRp657
(dp658
g62
(dp659
g82
g83
ssg71
g653
sg64
(lp660
S'session_id_ssad'
p661
asbag57
(g78
g59
NtRp662
(dp663
g62
(dp664
g89
g90
ssg71
g653
sg64
(lp665
S':'
asbag57
(g78
g59
NtRp666
(dp667
g62
(dp668
sg71
g653
sg64
(lp669
g57
(g58
g59
NtRp670
(dp671
g62
(dp672
g70
I4
ssg71
g666
sg64
(lp673
S'127.0.0.1-83e42192-e5b1-45f6-a2c4-ccc32a5e5e70'
p674
ag57
(g66
g59
NtRp675
(dp676
g62
(dp677
g70
I3
ssg71
Nsg64
(lp678
g57
(g73
g59
NtRp679
(dp680
g62
(dp681
sg71
g675
sg64
(lp682
g57
(g78
g59
NtRp683
(dp684
g62
(dp685
g82
g83
ssg71
g679
sg64
(lp686
g307
asbag57
(g78
g59
NtRp687
(dp688
g62
(dp689
g89
g90
ssg71
g679
sg64
(lp690
S':'
asbag57
(g78
g59
NtRp691
(dp692
g62
(dp693
sg71
g679
sg64
(lp694
g57
(g58
g59
NtRp695
(dp696
g62
(dp697
g70
I3
ssg71
g691
sg64
(lp698
S''
asbasbasbag57
(g73
g59
NtRp699
(dp700
g62
(dp701
sg71
g675
sg64
(lp702
g57
(g78
g59
NtRp703
(dp704
g62
(dp705
g82
g83
ssg71
g699
sg64
(lp706
g328
asbag57
(g78
g59
NtRp707
(dp708
g62
(dp709
g89
g90
ssg71
g699
sg64
(lp710
S':'
asbag57
(g78
g59
NtRp711
(dp712
g62
(dp713
sg71
g699
sg64
(lp714
g57
(g58
g59
NtRp715
(dp716
g62
(dp717
g70
I3
ssg71
g711
sg64
(lp718
S''
asbasbasbag57
(g73
g59
NtRp719
(dp720
g62
(dp721
sg71
g675
sg64
(lp722
g57
(g78
g59
NtRp723
(dp724
g62
(dp725
g82
g83
ssg71
g719
sg64
(lp726
g349
asbag57
(g78
g59
NtRp727
(dp728
g62
(dp729
g89
g90
ssg71
g719
sg64
(lp730
S':'
asbag57
(g78
g59
NtRp731
(dp732
g62
(dp733
sg71
g719
sg64
(lp734
g57
(g58
g59
NtRp735
(dp736
g62
(dp737
g70
I3
ssg71
g731
sg64
(lp738
S''
asbasbasbag57
(g73
g59
NtRp739
(dp740
g62
(dp741
sg71
g675
sg64
(lp742
g57
(g78
g59
NtRp743
(dp744
g62
(dp745
g82
g83
ssg71
g739
sg64
(lp746
g370
asbag57
(g78
g59
NtRp747
(dp748
g62
(dp749
g89
g90
ssg71
g739
sg64
(lp750
S':'
asbag57
(g78
g59
NtRp751
(dp752
g62
(dp753
sg71
g739
sg64
(lp754
g57
(g58
g59
NtRp755
(dp756
g62
(dp757
g70
I3
ssg71
g751
sg64
(lp758
S''
asbasbasbag57
(g73
g59
NtRp759
(dp760
g62
(dp761
sg71
g675
sg64
(lp762
g57
(g78
g59
NtRp763
(dp764
g62
(dp765
g82
g83
ssg71
g759
sg64
(lp766
g391
asbag57
(g78
g59
NtRp767
(dp768
g62
(dp769
g89
g90
ssg71
g759
sg64
(lp770
S':'
asbag57
(g78
g59
NtRp771
(dp772
g62
(dp773
sg71
g759
sg64
(lp774
g57
(g58
g59
NtRp775
(dp776
g62
(dp777
g70
I3
ssg71
g771
sg64
(lp778
S''
asbasbasbag57
(g73
g59
NtRp779
(dp780
g62
(dp781
sg71
g675
sg64
(lp782
g57
(g78
g59
NtRp783
(dp784
g62
(dp785
g82
g83
ssg71
g779
sg64
(lp786
g412
asbag57
(g78
g59
NtRp787
(dp788
g62
(dp789
g89
g90
ssg71
g779
sg64
(lp790
S':'
asbag57
(g78
g59
NtRp791
(dp792
g62
(dp793
sg71
g779
sg64
(lp794
g57
(g58
g59
NtRp795
(dp796
g62
(dp797
g70
I3
ssg71
g791
sg64
(lp798
S''
asbasbasbag57
(g73
g59
NtRp799
(dp800
g62
(dp801
sg71
g675
sg64
(lp802
g57
(g78
g59
NtRp803
(dp804
g62
(dp805
g82
g83
ssg71
g799
sg64
(lp806
g433
asbag57
(g78
g59
NtRp807
(dp808
g62
(dp809
g89
g90
ssg71
g799
sg64
(lp810
S':'
asbag57
(g78
g59
NtRp811
(dp812
g62
(dp813
sg71
g799
sg64
(lp814
g57
(g58
g59
NtRp815
(dp816
g62
(dp817
g70
I3
ssg71
g811
sg64
(lp818
S''
asbasbasbag57
(g73
g59
NtRp819
(dp820
g62
(dp821
sg71
g675
sg64
(lp822
g57
(g78
g59
NtRp823
(dp824
g62
(dp825
g82
g83
ssg71
g819
sg64
(lp826
g454
asbag57
(g78
g59
NtRp827
(dp828
g62
(dp829
g89
g90
ssg71
g819
sg64
(lp830
S':'
asbag57
(g78
g59
NtRp831
(dp832
g62
(dp833
sg71
g819
sg64
(lp834
g57
(g58
g59
NtRp835
(dp836
g62
(dp837
g70
I3
ssg71
g831
sg64
(lp838
S''
asbasbasbasbasbasbasbag57
(g73
g59
NtRp839
(dp840
g62
(dp841
sg71
g269
sg64
(lp842
g57
(g78
g59
NtRp843
(dp844
g62
(dp845
g82
g83
ssg71
g839
sg64
(lp846
S'session_id_welcome'
p847
asbag57
(g78
g59
NtRp848
(dp849
g62
(dp850
g89
g90
ssg71
g839
sg64
(lp851
S':'
asbag57
(g78
g59
NtRp852
(dp853
g62
(dp854
sg71
g839
sg64
(lp855
g57
(g58
g59
NtRp856
(dp857
g62
(dp858
g70
I4
ssg71
g852
sg64
(lp859
S'127.0.0.1-ae45e695-e937-420f-801a-73df7553f64a'
p860
ag57
(g66
g59
NtRp861
(dp862
g62
(dp863
g70
I3
ssg71
Nsg64
(lp864
g57
(g73
g59
NtRp865
(dp866
g62
(dp867
sg71
g861
sg64
(lp868
g57
(g78
g59
NtRp869
(dp870
g62
(dp871
g82
g83
ssg71
g865
sg64
(lp872
g307
asbag57
(g78
g59
NtRp873
(dp874
g62
(dp875
g89
g90
ssg71
g865
sg64
(lp876
S':'
asbag57
(g78
g59
NtRp877
(dp878
g62
(dp879
sg71
g865
sg64
(lp880
g57
(g58
g59
NtRp881
(dp882
g62
(dp883
g70
I3
ssg71
g877
sg64
(lp884
S''
asbasbasbag57
(g73
g59
NtRp885
(dp886
g62
(dp887
sg71
g861
sg64
(lp888
g57
(g78
g59
NtRp889
(dp890
g62
(dp891
g82
g83
ssg71
g885
sg64
(lp892
g328
asbag57
(g78
g59
NtRp893
(dp894
g62
(dp895
g89
g90
ssg71
g885
sg64
(lp896
S':'
asbag57
(g78
g59
NtRp897
(dp898
g62
(dp899
sg71
g885
sg64
(lp900
g57
(g58
g59
NtRp901
(dp902
g62
(dp903
g70
I3
ssg71
g897
sg64
(lp904
S''
asbasbasbag57
(g73
g59
NtRp905
(dp906
g62
(dp907
sg71
g861
sg64
(lp908
g57
(g78
g59
NtRp909
(dp910
g62
(dp911
g82
g83
ssg71
g905
sg64
(lp912
g349
asbag57
(g78
g59
NtRp913
(dp914
g62
(dp915
g89
g90
ssg71
g905
sg64
(lp916
S':'
asbag57
(g78
g59
NtRp917
(dp918
g62
(dp919
sg71
g905
sg64
(lp920
g57
(g58
g59
NtRp921
(dp922
g62
(dp923
g70
I3
ssg71
g917
sg64
(lp924
S''
asbasbasbag57
(g73
g59
NtRp925
(dp926
g62
(dp927
sg71
g861
sg64
(lp928
g57
(g78
g59
NtRp929
(dp930
g62
(dp931
g82
g83
ssg71
g925
sg64
(lp932
g370
asbag57
(g78
g59
NtRp933
(dp934
g62
(dp935
g89
g90
ssg71
g925
sg64
(lp936
S':'
asbag57
(g78
g59
NtRp937
(dp938
g62
(dp939
sg71
g925
sg64
(lp940
g57
(g58
g59
NtRp941
(dp942
g62
(dp943
g70
I3
ssg71
g937
sg64
(lp944
S''
asbasbasbag57
(g73
g59
NtRp945
(dp946
g62
(dp947
sg71
g861
sg64
(lp948
g57
(g78
g59
NtRp949
(dp950
g62
(dp951
g82
g83
ssg71
g945
sg64
(lp952
g391
asbag57
(g78
g59
NtRp953
(dp954
g62
(dp955
g89
g90
ssg71
g945
sg64
(lp956
S':'
asbag57
(g78
g59
NtRp957
(dp958
g62
(dp959
sg71
g945
sg64
(lp960
g57
(g58
g59
NtRp961
(dp962
g62
(dp963
g70
I3
ssg71
g957
sg64
(lp964
S''
asbasbasbag57
(g73
g59
NtRp965
(dp966
g62
(dp967
sg71
g861
sg64
(lp968
g57
(g78
g59
NtRp969
(dp970
g62
(dp971
g82
g83
ssg71
g965
sg64
(lp972
g412
asbag57
(g78
g59
NtRp973
(dp974
g62
(dp975
g89
g90
ssg71
g965
sg64
(lp976
S':'
asbag57
(g78
g59
NtRp977
(dp978
g62
(dp979
sg71
g965
sg64
(lp980
g57
(g58
g59
NtRp981
(dp982
g62
(dp983
g70
I3
ssg71
g977
sg64
(lp984
S''
asbasbasbag57
(g73
g59
NtRp985
(dp986
g62
(dp987
sg71
g861
sg64
(lp988
g57
(g78
g59
NtRp989
(dp990
g62
(dp991
g82
g83
ssg71
g985
sg64
(lp992
g433
asbag57
(g78
g59
NtRp993
(dp994
g62
(dp995
g89
g90
ssg71
g985
sg64
(lp996
S':'
asbag57
(g78
g59
NtRp997
(dp998
g62
(dp999
sg71
g985
sg64
(lp1000
g57
(g58
g59
NtRp1001
(dp1002
g62
(dp1003
g70
I3
ssg71
g997
sg64
(lp1004
S''
asbasbasbag57
(g73
g59
NtRp1005
(dp1006
g62
(dp1007
sg71
g861
sg64
(lp1008
g57
(g78
g59
NtRp1009
(dp1010
g62
(dp1011
g82
g83
ssg71
g1005
sg64
(lp1012
g454
asbag57
(g78
g59
NtRp1013
(dp1014
g62
(dp1015
g89
g90
ssg71
g1005
sg64
(lp1016
S':'
asbag57
(g78
g59
NtRp1017
(dp1018
g62
(dp1019
sg71
g1005
sg64
(lp1020
g57
(g58
g59
NtRp1021
(dp1022
g62
(dp1023
g70
I3
ssg71
g1017
sg64
(lp1024
S''
asbasbasbasbasbasbasbasbasbasbasbag57
(g73
g59
NtRp1025
(dp1026
g62
(dp1027
sg71
g67
sg64
(lp1028
g57
(g78
g59
NtRp1029
(dp1030
g62
(dp1031
g82
g83
ssg71
g1025
sg64
(lp1032
S'env'
p1033
asbag57
(g78
g59
NtRp1034
(dp1035
g62
(dp1036
g89
g90
ssg71
g1025
sg64
(lp1037
S':'
asbag57
(g78
g59
NtRp1038
(dp1039
g62
(dp1040
sg71
g1025
sg64
(lp1041
g57
(g58
g59
NtRp1042
(dp1043
g62
(dp1044
g70
I5
ssg71
g1038
sg64
(lp1045
g57
(g66
g59
NtRp1046
(dp1047
g62
(dp1048
g70
I4
ssg71
Nsg64
(lp1049
g57
(g73
g59
NtRp1050
(dp1051
g62
(dp1052
sg71
g1046
sg64
(lp1053
g57
(g78
g59
NtRp1054
(dp1055
g62
(dp1056
g82
g83
ssg71
g1050
sg64
(lp1057
S'app_folders'
p1058
asbag57
(g78
g59
NtRp1059
(dp1060
g62
(dp1061
g89
g90
ssg71
g1050
sg64
(lp1062
S':'
asbag57
(g78
g59
NtRp1063
(dp1064
g62
(dp1065
sg71
g1050
sg64
(lp1066
g57
(g58
g59
NtRp1067
(dp1068
g62
(dp1069
g70
I4
ssg71
g1063
sg64
(lp1070
S"set(['/home/urvashi/Desktop/WEB2PY/web2py/applications/admin/', '/home/urvashi/Desktop/WEB2PY/web2py/applications/welcome/', '/home/urvashi/Desktop/WEB2PY/web2py/applications/ISAS_PORTAL/', '/home/urvashi/Desktop/WEB2PY/web2py/applications/SSAD/'])"
p1071
asbasbasbag57
(g73
g59
NtRp1072
(dp1073
g62
(dp1074
sg71
g1046
sg64
(lp1075
g57
(g78
g59
NtRp1076
(dp1077
g62
(dp1078
g82
g83
ssg71
g1072
sg64
(lp1079
S'applications_parent'
p1080
asbag57
(g78
g59
NtRp1081
(dp1082
g62
(dp1083
g89
g90
ssg71
g1072
sg64
(lp1084
S':'
asbag57
(g78
g59
NtRp1085
(dp1086
g62
(dp1087
sg71
g1072
sg64
(lp1088
g57
(g58
g59
NtRp1089
(dp1090
g62
(dp1091
g70
I4
ssg71
g1085
sg64
(lp1092
S'/home/urvashi/Desktop/WEB2PY/web2py'
p1093
asbasbasbag57
(g73
g59
NtRp1094
(dp1095
g62
(dp1096
sg71
g1046
sg64
(lp1097
g57
(g78
g59
NtRp1098
(dp1099
g62
(dp1100
g82
g83
ssg71
g1094
sg64
(lp1101
S'cmd_args'
p1102
asbag57
(g78
g59
NtRp1103
(dp1104
g62
(dp1105
g89
g90
ssg71
g1094
sg64
(lp1106
S':'
asbag57
(g78
g59
NtRp1107
(dp1108
g62
(dp1109
sg71
g1094
sg64
(lp1110
g57
(g58
g59
NtRp1111
(dp1112
g62
(dp1113
g70
I4
ssg71
g1107
sg64
(lp1114
g57
(g66
g59
NtRp1115
(dp1116
g62
(dp1117
g70
I3
ssg71
Nsg64
(lp1118
sbasbasbasbag57
(g73
g59
NtRp1119
(dp1120
g62
(dp1121
sg71
g1046
sg64
(lp1122
g57
(g78
g59
NtRp1123
(dp1124
g62
(dp1125
g82
g83
ssg71
g1119
sg64
(lp1126
S'cmd_options'
p1127
asbag57
(g78
g59
NtRp1128
(dp1129
g62
(dp1130
g89
g90
ssg71
g1119
sg64
(lp1131
S':'
asbag57
(g78
g59
NtRp1132
(dp1133
g62
(dp1134
sg71
g1119
sg64
(lp1135
g57
(g58
g59
NtRp1136
(dp1137
g62
(dp1138
g70
I4
ssg71
g1132
sg64
(lp1139
S"<Values at 0x21b1518: {'verbose': False, 'ip': '127.0.0.1', 'with_scheduler': False, 'ips': [], 'shutdown_timeout': 5, 'taskbar': False, 'port': 8000, 'maxthreads': None, 'softcron': False, 'server_name': 'urvashi-VPCEH35EN', 'bpython': False, 'nogui': False, 'pid_filename': 'httpserver.pid', 'extcron': False, 'runcron': False, 'run_system_tests': False, 'test': None, 'folder': '/home/urvashi/Desktop/WEB2PY/web2py', 'config': '', 'minthreads': None, 'winservice': '', 'shell': None, 'run': '', 'log_filename': 'httpserver.log', 'debuglevel': 30, 'args': [''], 'socket_timeout': 5, 'ssl_ca_certificate': None, 'scheduler': None, 'profiler_filename': None, 'ssl_private_key': '', 'scheduler_groups': None, 'password': '123', 'request_queue_size': 5, 'ssl_certificate': '', 'cronjob': False, 'numthreads': None, 'quiet': False, 'interfaces': None, 'import_models': False, 'timeout': 10, 'plain': False, 'nobanner': False}>"
p1140
asbasbasbag57
(g73
g59
NtRp1141
(dp1142
g62
(dp1143
sg71
g1046
sg64
(lp1144
g57
(g78
g59
NtRp1145
(dp1146
g62
(dp1147
g82
g83
ssg71
g1141
sg64
(lp1148
S'db_sessions'
p1149
asbag57
(g78
g59
NtRp1150
(dp1151
g62
(dp1152
g89
g90
ssg71
g1141
sg64
(lp1153
S':'
asbag57
(g78
g59
NtRp1154
(dp1155
g62
(dp1156
sg71
g1141
sg64
(lp1157
g57
(g58
g59
NtRp1158
(dp1159
g62
(dp1160
g70
I4
ssg71
g1154
sg64
(lp1161
S'set([])'
p1162
asbasbasbag57
(g73
g59
NtRp1163
(dp1164
g62
(dp1165
sg71
g1046
sg64
(lp1166
g57
(g78
g59
NtRp1167
(dp1168
g62
(dp1169
g82
g83
ssg71
g1163
sg64
(lp1170
S'debugging'
p1171
asbag57
(g78
g59
NtRp1172
(dp1173
g62
(dp1174
g89
g90
ssg71
g1163
sg64
(lp1175
S':'
asbag57
(g78
g59
NtRp1176
(dp1177
g62
(dp1178
sg71
g1163
sg64
(lp1179
g57
(g58
g59
NtRp1180
(dp1181
g62
(dp1182
g70
I4
ssg71
g1176
sg64
(lp1183
g100
asbasbasbag57
(g73
g59
NtRp1184
(dp1185
g62
(dp1186
sg71
g1046
sg64
(lp1187
g57
(g78
g59
NtRp1188
(dp1189
g62
(dp1190
g82
g83
ssg71
g1184
sg64
(lp1191
S'gluon_parent'
p1192
asbag57
(g78
g59
NtRp1193
(dp1194
g62
(dp1195
g89
g90
ssg71
g1184
sg64
(lp1196
S':'
asbag57
(g78
g59
NtRp1197
(dp1198
g62
(dp1199
sg71
g1184
sg64
(lp1200
g57
(g58
g59
NtRp1201
(dp1202
g62
(dp1203
g70
I4
ssg71
g1197
sg64
(lp1204
S'/home/urvashi/Desktop/WEB2PY/web2py'
p1205
asbasbasbag57
(g73
g59
NtRp1206
(dp1207
g62
(dp1208
sg71
g1046
sg64
(lp1209
g57
(g78
g59
NtRp1210
(dp1211
g62
(dp1212
g82
g83
ssg71
g1206
sg64
(lp1213
S'http_accept'
p1214
asbag57
(g78
g59
NtRp1215
(dp1216
g62
(dp1217
g89
g90
ssg71
g1206
sg64
(lp1218
S':'
asbag57
(g78
g59
NtRp1219
(dp1220
g62
(dp1221
sg71
g1206
sg64
(lp1222
g57
(g58
g59
NtRp1223
(dp1224
g62
(dp1225
g70
I4
ssg71
g1219
sg64
(lp1226
S'text/html,application/xhtml+xml,application/xml;q=0.9,*/*;q=0.8'
p1227
asbasbasbag57
(g73
g59
NtRp1228
(dp1229
g62
(dp1230
sg71
g1046
sg64
(lp1231
g57
(g78
g59
NtRp1232
(dp1233
g62
(dp1234
g82
g83
ssg71
g1228
sg64
(lp1235
S'http_accept_encoding'
p1236
asbag57
(g78
g59
NtRp1237
(dp1238
g62
(dp1239
g89
g90
ssg71
g1228
sg64
(lp1240
S':'
asbag57
(g78
g59
NtRp1241
(dp1242
g62
(dp1243
sg71
g1228
sg64
(lp1244
g57
(g58
g59
NtRp1245
(dp1246
g62
(dp1247
g70
I4
ssg71
g1241
sg64
(lp1248
S'gzip, deflate'
p1249
asbasbasbag57
(g73
g59
NtRp1250
(dp1251
g62
(dp1252
sg71
g1046
sg64
(lp1253
g57
(g78
g59
NtRp1254
(dp1255
g62
(dp1256
g82
g83
ssg71
g1250
sg64
(lp1257
S'http_accept_language'
p1258
asbag57
(g78
g59
NtRp1259
(dp1260
g62
(dp1261
g89
g90
ssg71
g1250
sg64
(lp1262
S':'
asbag57
(g78
g59
NtRp1263
(dp1264
g62
(dp1265
sg71
g1250
sg64
(lp1266
g57
(g58
g59
NtRp1267
(dp1268
g62
(dp1269
g70
I4
ssg71
g1263
sg64
(lp1270
S'en-us,en;q=0.5'
p1271
asbasbasbag57
(g73
g59
NtRp1272
(dp1273
g62
(dp1274
sg71
g1046
sg64
(lp1275
g57
(g78
g59
NtRp1276
(dp1277
g62
(dp1278
g82
g83
ssg71
g1272
sg64
(lp1279
S'http_connection'
p1280
asbag57
(g78
g59
NtRp1281
(dp1282
g62
(dp1283
g89
g90
ssg71
g1272
sg64
(lp1284
S':'
asbag57
(g78
g59
NtRp1285
(dp1286
g62
(dp1287
sg71
g1272
sg64
(lp1288
g57
(g58
g59
NtRp1289
(dp1290
g62
(dp1291
g70
I4
ssg71
g1285
sg64
(lp1292
S'keep-alive'
p1293
asbasbasbag57
(g73
g59
NtRp1294
(dp1295
g62
(dp1296
sg71
g1046
sg64
(lp1297
g57
(g78
g59
NtRp1298
(dp1299
g62
(dp1300
g82
g83
ssg71
g1294
sg64
(lp1301
S'http_cookie'
p1302
asbag57
(g78
g59
NtRp1303
(dp1304
g62
(dp1305
g89
g90
ssg71
g1294
sg64
(lp1306
S':'
asbag57
(g78
g59
NtRp1307
(dp1308
g62
(dp1309
sg71
g1294
sg64
(lp1310
g57
(g58
g59
NtRp1311
(dp1312
g62
(dp1313
g70
I4
ssg71
g1307
sg64
(lp1314
S'session_id_welcome=127.0.0.1-ae45e695-e937-420f-801a-73df7553f64a; session_id_admin=127.0.0.1-5083e7c3-8a51-4296-80f8-514c399375cc; session_id_ssad=127.0.0.1-83e42192-e5b1-45f6-a2c4-ccc32a5e5e70; session_id_isas_portal=127.0.0.1-34819d4e-510b-4573-85b4-19fec05e1966'
p1315
asbasbasbag57
(g73
g59
NtRp1316
(dp1317
g62
(dp1318
sg71
g1046
sg64
(lp1319
g57
(g78
g59
NtRp1320
(dp1321
g62
(dp1322
g82
g83
ssg71
g1316
sg64
(lp1323
S'http_host'
p1324
asbag57
(g78
g59
NtRp1325
(dp1326
g62
(dp1327
g89
g90
ssg71
g1316
sg64
(lp1328
S':'
asbag57
(g78
g59
NtRp1329
(dp1330
g62
(dp1331
sg71
g1316
sg64
(lp1332
g57
(g58
g59
NtRp1333
(dp1334
g62
(dp1335
g70
I4
ssg71
g1329
sg64
(lp1336
S'127.0.0.1:8000'
p1337
asbasbasbag57
(g73
g59
NtRp1338
(dp1339
g62
(dp1340
sg71
g1046
sg64
(lp1341
g57
(g78
g59
NtRp1342
(dp1343
g62
(dp1344
g82
g83
ssg71
g1338
sg64
(lp1345
S'http_referer'
p1346
asbag57
(g78
g59
NtRp1347
(dp1348
g62
(dp1349
g89
g90
ssg71
g1338
sg64
(lp1350
S':'
asbag57
(g78
g59
NtRp1351
(dp1352
g62
(dp1353
sg71
g1338
sg64
(lp1354
g57
(g58
g59
NtRp1355
(dp1356
g62
(dp1357
g70
I4
ssg71
g1351
sg64
(lp1358
S'http://127.0.0.1:8000/SSAD/default/admin.html'
p1359
asbasbasbag57
(g73
g59
NtRp1360
(dp1361
g62
(dp1362
sg71
g1046
sg64
(lp1363
g57
(g78
g59
NtRp1364
(dp1365
g62
(dp1366
g82
g83
ssg71
g1360
sg64
(lp1367
S'http_user_agent'
p1368
asbag57
(g78
g59
NtRp1369
(dp1370
g62
(dp1371
g89
g90
ssg71
g1360
sg64
(lp1372
S':'
asbag57
(g78
g59
NtRp1373
(dp1374
g62
(dp1375
sg71
g1360
sg64
(lp1376
g57
(g58
g59
NtRp1377
(dp1378
g62
(dp1379
g70
I4
ssg71
g1373
sg64
(lp1380
S'Mozilla/5.0 (X11; Ubuntu; Linux x86_64; rv:11.0) Gecko/20100101 Firefox/11.0'
p1381
asbasbasbag57
(g73
g59
NtRp1382
(dp1383
g62
(dp1384
sg71
g1046
sg64
(lp1385
g57
(g78
g59
NtRp1386
(dp1387
g62
(dp1388
g82
g83
ssg71
g1382
sg64
(lp1389
S'is_jython'
p1390
asbag57
(g78
g59
NtRp1391
(dp1392
g62
(dp1393
g89
g90
ssg71
g1382
sg64
(lp1394
S':'
asbag57
(g78
g59
NtRp1395
(dp1396
g62
(dp1397
sg71
g1382
sg64
(lp1398
g57
(g58
g59
NtRp1399
(dp1400
g62
(dp1401
g70
I4
ssg71
g1395
sg64
(lp1402
g100
asbasbasbag57
(g73
g59
NtRp1403
(dp1404
g62
(dp1405
sg71
g1046
sg64
(lp1406
g57
(g78
g59
NtRp1407
(dp1408
g62
(dp1409
g82
g83
ssg71
g1403
sg64
(lp1410
S'is_pypy'
p1411
asbag57
(g78
g59
NtRp1412
(dp1413
g62
(dp1414
g89
g90
ssg71
g1403
sg64
(lp1415
S':'
asbag57
(g78
g59
NtRp1416
(dp1417
g62
(dp1418
sg71
g1403
sg64
(lp1419
g57
(g58
g59
NtRp1420
(dp1421
g62
(dp1422
g70
I4
ssg71
g1416
sg64
(lp1423
g100
asbasbasbag57
(g73
g59
NtRp1424
(dp1425
g62
(dp1426
sg71
g1046
sg64
(lp1427
g57
(g78
g59
NtRp1428
(dp1429
g62
(dp1430
g82
g83
ssg71
g1424
sg64
(lp1431
S'local_hosts'
p1432
asbag57
(g78
g59
NtRp1433
(dp1434
g62
(dp1435
g89
g90
ssg71
g1424
sg64
(lp1436
S':'
asbag57
(g78
g59
NtRp1437
(dp1438
g62
(dp1439
sg71
g1424
sg64
(lp1440
g57
(g58
g59
NtRp1441
(dp1442
g62
(dp1443
g70
I4
ssg71
g1437
sg64
(lp1444
g57
(g66
g59
NtRp1445
(dp1446
g62
(dp1447
g70
I3
ssg71
Nsg64
(lp1448
g57
(g73
g59
NtRp1449
(dp1450
g62
(dp1451
sg71
g1445
sg64
(lp1452
g57
(g78
g59
NtRp1453
(dp1454
g62
(dp1455
sg71
g1449
sg64
(lp1456
g57
(g58
g59
NtRp1457
(dp1458
g62
(dp1459
g70
I3
ssg71
g1453
sg64
(lp1460
S'::1'
p1461
asbasbasbag57
(g73
g59
NtRp1462
(dp1463
g62
(dp1464
sg71
g1445
sg64
(lp1465
g57
(g78
g59
NtRp1466
(dp1467
g62
(dp1468
sg71
g1462
sg64
(lp1469
g57
(g58
g59
NtRp1470
(dp1471
g62
(dp1472
g70
I3
ssg71
g1466
sg64
(lp1473
S'127.0.1.1'
p1474
asbasbasbag57
(g73
g59
NtRp1475
(dp1476
g62
(dp1477
sg71
g1445
sg64
(lp1478
g57
(g78
g59
NtRp1479
(dp1480
g62
(dp1481
sg71
g1475
sg64
(lp1482
g57
(g58
g59
NtRp1483
(dp1484
g62
(dp1485
g70
I3
ssg71
g1479
sg64
(lp1486
S'::ffff:127.0.0.1'
p1487
asbasbasbag57
(g73
g59
NtRp1488
(dp1489
g62
(dp1490
sg71
g1445
sg64
(lp1491
g57
(g78
g59
NtRp1492
(dp1493
g62
(dp1494
sg71
g1488
sg64
(lp1495
g57
(g58
g59
NtRp1496
(dp1497
g62
(dp1498
g70
I3
ssg71
g1492
sg64
(lp1499
S'127.0.0.1'
p1500
asbasbasbag57
(g73
g59
NtRp1501
(dp1502
g62
(dp1503
sg71
g1445
sg64
(lp1504
g57
(g78
g59
NtRp1505
(dp1506
g62
(dp1507
sg71
g1501
sg64
(lp1508
g57
(g58
g59
NtRp1509
(dp1510
g62
(dp1511
g70
I3
ssg71
g1505
sg64
(lp1512
S'urvashi-VPCEH35EN'
p1513
asbasbasbasbasbasbasbag57
(g73
g59
NtRp1514
(dp1515
g62
(dp1516
sg71
g1046
sg64
(lp1517
g57
(g78
g59
NtRp1518
(dp1519
g62
(dp1520
g82
g83
ssg71
g1514
sg64
(lp1521
S'path_info'
p1522
asbag57
(g78
g59
NtRp1523
(dp1524
g62
(dp1525
g89
g90
ssg71
g1514
sg64
(lp1526
S':'
asbag57
(g78
g59
NtRp1527
(dp1528
g62
(dp1529
sg71
g1514
sg64
(lp1530
g57
(g58
g59
NtRp1531
(dp1532
g62
(dp1533
g70
I4
ssg71
g1527
sg64
(lp1534
S'/SSAD/default/user/logout'
p1535
asbasbasbag57
(g73
g59
NtRp1536
(dp1537
g62
(dp1538
sg71
g1046
sg64
(lp1539
g57
(g78
g59
NtRp1540
(dp1541
g62
(dp1542
g82
g83
ssg71
g1536
sg64
(lp1543
S'query_string'
p1544
asbag57
(g78
g59
NtRp1545
(dp1546
g62
(dp1547
g89
g90
ssg71
g1536
sg64
(lp1548
S':'
asbag57
(g78
g59
NtRp1549
(dp1550
g62
(dp1551
sg71
g1536
sg64
(lp1552
g57
(g58
g59
NtRp1553
(dp1554
g62
(dp1555
g70
I4
ssg71
g1549
sg64
(lp1556
S'_next=/SSAD/default/index'
p1557
asbasbasbag57
(g73
g59
NtRp1558
(dp1559
g62
(dp1560
sg71
g1046
sg64
(lp1561
g57
(g78
g59
NtRp1562
(dp1563
g62
(dp1564
g82
g83
ssg71
g1558
sg64
(lp1565
S'remote_addr'
p1566
asbag57
(g78
g59
NtRp1567
(dp1568
g62
(dp1569
g89
g90
ssg71
g1558
sg64
(lp1570
S':'
asbag57
(g78
g59
NtRp1571
(dp1572
g62
(dp1573
sg71
g1558
sg64
(lp1574
g57
(g58
g59
NtRp1575
(dp1576
g62
(dp1577
g70
I4
ssg71
g1571
sg64
(lp1578
g225
asbasbasbag57
(g73
g59
NtRp1579
(dp1580
g62
(dp1581
sg71
g1046
sg64
(lp1582
g57
(g78
g59
NtRp1583
(dp1584
g62
(dp1585
g82
g83
ssg71
g1579
sg64
(lp1586
S'remote_port'
p1587
asbag57
(g78
g59
NtRp1588
(dp1589
g62
(dp1590
g89
g90
ssg71
g1579
sg64
(lp1591
S':'
asbag57
(g78
g59
NtRp1592
(dp1593
g62
(dp1594
sg71
g1579
sg64
(lp1595
g57
(g58
g59
NtRp1596
(dp1597
g62
(dp1598
g70
I4
ssg71
g1592
sg64
(lp1599
S'36848'
p1600
asbasbasbag57
(g73
g59
NtRp1601
(dp1602
g62
(dp1603
sg71
g1046
sg64
(lp1604
g57
(g78
g59
NtRp1605
(dp1606
g62
(dp1607
g82
g83
ssg71
g1601
sg64
(lp1608
S'request_method'
p1609
asbag57
(g78
g59
NtRp1610
(dp1611
g62
(dp1612
g89
g90
ssg71
g1601
sg64
(lp1613
S':'
asbag57
(g78
g59
NtRp1614
(dp1615
g62
(dp1616
sg71
g1601
sg64
(lp1617
g57
(g58
g59
NtRp1618
(dp1619
g62
(dp1620
g70
I4
ssg71
g1614
sg64
(lp1621
S'GET'
p1622
asbasbasbag57
(g73
g59
NtRp1623
(dp1624
g62
(dp1625
sg71
g1046
sg64
(lp1626
g57
(g78
g59
NtRp1627
(dp1628
g62
(dp1629
g82
g83
ssg71
g1623
sg64
(lp1630
S'request_uri'
p1631
asbag57
(g78
g59
NtRp1632
(dp1633
g62
(dp1634
g89
g90
ssg71
g1623
sg64
(lp1635
S':'
asbag57
(g78
g59
NtRp1636
(dp1637
g62
(dp1638
sg71
g1623
sg64
(lp1639
g57
(g58
g59
NtRp1640
(dp1641
g62
(dp1642
g70
I4
ssg71
g1636
sg64
(lp1643
S'/SSAD/default/user/logout?_next=/SSAD/default/index'
p1644
asbasbasbag57
(g73
g59
NtRp1645
(dp1646
g62
(dp1647
sg71
g1046
sg64
(lp1648
g57
(g78
g59
NtRp1649
(dp1650
g62
(dp1651
g82
g83
ssg71
g1645
sg64
(lp1652
S'script_name'
p1653
asbag57
(g78
g59
NtRp1654
(dp1655
g62
(dp1656
g89
g90
ssg71
g1645
sg64
(lp1657
S':'
asbag57
(g78
g59
NtRp1658
(dp1659
g62
(dp1660
sg71
g1645
sg64
(lp1661
g57
(g58
g59
NtRp1662
(dp1663
g62
(dp1664
g70
I4
ssg71
g1658
sg64
(lp1665
S''
asbasbasbag57
(g73
g59
NtRp1666
(dp1667
g62
(dp1668
sg71
g1046
sg64
(lp1669
g57
(g78
g59
NtRp1670
(dp1671
g62
(dp1672
g82
g83
ssg71
g1666
sg64
(lp1673
S'server_name'
p1674
asbag57
(g78
g59
NtRp1675
(dp1676
g62
(dp1677
g89
g90
ssg71
g1666
sg64
(lp1678
S':'
asbag57
(g78
g59
NtRp1679
(dp1680
g62
(dp1681
sg71
g1666
sg64
(lp1682
g57
(g58
g59
NtRp1683
(dp1684
g62
(dp1685
g70
I4
ssg71
g1679
sg64
(lp1686
S'urvashi-VPCEH35EN'
p1687
asbasbasbag57
(g73
g59
NtRp1688
(dp1689
g62
(dp1690
sg71
g1046
sg64
(lp1691
g57
(g78
g59
NtRp1692
(dp1693
g62
(dp1694
g82
g83
ssg71
g1688
sg64
(lp1695
S'server_port'
p1696
asbag57
(g78
g59
NtRp1697
(dp1698
g62
(dp1699
g89
g90
ssg71
g1688
sg64
(lp1700
S':'
asbag57
(g78
g59
NtRp1701
(dp1702
g62
(dp1703
sg71
g1688
sg64
(lp1704
g57
(g58
g59
NtRp1705
(dp1706
g62
(dp1707
g70
I4
ssg71
g1701
sg64
(lp1708
S'8000'
p1709
asbasbasbag57
(g73
g59
NtRp1710
(dp1711
g62
(dp1712
sg71
g1046
sg64
(lp1713
g57
(g78
g59
NtRp1714
(dp1715
g62
(dp1716
g82
g83
ssg71
g1710
sg64
(lp1717
S'server_protocol'
p1718
asbag57
(g78
g59
NtRp1719
(dp1720
g62
(dp1721
g89
g90
ssg71
g1710
sg64
(lp1722
S':'
asbag57
(g78
g59
NtRp1723
(dp1724
g62
(dp1725
sg71
g1710
sg64
(lp1726
g57
(g58
g59
NtRp1727
(dp1728
g62
(dp1729
g70
I4
ssg71
g1723
sg64
(lp1730
S'HTTP/1.1'
p1731
asbasbasbag57
(g73
g59
NtRp1732
(dp1733
g62
(dp1734
sg71
g1046
sg64
(lp1735
g57
(g78
g59
NtRp1736
(dp1737
g62
(dp1738
g82
g83
ssg71
g1732
sg64
(lp1739
S'server_software'
p1740
asbag57
(g78
g59
NtRp1741
(dp1742
g62
(dp1743
g89
g90
ssg71
g1732
sg64
(lp1744
S':'
asbag57
(g78
g59
NtRp1745
(dp1746
g62
(dp1747
sg71
g1732
sg64
(lp1748
g57
(g58
g59
NtRp1749
(dp1750
g62
(dp1751
g70
I4
ssg71
g1745
sg64
(lp1752
S'Rocket 1.2.6'
p1753
asbasbasbag57
(g73
g59
NtRp1754
(dp1755
g62
(dp1756
sg71
g1046
sg64
(lp1757
g57
(g78
g59
NtRp1758
(dp1759
g62
(dp1760
g82
g83
ssg71
g1754
sg64
(lp1761
S'web2py_path'
p1762
asbag57
(g78
g59
NtRp1763
(dp1764
g62
(dp1765
g89
g90
ssg71
g1754
sg64
(lp1766
S':'
asbag57
(g78
g59
NtRp1767
(dp1768
g62
(dp1769
sg71
g1754
sg64
(lp1770
g57
(g58
g59
NtRp1771
(dp1772
g62
(dp1773
g70
I4
ssg71
g1767
sg64
(lp1774
g1093
asbasbasbag57
(g73
g59
NtRp1775
(dp1776
g62
(dp1777
sg71
g1046
sg64
(lp1778
g57
(g78
g59
NtRp1779
(dp1780
g62
(dp1781
g82
g83
ssg71
g1775
sg64
(lp1782
S'web2py_version'
p1783
asbag57
(g78
g59
NtRp1784
(dp1785
g62
(dp1786
g89
g90
ssg71
g1775
sg64
(lp1787
S':'
asbag57
(g78
g59
NtRp1788
(dp1789
g62
(dp1790
sg71
g1775
sg64
(lp1791
g57
(g58
g59
NtRp1792
(dp1793
g62
(dp1794
g70
I4
ssg71
g1788
sg64
(lp1795
g57
(g66
g59
NtRp1796
(dp1797
g62
(dp1798
g70
I3
ssg71
Nsg64
(lp1799
g57
(g73
g59
NtRp1800
(dp1801
g62
(dp1802
sg71
g1796
sg64
(lp1803
g57
(g78
g59
NtRp1804
(dp1805
g62
(dp1806
sg71
g1800
sg64
(lp1807
g57
(g58
g59
NtRp1808
(dp1809
g62
(dp1810
g70
I3
ssg71
g1804
sg64
(lp1811
S'2'
asbasbasbag57
(g73
g59
NtRp1812
(dp1813
g62
(dp1814
sg71
g1796
sg64
(lp1815
g57
(g78
g59
NtRp1816
(dp1817
g62
(dp1818
sg71
g1812
sg64
(lp1819
g57
(g58
g59
NtRp1820
(dp1821
g62
(dp1822
g70
I3
ssg71
g1816
sg64
(lp1823
S'3'
asbasbasbag57
(g73
g59
NtRp1824
(dp1825
g62
(dp1826
sg71
g1796
sg64
(lp1827
g57
(g78
g59
NtRp1828
(dp1829
g62
(dp1830
sg71
g1824
sg64
(lp1831
g57
(g58
g59
NtRp1832
(dp1833
g62
(dp1834
g70
I3
ssg71
g1828
sg64
(lp1835
S'2'
asbasbasbag57
(g73
g59
NtRp1836
(dp1837
g62
(dp1838
sg71
g1796
sg64
(lp1839
g57
(g78
g59
NtRp1840
(dp1841
g62
(dp1842
sg71
g1836
sg64
(lp1843
g57
(g58
g59
NtRp1844
(dp1845
g62
(dp1846
g70
I3
ssg71
g1840
sg64
(lp1847
S'datetime.datetime(2012, 12, 17, 15, 3, 30)'
p1848
asbasbasbag57
(g73
g59
NtRp1849
(dp1850
g62
(dp1851
sg71
g1796
sg64
(lp1852
g57
(g78
g59
NtRp1853
(dp1854
g62
(dp1855
sg71
g1849
sg64
(lp1856
g57
(g58
g59
NtRp1857
(dp1858
g62
(dp1859
g70
I3
ssg71
g1853
sg64
(lp1860
S'stable'
p1861
asbasbasbasbasbasbasbag57
(g73
g59
NtRp1862
(dp1863
g62
(dp1864
sg71
g1046
sg64
(lp1865
g57
(g78
g59
NtRp1866
(dp1867
g62
(dp1868
g82
g83
ssg71
g1862
sg64
(lp1869
S'wsgi_errors'
p1870
asbag57
(g78
g59
NtRp1871
(dp1872
g62
(dp1873
g89
g90
ssg71
g1862
sg64
(lp1874
S':'
asbag57
(g78
g59
NtRp1875
(dp1876
g62
(dp1877
sg71
g1862
sg64
(lp1878
g57
(g58
g59
NtRp1879
(dp1880
g62
(dp1881
g70
I4
ssg71
g1875
sg64
(lp1882
S"<open file '<stderr>', mode 'w' at 0x7f9f5e06a270>"
p1883
asbasbasbag57
(g73
g59
NtRp1884
(dp1885
g62
(dp1886
sg71
g1046
sg64
(lp1887
g57
(g78
g59
NtRp1888
(dp1889
g62
(dp1890
g82
g83
ssg71
g1884
sg64
(lp1891
S'wsgi_file_wrapper'
p1892
asbag57
(g78
g59
NtRp1893
(dp1894
g62
(dp1895
g89
g90
ssg71
g1884
sg64
(lp1896
S':'
asbag57
(g78
g59
NtRp1897
(dp1898
g62
(dp1899
sg71
g1884
sg64
(lp1900
g57
(g58
g59
NtRp1901
(dp1902
g62
(dp1903
g70
I4
ssg71
g1897
sg64
(lp1904
S'<class wsgiref.util.FileWrapper at 0x1d858d8>'
p1905
asbasbasbag57
(g73
g59
NtRp1906
(dp1907
g62
(dp1908
sg71
g1046
sg64
(lp1909
g57
(g78
g59
NtRp1910
(dp1911
g62
(dp1912
g82
g83
ssg71
g1906
sg64
(lp1913
S'wsgi_input'
p1914
asbag57
(g78
g59
NtRp1915
(dp1916
g62
(dp1917
g89
g90
ssg71
g1906
sg64
(lp1918
S':'
asbag57
(g78
g59
NtRp1919
(dp1920
g62
(dp1921
sg71
g1906
sg64
(lp1922
g57
(g58
g59
NtRp1923
(dp1924
g62
(dp1925
g70
I4
ssg71
g1919
sg64
(lp1926
S'<socket._fileobject object at 0x7f9f54426a50>'
p1927
asbasbasbag57
(g73
g59
NtRp1928
(dp1929
g62
(dp1930
sg71
g1046
sg64
(lp1931
g57
(g78
g59
NtRp1932
(dp1933
g62
(dp1934
g82
g83
ssg71
g1928
sg64
(lp1935
S'wsgi_multiprocess'
p1936
asbag57
(g78
g59
NtRp1937
(dp1938
g62
(dp1939
g89
g90
ssg71
g1928
sg64
(lp1940
S':'
asbag57
(g78
g59
NtRp1941
(dp1942
g62
(dp1943
sg71
g1928
sg64
(lp1944
g57
(g58
g59
NtRp1945
(dp1946
g62
(dp1947
g70
I4
ssg71
g1941
sg64
(lp1948
g100
asbasbasbag57
(g73
g59
NtRp1949
(dp1950
g62
(dp1951
sg71
g1046
sg64
(lp1952
g57
(g78
g59
NtRp1953
(dp1954
g62
(dp1955
g82
g83
ssg71
g1949
sg64
(lp1956
S'wsgi_multithread'
p1957
asbag57
(g78
g59
NtRp1958
(dp1959
g62
(dp1960
g89
g90
ssg71
g1949
sg64
(lp1961
S':'
asbag57
(g78
g59
NtRp1962
(dp1963
g62
(dp1964
sg71
g1949
sg64
(lp1965
g57
(g58
g59
NtRp1966
(dp1967
g62
(dp1968
g70
I4
ssg71
g1962
sg64
(lp1969
S'True'
p1970
asbasbasbag57
(g73
g59
NtRp1971
(dp1972
g62
(dp1973
sg71
g1046
sg64
(lp1974
g57
(g78
g59
NtRp1975
(dp1976
g62
(dp1977
g82
g83
ssg71
g1971
sg64
(lp1978
S'wsgi_run_once'
p1979
asbag57
(g78
g59
NtRp1980
(dp1981
g62
(dp1982
g89
g90
ssg71
g1971
sg64
(lp1983
S':'
asbag57
(g78
g59
NtRp1984
(dp1985
g62
(dp1986
sg71
g1971
sg64
(lp1987
g57
(g58
g59
NtRp1988
(dp1989
g62
(dp1990
g70
I4
ssg71
g1984
sg64
(lp1991
g100
asbasbasbag57
(g73
g59
NtRp1992
(dp1993
g62
(dp1994
sg71
g1046
sg64
(lp1995
g57
(g78
g59
NtRp1996
(dp1997
g62
(dp1998
g82
g83
ssg71
g1992
sg64
(lp1999
S'wsgi_url_scheme'
p2000
asbag57
(g78
g59
NtRp2001
(dp2002
g62
(dp2003
g89
g90
ssg71
g1992
sg64
(lp2004
S':'
asbag57
(g78
g59
NtRp2005
(dp2006
g62
(dp2007
sg71
g1992
sg64
(lp2008
g57
(g58
g59
NtRp2009
(dp2010
g62
(dp2011
g70
I4
ssg71
g2005
sg64
(lp2012
S'http'
p2013
asbasbasbag57
(g73
g59
NtRp2014
(dp2015
g62
(dp2016
sg71
g1046
sg64
(lp2017
g57
(g78
g59
NtRp2018
(dp2019
g62
(dp2020
g82
g83
ssg71
g2014
sg64
(lp2021
S'wsgi_version'
p2022
asbag57
(g78
g59
NtRp2023
(dp2024
g62
(dp2025
g89
g90
ssg71
g2014
sg64
(lp2026
S':'
asbag57
(g78
g59
NtRp2027
(dp2028
g62
(dp2029
sg71
g2014
sg64
(lp2030
g57
(g58
g59
NtRp2031
(dp2032
g62
(dp2033
g70
I4
ssg71
g2027
sg64
(lp2034
g57
(g66
g59
NtRp2035
(dp2036
g62
(dp2037
g70
I3
ssg71
Nsg64
(lp2038
g57
(g73
g59
NtRp2039
(dp2040
g62
(dp2041
sg71
g2035
sg64
(lp2042
g57
(g78
g59
NtRp2043
(dp2044
g62
(dp2045
sg71
g2039
sg64
(lp2046
g57
(g58
g59
NtRp2047
(dp2048
g62
(dp2049
g70
I3
ssg71
g2043
sg64
(lp2050
S'1'
asbasbasbag57
(g73
g59
NtRp2051
(dp2052
g62
(dp2053
sg71
g2035
sg64
(lp2054
g57
(g78
g59
NtRp2055
(dp2056
g62
(dp2057
sg71
g2051
sg64
(lp2058
g57
(g58
g59
NtRp2059
(dp2060
g62
(dp2061
g70
I3
ssg71
g2055
sg64
(lp2062
S'0'
asbasbasbasbasbasbasbasbasbasbasbag57
(g73
g59
NtRp2063
(dp2064
g62
(dp2065
sg71
g67
sg64
(lp2066
g57
(g78
g59
NtRp2067
(dp2068
g62
(dp2069
g82
g83
ssg71
g2063
sg64
(lp2070
S'extension'
p2071
asbag57
(g78
g59
NtRp2072
(dp2073
g62
(dp2074
g89
g90
ssg71
g2063
sg64
(lp2075
S':'
asbag57
(g78
g59
NtRp2076
(dp2077
g62
(dp2078
sg71
g2063
sg64
(lp2079
g57
(g58
g59
NtRp2080
(dp2081
g62
(dp2082
g70
I5
ssg71
g2076
sg64
(lp2083
S'html'
p2084
asbasbasbag57
(g73
g59
NtRp2085
(dp2086
g62
(dp2087
sg71
g67
sg64
(lp2088
g57
(g78
g59
NtRp2089
(dp2090
g62
(dp2091
g82
g83
ssg71
g2085
sg64
(lp2092
S'folder'
p2093
asbag57
(g78
g59
NtRp2094
(dp2095
g62
(dp2096
g89
g90
ssg71
g2085
sg64
(lp2097
S':'
asbag57
(g78
g59
NtRp2098
(dp2099
g62
(dp2100
sg71
g2085
sg64
(lp2101
g57
(g58
g59
NtRp2102
(dp2103
g62
(dp2104
g70
I5
ssg71
g2098
sg64
(lp2105
S'/home/urvashi/Desktop/WEB2PY/web2py/applications/SSAD/'
p2106
asbasbasbag57
(g73
g59
NtRp2107
(dp2108
g62
(dp2109
sg71
g67
sg64
(lp2110
g57
(g78
g59
NtRp2111
(dp2112
g62
(dp2113
g82
g83
ssg71
g2107
sg64
(lp2114
S'function'
p2115
asbag57
(g78
g59
NtRp2116
(dp2117
g62
(dp2118
g89
g90
ssg71
g2107
sg64
(lp2119
S':'
asbag57
(g78
g59
NtRp2120
(dp2121
g62
(dp2122
sg71
g2107
sg64
(lp2123
g57
(g58
g59
NtRp2124
(dp2125
g62
(dp2126
g70
I5
ssg71
g2120
sg64
(lp2127
S'user'
p2128
asbasbasbag57
(g73
g59
NtRp2129
(dp2130
g62
(dp2131
sg71
g67
sg64
(lp2132
g57
(g78
g59
NtRp2133
(dp2134
g62
(dp2135
g82
g83
ssg71
g2129
sg64
(lp2136
S'get_vars'
p2137
asbag57
(g78
g59
NtRp2138
(dp2139
g62
(dp2140
g89
g90
ssg71
g2129
sg64
(lp2141
S':'
asbag57
(g78
g59
NtRp2142
(dp2143
g62
(dp2144
sg71
g2129
sg64
(lp2145
g57
(g58
g59
NtRp2146
(dp2147
g62
(dp2148
g70
I5
ssg71
g2142
sg64
(lp2149
g57
(g66
g59
NtRp2150
(dp2151
g62
(dp2152
g70
I4
ssg71
Nsg64
(lp2153
sbasbasbasbag57
(g73
g59
NtRp2154
(dp2155
g62
(dp2156
sg71
g67
sg64
(lp2157
g57
(g78
g59
NtRp2158
(dp2159
g62
(dp2160
g82
g83
ssg71
g2154
sg64
(lp2161
S'global_settings'
p2162
asbag57
(g78
g59
NtRp2163
(dp2164
g62
(dp2165
g89
g90
ssg71
g2154
sg64
(lp2166
S':'
asbag57
(g78
g59
NtRp2167
(dp2168
g62
(dp2169
sg71
g2154
sg64
(lp2170
g57
(g58
g59
NtRp2171
(dp2172
g62
(dp2173
g70
I5
ssg71
g2167
sg64
(lp2174
g57
(g66
g59
NtRp2175
(dp2176
g62
(dp2177
g70
I4
ssg71
Nsg64
(lp2178
g57
(g73
g59
NtRp2179
(dp2180
g62
(dp2181
sg71
g2175
sg64
(lp2182
g57
(g78
g59
NtRp2183
(dp2184
g62
(dp2185
g82
g83
ssg71
g2179
sg64
(lp2186
g1058
asbag57
(g78
g59
NtRp2187
(dp2188
g62
(dp2189
g89
g90
ssg71
g2179
sg64
(lp2190
S':'
asbag57
(g78
g59
NtRp2191
(dp2192
g62
(dp2193
sg71
g2179
sg64
(lp2194
g57
(g58
g59
NtRp2195
(dp2196
g62
(dp2197
g70
I4
ssg71
g2191
sg64
(lp2198
S"set(['/home/urvashi/Desktop/WEB2PY/web2py/applications/admin/', '/home/urvashi/Desktop/WEB2PY/web2py/applications/welcome/', '/home/urvashi/Desktop/WEB2PY/web2py/applications/ISAS_PORTAL/', '/home/urvashi/Desktop/WEB2PY/web2py/applications/SSAD/'])"
p2199
asbasbasbag57
(g73
g59
NtRp2200
(dp2201
g62
(dp2202
sg71
g2175
sg64
(lp2203
g57
(g78
g59
NtRp2204
(dp2205
g62
(dp2206
g82
g83
ssg71
g2200
sg64
(lp2207
g1080
asbag57
(g78
g59
NtRp2208
(dp2209
g62
(dp2210
g89
g90
ssg71
g2200
sg64
(lp2211
S':'
asbag57
(g78
g59
NtRp2212
(dp2213
g62
(dp2214
sg71
g2200
sg64
(lp2215
g57
(g58
g59
NtRp2216
(dp2217
g62
(dp2218
g70
I4
ssg71
g2212
sg64
(lp2219
g1093
asbasbasbag57
(g73
g59
NtRp2220
(dp2221
g62
(dp2222
sg71
g2175
sg64
(lp2223
g57
(g78
g59
NtRp2224
(dp2225
g62
(dp2226
g82
g83
ssg71
g2220
sg64
(lp2227
g1102
asbag57
(g78
g59
NtRp2228
(dp2229
g62
(dp2230
g89
g90
ssg71
g2220
sg64
(lp2231
S':'
asbag57
(g78
g59
NtRp2232
(dp2233
g62
(dp2234
sg71
g2220
sg64
(lp2235
g57
(g58
g59
NtRp2236
(dp2237
g62
(dp2238
g70
I4
ssg71
g2232
sg64
(lp2239
g57
(g66
g59
NtRp2240
(dp2241
g62
(dp2242
g70
I3
ssg71
Nsg64
(lp2243
sbasbasbasbag57
(g73
g59
NtRp2244
(dp2245
g62
(dp2246
sg71
g2175
sg64
(lp2247
g57
(g78
g59
NtRp2248
(dp2249
g62
(dp2250
g82
g83
ssg71
g2244
sg64
(lp2251
g1127
asbag57
(g78
g59
NtRp2252
(dp2253
g62
(dp2254
g89
g90
ssg71
g2244
sg64
(lp2255
S':'
asbag57
(g78
g59
NtRp2256
(dp2257
g62
(dp2258
sg71
g2244
sg64
(lp2259
g57
(g58
g59
NtRp2260
(dp2261
g62
(dp2262
g70
I4
ssg71
g2256
sg64
(lp2263
S"<Values at 0x21b1518: {'verbose': False, 'ip': '127.0.0.1', 'with_scheduler': False, 'ips': [], 'shutdown_timeout': 5, 'taskbar': False, 'port': 8000, 'maxthreads': None, 'softcron': False, 'server_name': 'urvashi-VPCEH35EN', 'bpython': False, 'nogui': False, 'pid_filename': 'httpserver.pid', 'extcron': False, 'runcron': False, 'run_system_tests': False, 'test': None, 'folder': '/home/urvashi/Desktop/WEB2PY/web2py', 'config': '', 'minthreads': None, 'winservice': '', 'shell': None, 'run': '', 'log_filename': 'httpserver.log', 'debuglevel': 30, 'args': [''], 'socket_timeout': 5, 'ssl_ca_certificate': None, 'scheduler': None, 'profiler_filename': None, 'ssl_private_key': '', 'scheduler_groups': None, 'password': '123', 'request_queue_size': 5, 'ssl_certificate': '', 'cronjob': False, 'numthreads': None, 'quiet': False, 'interfaces': None, 'import_models': False, 'timeout': 10, 'plain': False, 'nobanner': False}>"
p2264
asbasbasbag57
(g73
g59
NtRp2265
(dp2266
g62
(dp2267
sg71
g2175
sg64
(lp2268
g57
(g78
g59
NtRp2269
(dp2270
g62
(dp2271
g82
g83
ssg71
g2265
sg64
(lp2272
g1149
asbag57
(g78
g59
NtRp2273
(dp2274
g62
(dp2275
g89
g90
ssg71
g2265
sg64
(lp2276
S':'
asbag57
(g78
g59
NtRp2277
(dp2278
g62
(dp2279
sg71
g2265
sg64
(lp2280
g57
(g58
g59
NtRp2281
(dp2282
g62
(dp2283
g70
I4
ssg71
g2277
sg64
(lp2284
S'set([])'
p2285
asbasbasbag57
(g73
g59
NtRp2286
(dp2287
g62
(dp2288
sg71
g2175
sg64
(lp2289
g57
(g78
g59
NtRp2290
(dp2291
g62
(dp2292
g82
g83
ssg71
g2286
sg64
(lp2293
g1171
asbag57
(g78
g59
NtRp2294
(dp2295
g62
(dp2296
g89
g90
ssg71
g2286
sg64
(lp2297
S':'
asbag57
(g78
g59
NtRp2298
(dp2299
g62
(dp2300
sg71
g2286
sg64
(lp2301
g57
(g58
g59
NtRp2302
(dp2303
g62
(dp2304
g70
I4
ssg71
g2298
sg64
(lp2305
g100
asbasbasbag57
(g73
g59
NtRp2306
(dp2307
g62
(dp2308
sg71
g2175
sg64
(lp2309
g57
(g78
g59
NtRp2310
(dp2311
g62
(dp2312
g82
g83
ssg71
g2306
sg64
(lp2313
g1192
asbag57
(g78
g59
NtRp2314
(dp2315
g62
(dp2316
g89
g90
ssg71
g2306
sg64
(lp2317
S':'
asbag57
(g78
g59
NtRp2318
(dp2319
g62
(dp2320
sg71
g2306
sg64
(lp2321
g57
(g58
g59
NtRp2322
(dp2323
g62
(dp2324
g70
I4
ssg71
g2318
sg64
(lp2325
g1205
asbasbasbag57
(g73
g59
NtRp2326
(dp2327
g62
(dp2328
sg71
g2175
sg64
(lp2329
g57
(g78
g59
NtRp2330
(dp2331
g62
(dp2332
g82
g83
ssg71
g2326
sg64
(lp2333
g1390
asbag57
(g78
g59
NtRp2334
(dp2335
g62
(dp2336
g89
g90
ssg71
g2326
sg64
(lp2337
S':'
asbag57
(g78
g59
NtRp2338
(dp2339
g62
(dp2340
sg71
g2326
sg64
(lp2341
g57
(g58
g59
NtRp2342
(dp2343
g62
(dp2344
g70
I4
ssg71
g2338
sg64
(lp2345
g100
asbasbasbag57
(g73
g59
NtRp2346
(dp2347
g62
(dp2348
sg71
g2175
sg64
(lp2349
g57
(g78
g59
NtRp2350
(dp2351
g62
(dp2352
g82
g83
ssg71
g2346
sg64
(lp2353
g1411
asbag57
(g78
g59
NtRp2354
(dp2355
g62
(dp2356
g89
g90
ssg71
g2346
sg64
(lp2357
S':'
asbag57
(g78
g59
NtRp2358
(dp2359
g62
(dp2360
sg71
g2346
sg64
(lp2361
g57
(g58
g59
NtRp2362
(dp2363
g62
(dp2364
g70
I4
ssg71
g2358
sg64
(lp2365
g100
asbasbasbag57
(g73
g59
NtRp2366
(dp2367
g62
(dp2368
sg71
g2175
sg64
(lp2369
g57
(g78
g59
NtRp2370
(dp2371
g62
(dp2372
g82
g83
ssg71
g2366
sg64
(lp2373
g1432
asbag57
(g78
g59
NtRp2374
(dp2375
g62
(dp2376
g89
g90
ssg71
g2366
sg64
(lp2377
S':'
asbag57
(g78
g59
NtRp2378
(dp2379
g62
(dp2380
sg71
g2366
sg64
(lp2381
g57
(g58
g59
NtRp2382
(dp2383
g62
(dp2384
g70
I4
ssg71
g2378
sg64
(lp2385
g57
(g66
g59
NtRp2386
(dp2387
g62
(dp2388
g70
I3
ssg71
Nsg64
(lp2389
g57
(g73
g59
NtRp2390
(dp2391
g62
(dp2392
sg71
g2386
sg64
(lp2393
g57
(g78
g59
NtRp2394
(dp2395
g62
(dp2396
sg71
g2390
sg64
(lp2397
g57
(g58
g59
NtRp2398
(dp2399
g62
(dp2400
g70
I3
ssg71
g2394
sg64
(lp2401
g1461
asbasbasbag57
(g73
g59
NtRp2402
(dp2403
g62
(dp2404
sg71
g2386
sg64
(lp2405
g57
(g78
g59
NtRp2406
(dp2407
g62
(dp2408
sg71
g2402
sg64
(lp2409
g57
(g58
g59
NtRp2410
(dp2411
g62
(dp2412
g70
I3
ssg71
g2406
sg64
(lp2413
g1474
asbasbasbag57
(g73
g59
NtRp2414
(dp2415
g62
(dp2416
sg71
g2386
sg64
(lp2417
g57
(g78
g59
NtRp2418
(dp2419
g62
(dp2420
sg71
g2414
sg64
(lp2421
g57
(g58
g59
NtRp2422
(dp2423
g62
(dp2424
g70
I3
ssg71
g2418
sg64
(lp2425
g1487
asbasbasbag57
(g73
g59
NtRp2426
(dp2427
g62
(dp2428
sg71
g2386
sg64
(lp2429
g57
(g78
g59
NtRp2430
(dp2431
g62
(dp2432
sg71
g2426
sg64
(lp2433
g57
(g58
g59
NtRp2434
(dp2435
g62
(dp2436
g70
I3
ssg71
g2430
sg64
(lp2437
g1500
asbasbasbag57
(g73
g59
NtRp2438
(dp2439
g62
(dp2440
sg71
g2386
sg64
(lp2441
g57
(g78
g59
NtRp2442
(dp2443
g62
(dp2444
sg71
g2438
sg64
(lp2445
g57
(g58
g59
NtRp2446
(dp2447
g62
(dp2448
g70
I3
ssg71
g2442
sg64
(lp2449
g1513
asbasbasbasbasbasbasbag57
(g73
g59
NtRp2450
(dp2451
g62
(dp2452
sg71
g2175
sg64
(lp2453
g57
(g78
g59
NtRp2454
(dp2455
g62
(dp2456
g82
g83
ssg71
g2450
sg64
(lp2457
g1783
asbag57
(g78
g59
NtRp2458
(dp2459
g62
(dp2460
g89
g90
ssg71
g2450
sg64
(lp2461
S':'
asbag57
(g78
g59
NtRp2462
(dp2463
g62
(dp2464
sg71
g2450
sg64
(lp2465
g57
(g58
g59
NtRp2466
(dp2467
g62
(dp2468
g70
I4
ssg71
g2462
sg64
(lp2469
g57
(g66
g59
NtRp2470
(dp2471
g62
(dp2472
g70
I3
ssg71
Nsg64
(lp2473
g57
(g73
g59
NtRp2474
(dp2475
g62
(dp2476
sg71
g2470
sg64
(lp2477
g57
(g78
g59
NtRp2478
(dp2479
g62
(dp2480
sg71
g2474
sg64
(lp2481
g57
(g58
g59
NtRp2482
(dp2483
g62
(dp2484
g70
I3
ssg71
g2478
sg64
(lp2485
S'2'
asbasbasbag57
(g73
g59
NtRp2486
(dp2487
g62
(dp2488
sg71
g2470
sg64
(lp2489
g57
(g78
g59
NtRp2490
(dp2491
g62
(dp2492
sg71
g2486
sg64
(lp2493
g57
(g58
g59
NtRp2494
(dp2495
g62
(dp2496
g70
I3
ssg71
g2490
sg64
(lp2497
S'3'
asbasbasbag57
(g73
g59
NtRp2498
(dp2499
g62
(dp2500
sg71
g2470
sg64
(lp2501
g57
(g78
g59
NtRp2502
(dp2503
g62
(dp2504
sg71
g2498
sg64
(lp2505
g57
(g58
g59
NtRp2506
(dp2507
g62
(dp2508
g70
I3
ssg71
g2502
sg64
(lp2509
S'2'
asbasbasbag57
(g73
g59
NtRp2510
(dp2511
g62
(dp2512
sg71
g2470
sg64
(lp2513
g57
(g78
g59
NtRp2514
(dp2515
g62
(dp2516
sg71
g2510
sg64
(lp2517
g57
(g58
g59
NtRp2518
(dp2519
g62
(dp2520
g70
I3
ssg71
g2514
sg64
(lp2521
S'datetime.datetime(2012, 12, 17, 15, 3, 30)'
p2522
asbasbasbag57
(g73
g59
NtRp2523
(dp2524
g62
(dp2525
sg71
g2470
sg64
(lp2526
g57
(g78
g59
NtRp2527
(dp2528
g62
(dp2529
sg71
g2523
sg64
(lp2530
g57
(g58
g59
NtRp2531
(dp2532
g62
(dp2533
g70
I3
ssg71
g2527
sg64
(lp2534
g1861
asbasbasbasbasbasbasbasbasbasbasbag57
(g73
g59
NtRp2535
(dp2536
g62
(dp2537
sg71
g67
sg64
(lp2538
g57
(g78
g59
NtRp2539
(dp2540
g62
(dp2541
g82
g83
ssg71
g2535
sg64
(lp2542
S'is_https'
p2543
asbag57
(g78
g59
NtRp2544
(dp2545
g62
(dp2546
g89
g90
ssg71
g2535
sg64
(lp2547
S':'
asbag57
(g78
g59
NtRp2548
(dp2549
g62
(dp2550
sg71
g2535
sg64
(lp2551
g57
(g58
g59
NtRp2552
(dp2553
g62
(dp2554
g70
I5
ssg71
g2548
sg64
(lp2555
g100
asbasbasbag57
(g73
g59
NtRp2556
(dp2557
g62
(dp2558
sg71
g67
sg64
(lp2559
g57
(g78
g59
NtRp2560
(dp2561
g62
(dp2562
g82
g83
ssg71
g2556
sg64
(lp2563
S'is_local'
p2564
asbag57
(g78
g59
NtRp2565
(dp2566
g62
(dp2567
g89
g90
ssg71
g2556
sg64
(lp2568
S':'
asbag57
(g78
g59
NtRp2569
(dp2570
g62
(dp2571
sg71
g2556
sg64
(lp2572
g57
(g58
g59
NtRp2573
(dp2574
g62
(dp2575
g70
I5
ssg71
g2569
sg64
(lp2576
g1970
asbasbasbag57
(g73
g59
NtRp2577
(dp2578
g62
(dp2579
sg71
g67
sg64
(lp2580
g57
(g78
g59
NtRp2581
(dp2582
g62
(dp2583
g82
g83
ssg71
g2577
sg64
(lp2584
S'is_restful'
p2585
asbag57
(g78
g59
NtRp2586
(dp2587
g62
(dp2588
g89
g90
ssg71
g2577
sg64
(lp2589
S':'
asbag57
(g78
g59
NtRp2590
(dp2591
g62
(dp2592
sg71
g2577
sg64
(lp2593
g57
(g58
g59
NtRp2594
(dp2595
g62
(dp2596
g70
I5
ssg71
g2590
sg64
(lp2597
g100
asbasbasbag57
(g73
g59
NtRp2598
(dp2599
g62
(dp2600
sg71
g67
sg64
(lp2601
g57
(g78
g59
NtRp2602
(dp2603
g62
(dp2604
g82
g83
ssg71
g2598
sg64
(lp2605
S'now'
p2606
asbag57
(g78
g59
NtRp2607
(dp2608
g62
(dp2609
g89
g90
ssg71
g2598
sg64
(lp2610
S':'
asbag57
(g78
g59
NtRp2611
(dp2612
g62
(dp2613
sg71
g2598
sg64
(lp2614
g57
(g58
g59
NtRp2615
(dp2616
g62
(dp2617
g70
I5
ssg71
g2611
sg64
(lp2618
S'datetime.datetime(2013, 8, 26, 20, 38, 45, 599276)'
p2619
asbasbasbag57
(g73
g59
NtRp2620
(dp2621
g62
(dp2622
sg71
g67
sg64
(lp2623
g57
(g78
g59
NtRp2624
(dp2625
g62
(dp2626
g82
g83
ssg71
g2620
sg64
(lp2627
S'post_vars'
p2628
asbag57
(g78
g59
NtRp2629
(dp2630
g62
(dp2631
g89
g90
ssg71
g2620
sg64
(lp2632
S':'
asbag57
(g78
g59
NtRp2633
(dp2634
g62
(dp2635
sg71
g2620
sg64
(lp2636
g57
(g58
g59
NtRp2637
(dp2638
g62
(dp2639
g70
I5
ssg71
g2633
sg64
(lp2640
g57
(g66
g59
NtRp2641
(dp2642
g62
(dp2643
g70
I4
ssg71
Nsg64
(lp2644
sbasbasbasbag57
(g73
g59
NtRp2645
(dp2646
g62
(dp2647
sg71
g67
sg64
(lp2648
g57
(g78
g59
NtRp2649
(dp2650
g62
(dp2651
g82
g83
ssg71
g2645
sg64
(lp2652
S'raw_args'
p2653
asbag57
(g78
g59
NtRp2654
(dp2655
g62
(dp2656
g89
g90
ssg71
g2645
sg64
(lp2657
S':'
asbag57
(g78
g59
NtRp2658
(dp2659
g62
(dp2660
sg71
g2645
sg64
(lp2661
g57
(g58
g59
NtRp2662
(dp2663
g62
(dp2664
g70
I5
ssg71
g2658
sg64
(lp2665
g159
asbasbasbag57
(g73
g59
NtRp2666
(dp2667
g62
(dp2668
sg71
g67
sg64
(lp2669
g57
(g78
g59
NtRp2670
(dp2671
g62
(dp2672
g82
g83
ssg71
g2666
sg64
(lp2673
S'raw_extension'
p2674
asbag57
(g78
g59
NtRp2675
(dp2676
g62
(dp2677
g89
g90
ssg71
g2666
sg64
(lp2678
S':'
asbag57
(g78
g59
NtRp2679
(dp2680
g62
(dp2681
sg71
g2666
sg64
(lp2682
g57
(g58
g59
NtRp2683
(dp2684
g62
(dp2685
g70
I5
ssg71
g2679
sg64
(lp2686
S'None'
p2687
asbasbasbag57
(g73
g59
NtRp2688
(dp2689
g62
(dp2690
sg71
g67
sg64
(lp2691
g57
(g78
g59
NtRp2692
(dp2693
g62
(dp2694
g82
g83
ssg71
g2688
sg64
(lp2695
S'url'
p2696
asbag57
(g78
g59
NtRp2697
(dp2698
g62
(dp2699
g89
g90
ssg71
g2688
sg64
(lp2700
S':'
asbag57
(g78
g59
NtRp2701
(dp2702
g62
(dp2703
sg71
g2688
sg64
(lp2704
g57
(g58
g59
NtRp2705
(dp2706
g62
(dp2707
g70
I5
ssg71
g2701
sg64
(lp2708
g1535
asbasbasbag57
(g73
g59
NtRp2709
(dp2710
g62
(dp2711
sg71
g67
sg64
(lp2712
g57
(g78
g59
NtRp2713
(dp2714
g62
(dp2715
g82
g83
ssg71
g2709
sg64
(lp2716
S'utcnow'
p2717
asbag57
(g78
g59
NtRp2718
(dp2719
g62
(dp2720
g89
g90
ssg71
g2709
sg64
(lp2721
S':'
asbag57
(g78
g59
NtRp2722
(dp2723
g62
(dp2724
sg71
g2709
sg64
(lp2725
g57
(g58
g59
NtRp2726
(dp2727
g62
(dp2728
g70
I5
ssg71
g2722
sg64
(lp2729
S'datetime.datetime(2013, 8, 26, 15, 8, 45, 599325)'
p2730
asbasbasbag57
(g73
g59
NtRp2731
(dp2732
g62
(dp2733
sg71
g67
sg64
(lp2734
g57
(g78
g59
NtRp2735
(dp2736
g62
(dp2737
g82
g83
ssg71
g2731
sg64
(lp2738
S'uuid'
p2739
asbag57
(g78
g59
NtRp2740
(dp2741
g62
(dp2742
g89
g90
ssg71
g2731
sg64
(lp2743
S':'
asbag57
(g78
g59
NtRp2744
(dp2745
g62
(dp2746
sg71
g2731
sg64
(lp2747
g57
(g58
g59
NtRp2748
(dp2749
g62
(dp2750
g70
I5
ssg71
g2744
sg64
(lp2751
S'SSAD/127.0.0.1.2013-08-26.20-38-45.f50895f6-99e5-4b8b-a786-4db374cde68a'
p2752
asbasbasbag57
(g73
g59
NtRp2753
(dp2754
g62
(dp2755
sg71
g67
sg64
(lp2756
g57
(g78
g59
NtRp2757
(dp2758
g62
(dp2759
g82
g83
ssg71
g2753
sg64
(lp2760
S'vars'
p2761
asbag57
(g78
g59
NtRp2762
(dp2763
g62
(dp2764
g89
g90
ssg71
g2753
sg64
(lp2765
S':'
asbag57
(g78
g59
NtRp2766
(dp2767
g62
(dp2768
sg71
g2753
sg64
(lp2769
g57
(g58
g59
NtRp2770
(dp2771
g62
(dp2772
g70
I5
ssg71
g2766
sg64
(lp2773
g57
(g66
g59
NtRp2774
(dp2775
g62
(dp2776
g70
I4
ssg71
Nsg64
(lp2777
sbasbasbasbag57
(g73
g59
NtRp2778
(dp2779
g62
(dp2780
sg71
g67
sg64
(lp2781
g57
(g78
g59
NtRp2782
(dp2783
g62
(dp2784
g82
g83
ssg71
g2778
sg64
(lp2785
S'wsgi'
p2786
asbag57
(g78
g59
NtRp2787
(dp2788
g62
(dp2789
g89
g90
ssg71
g2778
sg64
(lp2790
S':'
asbag57
(g78
g59
NtRp2791
(dp2792
g62
(dp2793
sg71
g2778
sg64
(lp2794
g57
(g58
g59
NtRp2795
(dp2796
g62
(dp2797
g70
I5
ssg71
g2791
sg64
(lp2798
g57
(g66
g59
NtRp2799
(dp2800
g62
(dp2801
g70
I4
ssg71
Nsg64
(lp2802
g57
(g73
g59
NtRp2803
(dp2804
g62
(dp2805
sg71
g2799
sg64
(lp2806
g57
(g78
g59
NtRp2807
(dp2808
g62
(dp2809
g82
g83
ssg71
g2803
sg64
(lp2810
S'environ'
p2811
asbag57
(g78
g59
NtRp2812
(dp2813
g62
(dp2814
g89
g90
ssg71
g2803
sg64
(lp2815
S':'
asbag57
(g78
g59
NtRp2816
(dp2817
g62
(dp2818
sg71
g2803
sg64
(lp2819
g57
(g58
g59
NtRp2820
(dp2821
g62
(dp2822
g70
I4
ssg71
g2816
sg64
(lp2823
g57
(g66
g59
NtRp2824
(dp2825
g62
(dp2826
g70
I3
ssg71
Nsg64
(lp2827
g57
(g73
g59
NtRp2828
(dp2829
g62
(dp2830
sg71
g2824
sg64
(lp2831
g57
(g78
g59
NtRp2832
(dp2833
g62
(dp2834
g82
g83
ssg71
g2828
sg64
(lp2835
S'HTTP_ACCEPT'
p2836
asbag57
(g78
g59
NtRp2837
(dp2838
g62
(dp2839
g89
g90
ssg71
g2828
sg64
(lp2840
S':'
asbag57
(g78
g59
NtRp2841
(dp2842
g62
(dp2843
sg71
g2828
sg64
(lp2844
g57
(g58
g59
NtRp2845
(dp2846
g62
(dp2847
g70
I3
ssg71
g2841
sg64
(lp2848
g1227
asbasbasbag57
(g73
g59
NtRp2849
(dp2850
g62
(dp2851
sg71
g2824
sg64
(lp2852
g57
(g78
g59
NtRp2853
(dp2854
g62
(dp2855
g82
g83
ssg71
g2849
sg64
(lp2856
S'HTTP_ACCEPT_ENCODING'
p2857
asbag57
(g78
g59
NtRp2858
(dp2859
g62
(dp2860
g89
g90
ssg71
g2849
sg64
(lp2861
S':'
asbag57
(g78
g59
NtRp2862
(dp2863
g62
(dp2864
sg71
g2849
sg64
(lp2865
g57
(g58
g59
NtRp2866
(dp2867
g62
(dp2868
g70
I3
ssg71
g2862
sg64
(lp2869
g1249
asbasbasbag57
(g73
g59
NtRp2870
(dp2871
g62
(dp2872
sg71
g2824
sg64
(lp2873
g57
(g78
g59
NtRp2874
(dp2875
g62
(dp2876
g82
g83
ssg71
g2870
sg64
(lp2877
S'HTTP_ACCEPT_LANGUAGE'
p2878
asbag57
(g78
g59
NtRp2879
(dp2880
g62
(dp2881
g89
g90
ssg71
g2870
sg64
(lp2882
S':'
asbag57
(g78
g59
NtRp2883
(dp2884
g62
(dp2885
sg71
g2870
sg64
(lp2886
g57
(g58
g59
NtRp2887
(dp2888
g62
(dp2889
g70
I3
ssg71
g2883
sg64
(lp2890
g1271
asbasbasbag57
(g73
g59
NtRp2891
(dp2892
g62
(dp2893
sg71
g2824
sg64
(lp2894
g57
(g78
g59
NtRp2895
(dp2896
g62
(dp2897
g82
g83
ssg71
g2891
sg64
(lp2898
S'HTTP_CONNECTION'
p2899
asbag57
(g78
g59
NtRp2900
(dp2901
g62
(dp2902
g89
g90
ssg71
g2891
sg64
(lp2903
S':'
asbag57
(g78
g59
NtRp2904
(dp2905
g62
(dp2906
sg71
g2891
sg64
(lp2907
g57
(g58
g59
NtRp2908
(dp2909
g62
(dp2910
g70
I3
ssg71
g2904
sg64
(lp2911
g1293
asbasbasbag57
(g73
g59
NtRp2912
(dp2913
g62
(dp2914
sg71
g2824
sg64
(lp2915
g57
(g78
g59
NtRp2916
(dp2917
g62
(dp2918
g82
g83
ssg71
g2912
sg64
(lp2919
S'HTTP_COOKIE'
p2920
asbag57
(g78
g59
NtRp2921
(dp2922
g62
(dp2923
g89
g90
ssg71
g2912
sg64
(lp2924
S':'
asbag57
(g78
g59
NtRp2925
(dp2926
g62
(dp2927
sg71
g2912
sg64
(lp2928
g57
(g58
g59
NtRp2929
(dp2930
g62
(dp2931
g70
I3
ssg71
g2925
sg64
(lp2932
g1315
asbasbasbag57
(g73
g59
NtRp2933
(dp2934
g62
(dp2935
sg71
g2824
sg64
(lp2936
g57
(g78
g59
NtRp2937
(dp2938
g62
(dp2939
g82
g83
ssg71
g2933
sg64
(lp2940
S'HTTP_HOST'
p2941
asbag57
(g78
g59
NtRp2942
(dp2943
g62
(dp2944
g89
g90
ssg71
g2933
sg64
(lp2945
S':'
asbag57
(g78
g59
NtRp2946
(dp2947
g62
(dp2948
sg71
g2933
sg64
(lp2949
g57
(g58
g59
NtRp2950
(dp2951
g62
(dp2952
g70
I3
ssg71
g2946
sg64
(lp2953
g1337
asbasbasbag57
(g73
g59
NtRp2954
(dp2955
g62
(dp2956
sg71
g2824
sg64
(lp2957
g57
(g78
g59
NtRp2958
(dp2959
g62
(dp2960
g82
g83
ssg71
g2954
sg64
(lp2961
S'HTTP_REFERER'
p2962
asbag57
(g78
g59
NtRp2963
(dp2964
g62
(dp2965
g89
g90
ssg71
g2954
sg64
(lp2966
S':'
asbag57
(g78
g59
NtRp2967
(dp2968
g62
(dp2969
sg71
g2954
sg64
(lp2970
g57
(g58
g59
NtRp2971
(dp2972
g62
(dp2973
g70
I3
ssg71
g2967
sg64
(lp2974
g1359
asbasbasbag57
(g73
g59
NtRp2975
(dp2976
g62
(dp2977
sg71
g2824
sg64
(lp2978
g57
(g78
g59
NtRp2979
(dp2980
g62
(dp2981
g82
g83
ssg71
g2975
sg64
(lp2982
S'HTTP_USER_AGENT'
p2983
asbag57
(g78
g59
NtRp2984
(dp2985
g62
(dp2986
g89
g90
ssg71
g2975
sg64
(lp2987
S':'
asbag57
(g78
g59
NtRp2988
(dp2989
g62
(dp2990
sg71
g2975
sg64
(lp2991
g57
(g58
g59
NtRp2992
(dp2993
g62
(dp2994
g70
I3
ssg71
g2988
sg64
(lp2995
g1381
asbasbasbag57
(g73
g59
NtRp2996
(dp2997
g62
(dp2998
sg71
g2824
sg64
(lp2999
g57
(g78
g59
NtRp3000
(dp3001
g62
(dp3002
g82
g83
ssg71
g2996
sg64
(lp3003
S'PATH_INFO'
p3004
asbag57
(g78
g59
NtRp3005
(dp3006
g62
(dp3007
g89
g90
ssg71
g2996
sg64
(lp3008
S':'
asbag57
(g78
g59
NtRp3009
(dp3010
g62
(dp3011
sg71
g2996
sg64
(lp3012
g57
(g58
g59
NtRp3013
(dp3014
g62
(dp3015
g70
I3
ssg71
g3009
sg64
(lp3016
g1535
asbasbasbag57
(g73
g59
NtRp3017
(dp3018
g62
(dp3019
sg71
g2824
sg64
(lp3020
g57
(g78
g59
NtRp3021
(dp3022
g62
(dp3023
g82
g83
ssg71
g3017
sg64
(lp3024
S'QUERY_STRING'
p3025
asbag57
(g78
g59
NtRp3026
(dp3027
g62
(dp3028
g89
g90
ssg71
g3017
sg64
(lp3029
S':'
asbag57
(g78
g59
NtRp3030
(dp3031
g62
(dp3032
sg71
g3017
sg64
(lp3033
g57
(g58
g59
NtRp3034
(dp3035
g62
(dp3036
g70
I3
ssg71
g3030
sg64
(lp3037
g1557
asbasbasbag57
(g73
g59
NtRp3038
(dp3039
g62
(dp3040
sg71
g2824
sg64
(lp3041
g57
(g78
g59
NtRp3042
(dp3043
g62
(dp3044
g82
g83
ssg71
g3038
sg64
(lp3045
S'REMOTE_ADDR'
p3046
asbag57
(g78
g59
NtRp3047
(dp3048
g62
(dp3049
g89
g90
ssg71
g3038
sg64
(lp3050
S':'
asbag57
(g78
g59
NtRp3051
(dp3052
g62
(dp3053
sg71
g3038
sg64
(lp3054
g57
(g58
g59
NtRp3055
(dp3056
g62
(dp3057
g70
I3
ssg71
g3051
sg64
(lp3058
g225
asbasbasbag57
(g73
g59
NtRp3059
(dp3060
g62
(dp3061
sg71
g2824
sg64
(lp3062
g57
(g78
g59
NtRp3063
(dp3064
g62
(dp3065
g82
g83
ssg71
g3059
sg64
(lp3066
S'REMOTE_PORT'
p3067
asbag57
(g78
g59
NtRp3068
(dp3069
g62
(dp3070
g89
g90
ssg71
g3059
sg64
(lp3071
S':'
asbag57
(g78
g59
NtRp3072
(dp3073
g62
(dp3074
sg71
g3059
sg64
(lp3075
g57
(g58
g59
NtRp3076
(dp3077
g62
(dp3078
g70
I3
ssg71
g3072
sg64
(lp3079
g1600
asbasbasbag57
(g73
g59
NtRp3080
(dp3081
g62
(dp3082
sg71
g2824
sg64
(lp3083
g57
(g78
g59
NtRp3084
(dp3085
g62
(dp3086
g82
g83
ssg71
g3080
sg64
(lp3087
S'REQUEST_METHOD'
p3088
asbag57
(g78
g59
NtRp3089
(dp3090
g62
(dp3091
g89
g90
ssg71
g3080
sg64
(lp3092
S':'
asbag57
(g78
g59
NtRp3093
(dp3094
g62
(dp3095
sg71
g3080
sg64
(lp3096
g57
(g58
g59
NtRp3097
(dp3098
g62
(dp3099
g70
I3
ssg71
g3093
sg64
(lp3100
g1622
asbasbasbag57
(g73
g59
NtRp3101
(dp3102
g62
(dp3103
sg71
g2824
sg64
(lp3104
g57
(g78
g59
NtRp3105
(dp3106
g62
(dp3107
g82
g83
ssg71
g3101
sg64
(lp3108
S'REQUEST_URI'
p3109
asbag57
(g78
g59
NtRp3110
(dp3111
g62
(dp3112
g89
g90
ssg71
g3101
sg64
(lp3113
S':'
asbag57
(g78
g59
NtRp3114
(dp3115
g62
(dp3116
sg71
g3101
sg64
(lp3117
g57
(g58
g59
NtRp3118
(dp3119
g62
(dp3120
g70
I3
ssg71
g3114
sg64
(lp3121
g1644
asbasbasbag57
(g73
g59
NtRp3122
(dp3123
g62
(dp3124
sg71
g2824
sg64
(lp3125
g57
(g78
g59
NtRp3126
(dp3127
g62
(dp3128
g82
g83
ssg71
g3122
sg64
(lp3129
S'SCRIPT_NAME'
p3130
asbag57
(g78
g59
NtRp3131
(dp3132
g62
(dp3133
g89
g90
ssg71
g3122
sg64
(lp3134
S':'
asbag57
(g78
g59
NtRp3135
(dp3136
g62
(dp3137
sg71
g3122
sg64
(lp3138
g57
(g58
g59
NtRp3139
(dp3140
g62
(dp3141
g70
I3
ssg71
g3135
sg64
(lp3142
S''
asbasbasbag57
(g73
g59
NtRp3143
(dp3144
g62
(dp3145
sg71
g2824
sg64
(lp3146
g57
(g78
g59
NtRp3147
(dp3148
g62
(dp3149
g82
g83
ssg71
g3143
sg64
(lp3150
S'SERVER_NAME'
p3151
asbag57
(g78
g59
NtRp3152
(dp3153
g62
(dp3154
g89
g90
ssg71
g3143
sg64
(lp3155
S':'
asbag57
(g78
g59
NtRp3156
(dp3157
g62
(dp3158
sg71
g3143
sg64
(lp3159
g57
(g58
g59
NtRp3160
(dp3161
g62
(dp3162
g70
I3
ssg71
g3156
sg64
(lp3163
g1687
asbasbasbag57
(g73
g59
NtRp3164
(dp3165
g62
(dp3166
sg71
g2824
sg64
(lp3167
g57
(g78
g59
NtRp3168
(dp3169
g62
(dp3170
g82
g83
ssg71
g3164
sg64
(lp3171
S'SERVER_PORT'
p3172
asbag57
(g78
g59
NtRp3173
(dp3174
g62
(dp3175
g89
g90
ssg71
g3164
sg64
(lp3176
S':'
asbag57
(g78
g59
NtRp3177
(dp3178
g62
(dp3179
sg71
g3164
sg64
(lp3180
g57
(g58
g59
NtRp3181
(dp3182
g62
(dp3183
g70
I3
ssg71
g3177
sg64
(lp3184
g1709
asbasbasbag57
(g73
g59
NtRp3185
(dp3186
g62
(dp3187
sg71
g2824
sg64
(lp3188
g57
(g78
g59
NtRp3189
(dp3190
g62
(dp3191
g82
g83
ssg71
g3185
sg64
(lp3192
S'SERVER_PROTOCOL'
p3193
asbag57
(g78
g59
NtRp3194
(dp3195
g62
(dp3196
g89
g90
ssg71
g3185
sg64
(lp3197
S':'
asbag57
(g78
g59
NtRp3198
(dp3199
g62
(dp3200
sg71
g3185
sg64
(lp3201
g57
(g58
g59
NtRp3202
(dp3203
g62
(dp3204
g70
I3
ssg71
g3198
sg64
(lp3205
g1731
asbasbasbag57
(g73
g59
NtRp3206
(dp3207
g62
(dp3208
sg71
g2824
sg64
(lp3209
g57
(g78
g59
NtRp3210
(dp3211
g62
(dp3212
g82
g83
ssg71
g3206
sg64
(lp3213
S'SERVER_SOFTWARE'
p3214
asbag57
(g78
g59
NtRp3215
(dp3216
g62
(dp3217
g89
g90
ssg71
g3206
sg64
(lp3218
S':'
asbag57
(g78
g59
NtRp3219
(dp3220
g62
(dp3221
sg71
g3206
sg64
(lp3222
g57
(g58
g59
NtRp3223
(dp3224
g62
(dp3225
g70
I3
ssg71
g3219
sg64
(lp3226
g1753
asbasbasbag57
(g73
g59
NtRp3227
(dp3228
g62
(dp3229
sg71
g2824
sg64
(lp3230
g57
(g78
g59
NtRp3231
(dp3232
g62
(dp3233
g82
g83
ssg71
g3227
sg64
(lp3234
S'wsgi.errors'
p3235
asbag57
(g78
g59
NtRp3236
(dp3237
g62
(dp3238
g89
g90
ssg71
g3227
sg64
(lp3239
S':'
asbag57
(g78
g59
NtRp3240
(dp3241
g62
(dp3242
sg71
g3227
sg64
(lp3243
g57
(g58
g59
NtRp3244
(dp3245
g62
(dp3246
g70
I3
ssg71
g3240
sg64
(lp3247
S"<open file '<stderr>', mode 'w' at 0x7f9f5e06a270>"
p3248
asbasbasbag57
(g73
g59
NtRp3249
(dp3250
g62
(dp3251
sg71
g2824
sg64
(lp3252
g57
(g78
g59
NtRp3253
(dp3254
g62
(dp3255
g82
g83
ssg71
g3249
sg64
(lp3256
S'wsgi.file_wrapper'
p3257
asbag57
(g78
g59
NtRp3258
(dp3259
g62
(dp3260
g89
g90
ssg71
g3249
sg64
(lp3261
S':'
asbag57
(g78
g59
NtRp3262
(dp3263
g62
(dp3264
sg71
g3249
sg64
(lp3265
g57
(g58
g59
NtRp3266
(dp3267
g62
(dp3268
g70
I3
ssg71
g3262
sg64
(lp3269
S'<class wsgiref.util.FileWrapper at 0x1d858d8>'
p3270
asbasbasbag57
(g73
g59
NtRp3271
(dp3272
g62
(dp3273
sg71
g2824
sg64
(lp3274
g57
(g78
g59
NtRp3275
(dp3276
g62
(dp3277
g82
g83
ssg71
g3271
sg64
(lp3278
S'wsgi.input'
p3279
asbag57
(g78
g59
NtRp3280
(dp3281
g62
(dp3282
g89
g90
ssg71
g3271
sg64
(lp3283
S':'
asbag57
(g78
g59
NtRp3284
(dp3285
g62
(dp3286
sg71
g3271
sg64
(lp3287
g57
(g58
g59
NtRp3288
(dp3289
g62
(dp3290
g70
I3
ssg71
g3284
sg64
(lp3291
S'<cStringIO.StringO object at 0x7f9f402500a0>'
p3292
asbasbasbag57
(g73
g59
NtRp3293
(dp3294
g62
(dp3295
sg71
g2824
sg64
(lp3296
g57
(g78
g59
NtRp3297
(dp3298
g62
(dp3299
g82
g83
ssg71
g3293
sg64
(lp3300
S'wsgi.multiprocess'
p3301
asbag57
(g78
g59
NtRp3302
(dp3303
g62
(dp3304
g89
g90
ssg71
g3293
sg64
(lp3305
S':'
asbag57
(g78
g59
NtRp3306
(dp3307
g62
(dp3308
sg71
g3293
sg64
(lp3309
g57
(g58
g59
NtRp3310
(dp3311
g62
(dp3312
g70
I3
ssg71
g3306
sg64
(lp3313
g100
asbasbasbag57
(g73
g59
NtRp3314
(dp3315
g62
(dp3316
sg71
g2824
sg64
(lp3317
g57
(g78
g59
NtRp3318
(dp3319
g62
(dp3320
g82
g83
ssg71
g3314
sg64
(lp3321
S'wsgi.multithread'
p3322
asbag57
(g78
g59
NtRp3323
(dp3324
g62
(dp3325
g89
g90
ssg71
g3314
sg64
(lp3326
S':'
asbag57
(g78
g59
NtRp3327
(dp3328
g62
(dp3329
sg71
g3314
sg64
(lp3330
g57
(g58
g59
NtRp3331
(dp3332
g62
(dp3333
g70
I3
ssg71
g3327
sg64
(lp3334
g1970
asbasbasbag57
(g73
g59
NtRp3335
(dp3336
g62
(dp3337
sg71
g2824
sg64
(lp3338
g57
(g78
g59
NtRp3339
(dp3340
g62
(dp3341
g82
g83
ssg71
g3335
sg64
(lp3342
S'wsgi.run_once'
p3343
asbag57
(g78
g59
NtRp3344
(dp3345
g62
(dp3346
g89
g90
ssg71
g3335
sg64
(lp3347
S':'
asbag57
(g78
g59
NtRp3348
(dp3349
g62
(dp3350
sg71
g3335
sg64
(lp3351
g57
(g58
g59
NtRp3352
(dp3353
g62
(dp3354
g70
I3
ssg71
g3348
sg64
(lp3355
g100
asbasbasbag57
(g73
g59
NtRp3356
(dp3357
g62
(dp3358
sg71
g2824
sg64
(lp3359
g57
(g78
g59
NtRp3360
(dp3361
g62
(dp3362
g82
g83
ssg71
g3356
sg64
(lp3363
S'wsgi.url_scheme'
p3364
asbag57
(g78
g59
NtRp3365
(dp3366
g62
(dp3367
g89
g90
ssg71
g3356
sg64
(lp3368
S':'
asbag57
(g78
g59
NtRp3369
(dp3370
g62
(dp3371
sg71
g3356
sg64
(lp3372
g57
(g58
g59
NtRp3373
(dp3374
g62
(dp3375
g70
I3
ssg71
g3369
sg64
(lp3376
g2013
asbasbasbag57
(g73
g59
NtRp3377
(dp3378
g62
(dp3379
sg71
g2824
sg64
(lp3380
g57
(g78
g59
NtRp3381
(dp3382
g62
(dp3383
g82
g83
ssg71
g3377
sg64
(lp3384
S'wsgi.version'
p3385
asbag57
(g78
g59
NtRp3386
(dp3387
g62
(dp3388
g89
g90
ssg71
g3377
sg64
(lp3389
S':'
asbag57
(g78
g59
NtRp3390
(dp3391
g62
(dp3392
sg71
g3377
sg64
(lp3393
g57
(g58
g59
NtRp3394
(dp3395
g62
(dp3396
g70
I3
ssg71
g3390
sg64
(lp3397
S'1'
asbasbasbasbasbasbasbasbasbasbasbasbasbsS'frames'
p3398
(lp3399
(dp3400
S'file'
p3401
S'/home/urvashi/Desktop/WEB2PY/web2py/gluon/restricted.py'
p3402
sS'dump'
p3403
(dp3404
S'environment'
p3405
S"{'A': <class 'gluon.html.A'>, 'Auth': <class 'gluon.tools.Auth'>, 'B': <class 'gluon.html.B'>, 'BEAUTIFY': <class 'gluon.html.BEAUTIFY'>, 'BODY': <class 'gluon.html.BODY'>, 'BR': <class 'gluon.html.BR'>, 'BUTTON': <class 'gluon.html.BUTTON'>, 'CAT': <class 'gluon.html.CAT'>, 'CENTER': <class 'gluon.html.CENTER'>, 'CLEANUP': <class 'gluon.validators.CLEANUP'>, ...}"
p3406
sS'ccode'
p3407
S'<code object <module> at 0x7f9f54426730, file "/.../web2py/applications/SSAD/models/db.py", line 12>'
p3408
ssS'lnum'
p3409
I212
sS'lines'
p3410
(dp3411
I207
S'    try:'
p3412
sI208
S'        if isinstance(code, types.CodeType):'
p3413
sI209
S'            ccode = code'
p3414
sI210
S'        else:'
p3415
sI211
S'            ccode = compile2(code, layer)'
p3416
sI212
S'        exec ccode in environment'
p3417
sI213
S'    except HTTP:'
p3418
sI214
S'        raise'
p3419
sI215
S'    except RestrictedError:'
p3420
sI216
S'        # do not encapsulate (obfuscate) the original RestrictedError'
p3421
ssS'call'
p3422
S'(code="# -*- coding: utf-8 -*-\\n\\n#######################...,\'integer\'),\\n    db.Field(\'dislikes\',\'integer\'))\\n", environment={\'A\': <class \'gluon.html.A\'>, \'Auth\': <class \'gluon.tools.Auth\'>, \'B\': <class \'gluon.html.B\'>, \'BEAUTIFY\': <class \'gluon.html.BEAUTIFY\'>, \'BODY\': <class \'gluon.html.BODY\'>, \'BR\': <class \'gluon.html.BR\'>, \'BUTTON\': <class \'gluon.html.BUTTON\'>, \'CAT\': <class \'gluon.html.CAT\'>, \'CENTER\': <class \'gluon.html.CENTER\'>, \'CLEANUP\': <class \'gluon.validators.CLEANUP\'>, ...}, layer=\'/home/urvashi/Desktop/WEB2PY/web2py/applications/SSAD/models/db.py\')'
p3423
sS'func'
p3424
S'restricted'
p3425
sa(dp3426
g3401
S'/home/urvashi/Desktop/WEB2PY/web2py/applications/SSAD/models/db.py'
p3427
sg3403
(dp3428
S'db.Field'
p3429
S"<class 'gluon.dal.Field'>"
p3430
sS'db'
p3431
S'<DAL uri="sqlite://storage.sqlite">'
p3432
sS'db.categories'
p3433
S'<Table categories (id,name)>'
p3434
sS'label'
p3435
S'undefined'
p3436
sS'IS_IN_DB'
p3437
S"<class 'gluon.validators.IS_IN_DB'>"
p3438
sS'requires'
p3439
g3436
ssg3409
I91
sg3410
(dp3440
I86
S"    db.Field('name','string',required=True,requires=IS_NOT_IN_DB('categories.id','categories.name')))"
p3441
sI87
S''
sI88
S"db.define_table('links',"
p3442
sI89
S"    db.Field('url','string',requires=IS_URL(),label='Link'),"
p3443
sI90
S"    db.Field('username',db.auth_user,requires=IS_IN_DB(db,'auth_user.id','auth_user.username'),label='Author'),"
p3444
sI91
S"    db.Field('category',db.categories,requires=IS_IN_DB(db,'categories.id','categories.name',label='Category')),"
p3445
sI92
S"    db.Field('date_posted','datetime',default=request.now.date()),"
p3446
sI93
S"    db.Field('time_posted','datetime',default=request.now),"
p3447
sI94
S"    db.Field('likes','integer'),"
p3448
sI95
S"    db.Field('dislikes','integer'))"
p3449
ssg3422
S'()'
p3450
sg3424
S'<module>'
p3451
sasS'pyver'
p3452
S'Python 2.7.3: /usr/bin/python'
p3453
sS'session'
p3454
g57
(g58
g59
NtRp3455
(dp3456
g62
(dp3457
sg64
(lp3458
g57
(g66
g59
NtRp3459
(dp3460
g62
(dp3461
g70
I5
ssg71
Nsg64
(lp3462
g57
(g73
g59
NtRp3463
(dp3464
g62
(dp3465
sg71
g3459
sg64
(lp3466
g57
(g78
g59
NtRp3467
(dp3468
g62
(dp3469
g82
g83
ssg71
g3463
sg64
(lp3470
S'auth'
p3471
asbag57
(g78
g59
NtRp3472
(dp3473
g62
(dp3474
g89
g90
ssg71
g3463
sg64
(lp3475
S':'
asbag57
(g78
g59
NtRp3476
(dp3477
g62
(dp3478
sg71
g3463
sg64
(lp3479
g57
(g58
g59
NtRp3480
(dp3481
g62
(dp3482
g70
I5
ssg71
g3476
sg64
(lp3483
g57
(g66
g59
NtRp3484
(dp3485
g62
(dp3486
g70
I4
ssg71
Nsg64
(lp3487
g57
(g73
g59
NtRp3488
(dp3489
g62
(dp3490
sg71
g3484
sg64
(lp3491
g57
(g78
g59
NtRp3492
(dp3493
g62
(dp3494
g82
g83
ssg71
g3488
sg64
(lp3495
S'expiration'
p3496
asbag57
(g78
g59
NtRp3497
(dp3498
g62
(dp3499
g89
g90
ssg71
g3488
sg64
(lp3500
S':'
asbag57
(g78
g59
NtRp3501
(dp3502
g62
(dp3503
sg71
g3488
sg64
(lp3504
g57
(g58
g59
NtRp3505
(dp3506
g62
(dp3507
g70
I4
ssg71
g3501
sg64
(lp3508
S'3600'
p3509
asbasbasbag57
(g73
g59
NtRp3510
(dp3511
g62
(dp3512
sg71
g3484
sg64
(lp3513
g57
(g78
g59
NtRp3514
(dp3515
g62
(dp3516
g82
g83
ssg71
g3510
sg64
(lp3517
S'hmac_key'
p3518
asbag57
(g78
g59
NtRp3519
(dp3520
g62
(dp3521
g89
g90
ssg71
g3510
sg64
(lp3522
S':'
asbag57
(g78
g59
NtRp3523
(dp3524
g62
(dp3525
sg71
g3510
sg64
(lp3526
g57
(g58
g59
NtRp3527
(dp3528
g62
(dp3529
g70
I4
ssg71
g3523
sg64
(lp3530
S'aa45c1bb-a354-433d-88c6-10dd290660f2'
p3531
asbasbasbag57
(g73
g59
NtRp3532
(dp3533
g62
(dp3534
sg71
g3484
sg64
(lp3535
g57
(g78
g59
NtRp3536
(dp3537
g62
(dp3538
g82
g83
ssg71
g3532
sg64
(lp3539
S'last_visit'
p3540
asbag57
(g78
g59
NtRp3541
(dp3542
g62
(dp3543
g89
g90
ssg71
g3532
sg64
(lp3544
S':'
asbag57
(g78
g59
NtRp3545
(dp3546
g62
(dp3547
sg71
g3532
sg64
(lp3548
g57
(g58
g59
NtRp3549
(dp3550
g62
(dp3551
g70
I4
ssg71
g3545
sg64
(lp3552
S'datetime.datetime(2013, 8, 26, 20, 38, 45, 599276)'
p3553
asbasbasbag57
(g73
g59
NtRp3554
(dp3555
g62
(dp3556
sg71
g3484
sg64
(lp3557
g57
(g78
g59
NtRp3558
(dp3559
g62
(dp3560
g82
g83
ssg71
g3554
sg64
(lp3561
S'user'
p3562
asbag57
(g78
g59
NtRp3563
(dp3564
g62
(dp3565
g89
g90
ssg71
g3554
sg64
(lp3566
S':'
asbag57
(g78
g59
NtRp3567
(dp3568
g62
(dp3569
sg71
g3554
sg64
(lp3570
g57
(g58
g59
NtRp3571
(dp3572
g62
(dp3573
g70
I4
ssg71
g3567
sg64
(lp3574
g57
(g66
g59
NtRp3575
(dp3576
g62
(dp3577
g70
I3
ssg71
Nsg64
(lp3578
g57
(g73
g59
NtRp3579
(dp3580
g62
(dp3581
sg71
g3575
sg64
(lp3582
g57
(g78
g59
NtRp3583
(dp3584
g62
(dp3585
g82
g83
ssg71
g3579
sg64
(lp3586
S'email'
p3587
asbag57
(g78
g59
NtRp3588
(dp3589
g62
(dp3590
g89
g90
ssg71
g3579
sg64
(lp3591
S':'
asbag57
(g78
g59
NtRp3592
(dp3593
g62
(dp3594
sg71
g3579
sg64
(lp3595
g57
(g58
g59
NtRp3596
(dp3597
g62
(dp3598
g70
I3
ssg71
g3592
sg64
(lp3599
S'urvashi.senha@students.iiit.ac.in'
p3600
asbasbasbag57
(g73
g59
NtRp3601
(dp3602
g62
(dp3603
sg71
g3575
sg64
(lp3604
g57
(g78
g59
NtRp3605
(dp3606
g62
(dp3607
g82
g83
ssg71
g3601
sg64
(lp3608
S'first_name'
p3609
asbag57
(g78
g59
NtRp3610
(dp3611
g62
(dp3612
g89
g90
ssg71
g3601
sg64
(lp3613
S':'
asbag57
(g78
g59
NtRp3614
(dp3615
g62
(dp3616
sg71
g3601
sg64
(lp3617
g57
(g58
g59
NtRp3618
(dp3619
g62
(dp3620
g70
I3
ssg71
g3614
sg64
(lp3621
S'Urvashi'
p3622
asbasbasbag57
(g73
g59
NtRp3623
(dp3624
g62
(dp3625
sg71
g3575
sg64
(lp3626
g57
(g78
g59
NtRp3627
(dp3628
g62
(dp3629
g82
g83
ssg71
g3623
sg64
(lp3630
S'id'
p3631
asbag57
(g78
g59
NtRp3632
(dp3633
g62
(dp3634
g89
g90
ssg71
g3623
sg64
(lp3635
S':'
asbag57
(g78
g59
NtRp3636
(dp3637
g62
(dp3638
sg71
g3623
sg64
(lp3639
g57
(g58
g59
NtRp3640
(dp3641
g62
(dp3642
g70
I3
ssg71
g3636
sg64
(lp3643
S'3'
asbasbasbag57
(g73
g59
NtRp3644
(dp3645
g62
(dp3646
sg71
g3575
sg64
(lp3647
g57
(g78
g59
NtRp3648
(dp3649
g62
(dp3650
g82
g83
ssg71
g3644
sg64
(lp3651
S'last_name'
p3652
asbag57
(g78
g59
NtRp3653
(dp3654
g62
(dp3655
g89
g90
ssg71
g3644
sg64
(lp3656
S':'
asbag57
(g78
g59
NtRp3657
(dp3658
g62
(dp3659
sg71
g3644
sg64
(lp3660
g57
(g58
g59
NtRp3661
(dp3662
g62
(dp3663
g70
I3
ssg71
g3657
sg64
(lp3664
S'Senha'
p3665
asbasbasbag57
(g73
g59
NtRp3666
(dp3667
g62
(dp3668
sg71
g3575
sg64
(lp3669
g57
(g78
g59
NtRp3670
(dp3671
g62
(dp3672
g82
g83
ssg71
g3666
sg64
(lp3673
S'registration_id'
p3674
asbag57
(g78
g59
NtRp3675
(dp3676
g62
(dp3677
g89
g90
ssg71
g3666
sg64
(lp3678
S':'
asbag57
(g78
g59
NtRp3679
(dp3680
g62
(dp3681
sg71
g3666
sg64
(lp3682
g57
(g58
g59
NtRp3683
(dp3684
g62
(dp3685
g70
I3
ssg71
g3679
sg64
(lp3686
S''
asbasbasbag57
(g73
g59
NtRp3687
(dp3688
g62
(dp3689
sg71
g3575
sg64
(lp3690
g57
(g78
g59
NtRp3691
(dp3692
g62
(dp3693
g82
g83
ssg71
g3687
sg64
(lp3694
S'registration_key'
p3695
asbag57
(g78
g59
NtRp3696
(dp3697
g62
(dp3698
g89
g90
ssg71
g3687
sg64
(lp3699
S':'
asbag57
(g78
g59
NtRp3700
(dp3701
g62
(dp3702
sg71
g3687
sg64
(lp3703
g57
(g58
g59
NtRp3704
(dp3705
g62
(dp3706
g70
I3
ssg71
g3700
sg64
(lp3707
S''
asbasbasbag57
(g73
g59
NtRp3708
(dp3709
g62
(dp3710
sg71
g3575
sg64
(lp3711
g57
(g78
g59
NtRp3712
(dp3713
g62
(dp3714
g82
g83
ssg71
g3708
sg64
(lp3715
S'reset_password_key'
p3716
asbag57
(g78
g59
NtRp3717
(dp3718
g62
(dp3719
g89
g90
ssg71
g3708
sg64
(lp3720
S':'
asbag57
(g78
g59
NtRp3721
(dp3722
g62
(dp3723
sg71
g3708
sg64
(lp3724
g57
(g58
g59
NtRp3725
(dp3726
g62
(dp3727
g70
I3
ssg71
g3721
sg64
(lp3728
S''
asbasbasbasbasbasbasbag57
(g73
g59
NtRp3729
(dp3730
g62
(dp3731
sg71
g3484
sg64
(lp3732
g57
(g78
g59
NtRp3733
(dp3734
g62
(dp3735
g82
g83
ssg71
g3729
sg64
(lp3736
S'user_groups'
p3737
asbag57
(g78
g59
NtRp3738
(dp3739
g62
(dp3740
g89
g90
ssg71
g3729
sg64
(lp3741
S':'
asbag57
(g78
g59
NtRp3742
(dp3743
g62
(dp3744
sg71
g3729
sg64
(lp3745
g57
(g58
g59
NtRp3746
(dp3747
g62
(dp3748
g70
I4
ssg71
g3742
sg64
(lp3749
g57
(g66
g59
NtRp3750
(dp3751
g62
(dp3752
g70
I3
ssg71
Nsg64
(lp3753
g57
(g73
g59
NtRp3754
(dp3755
g62
(dp3756
sg71
g3750
sg64
(lp3757
g57
(g78
g59
NtRp3758
(dp3759
g62
(dp3760
g82
g83
ssg71
g3754
sg64
(lp3761
S'1'
asbag57
(g78
g59
NtRp3762
(dp3763
g62
(dp3764
g89
g90
ssg71
g3754
sg64
(lp3765
S':'
asbag57
(g78
g59
NtRp3766
(dp3767
g62
(dp3768
sg71
g3754
sg64
(lp3769
g57
(g58
g59
NtRp3770
(dp3771
g62
(dp3772
g70
I3
ssg71
g3766
sg64
(lp3773
S'user_3'
p3774
asbasbasbasbasbasbasbasbasbasbasbag57
(g73
g59
NtRp3775
(dp3776
g62
(dp3777
sg71
g3459
sg64
(lp3778
g57
(g78
g59
NtRp3779
(dp3780
g62
(dp3781
g82
g83
ssg71
g3775
sg64
(lp3782
S'flash'
p3783
asbag57
(g78
g59
NtRp3784
(dp3785
g62
(dp3786
g89
g90
ssg71
g3775
sg64
(lp3787
S':'
asbag57
(g78
g59
NtRp3788
(dp3789
g62
(dp3790
sg71
g3775
sg64
(lp3791
g57
(g58
g59
NtRp3792
(dp3793
g62
(dp3794
g70
I5
ssg71
g3788
sg64
(lp3795
S'None'
p3796
asbasbasbag57
(g73
g59
NtRp3797
(dp3798
g62
(dp3799
sg71
g3459
sg64
(lp3800
g57
(g78
g59
NtRp3801
(dp3802
g62
(dp3803
g82
g83
ssg71
g3797
sg64
(lp3804
S'last_orderby'
p3805
asbag57
(g78
g59
NtRp3806
(dp3807
g62
(dp3808
g89
g90
ssg71
g3797
sg64
(lp3809
S':'
asbag57
(g78
g59
NtRp3810
(dp3811
g62
(dp3812
sg71
g3797
sg64
(lp3813
g57
(g58
g59
NtRp3814
(dp3815
g62
(dp3816
g70
I5
ssg71
g3810
sg64
(lp3817
S'None'
p3818
asbasbasbag57
(g73
g59
NtRp3819
(dp3820
g62
(dp3821
sg71
g3459
sg64
(lp3822
g57
(g78
g59
NtRp3823
(dp3824
g62
(dp3825
g82
g83
ssg71
g3819
sg64
(lp3826
S'last_query'
p3827
asbag57
(g78
g59
NtRp3828
(dp3829
g62
(dp3830
g89
g90
ssg71
g3819
sg64
(lp3831
S':'
asbag57
(g78
g59
NtRp3832
(dp3833
g62
(dp3834
sg71
g3819
sg64
(lp3835
g57
(g58
g59
NtRp3836
(dp3837
g62
(dp3838
g70
I5
ssg71
g3832
sg64
(lp3839
S'db.auth_user.id>0'
p3840
asbasbasbasbasbsS'etype'
p3841
S"<type 'exceptions.TypeError'>"
p3842
sS'date'
p3843
S'Mon Aug 26 20:38:45 2013'
p3844
sS'response'
p3845
g57
(g58
g59
NtRp3846
(dp3847
g62
(dp3848
sg64
(lp3849
g57
(g66
g59
NtRp3850
(dp3851
g62
(dp3852
g70
I5
ssg71
Nsg64
(lp3853
g57
(g73
g59
NtRp3854
(dp3855
g62
(dp3856
sg71
g3850
sg64
(lp3857
g57
(g78
g59
NtRp3858
(dp3859
g62
(dp3860
g82
g83
ssg71
g3854
sg64
(lp3861
g168
asbag57
(g78
g59
NtRp3862
(dp3863
g62
(dp3864
g89
g90
ssg71
g3854
sg64
(lp3865
S':'
asbag57
(g78
g59
NtRp3866
(dp3867
g62
(dp3868
sg71
g3854
sg64
(lp3869
g57
(g58
g59
NtRp3870
(dp3871
g62
(dp3872
g70
I5
ssg71
g3866
sg64
(lp3873
S'<cStringIO.StringO object at 0x7f9f4c392768>'
p3874
asbasbasbag57
(g73
g59
NtRp3875
(dp3876
g62
(dp3877
sg71
g3850
sg64
(lp3878
g57
(g78
g59
NtRp3879
(dp3880
g62
(dp3881
g82
g83
ssg71
g3875
sg64
(lp3882
g256
asbag57
(g78
g59
NtRp3883
(dp3884
g62
(dp3885
g89
g90
ssg71
g3875
sg64
(lp3886
S':'
asbag57
(g78
g59
NtRp3887
(dp3888
g62
(dp3889
sg71
g3875
sg64
(lp3890
g57
(g58
g59
NtRp3891
(dp3892
g62
(dp3893
g70
I5
ssg71
g3887
sg64
(lp3894
g57
(g66
g59
NtRp3895
(dp3896
g62
(dp3897
g70
I4
ssg71
Nsg64
(lp3898
g57
(g73
g59
NtRp3899
(dp3900
g62
(dp3901
sg71
g3895
sg64
(lp3902
g57
(g78
g59
NtRp3903
(dp3904
g62
(dp3905
g82
g83
ssg71
g3899
sg64
(lp3906
S'session_id_ssad'
p3907
asbag57
(g78
g59
NtRp3908
(dp3909
g62
(dp3910
g89
g90
ssg71
g3899
sg64
(lp3911
S':'
asbag57
(g78
g59
NtRp3912
(dp3913
g62
(dp3914
sg71
g3899
sg64
(lp3915
g57
(g58
g59
NtRp3916
(dp3917
g62
(dp3918
g70
I4
ssg71
g3912
sg64
(lp3919
g674
ag57
(g66
g59
NtRp3920
(dp3921
g62
(dp3922
g70
I3
ssg71
Nsg64
(lp3923
g57
(g73
g59
NtRp3924
(dp3925
g62
(dp3926
sg71
g3920
sg64
(lp3927
g57
(g78
g59
NtRp3928
(dp3929
g62
(dp3930
g82
g83
ssg71
g3924
sg64
(lp3931
g307
asbag57
(g78
g59
NtRp3932
(dp3933
g62
(dp3934
g89
g90
ssg71
g3924
sg64
(lp3935
S':'
asbag57
(g78
g59
NtRp3936
(dp3937
g62
(dp3938
sg71
g3924
sg64
(lp3939
g57
(g58
g59
NtRp3940
(dp3941
g62
(dp3942
g70
I3
ssg71
g3936
sg64
(lp3943
S''
asbasbasbag57
(g73
g59
NtRp3944
(dp3945
g62
(dp3946
sg71
g3920
sg64
(lp3947
g57
(g78
g59
NtRp3948
(dp3949
g62
(dp3950
g82
g83
ssg71
g3944
sg64
(lp3951
g328
asbag57
(g78
g59
NtRp3952
(dp3953
g62
(dp3954
g89
g90
ssg71
g3944
sg64
(lp3955
S':'
asbag57
(g78
g59
NtRp3956
(dp3957
g62
(dp3958
sg71
g3944
sg64
(lp3959
g57
(g58
g59
NtRp3960
(dp3961
g62
(dp3962
g70
I3
ssg71
g3956
sg64
(lp3963
S''
asbasbasbag57
(g73
g59
NtRp3964
(dp3965
g62
(dp3966
sg71
g3920
sg64
(lp3967
g57
(g78
g59
NtRp3968
(dp3969
g62
(dp3970
g82
g83
ssg71
g3964
sg64
(lp3971
g349
asbag57
(g78
g59
NtRp3972
(dp3973
g62
(dp3974
g89
g90
ssg71
g3964
sg64
(lp3975
S':'
asbag57
(g78
g59
NtRp3976
(dp3977
g62
(dp3978
sg71
g3964
sg64
(lp3979
g57
(g58
g59
NtRp3980
(dp3981
g62
(dp3982
g70
I3
ssg71
g3976
sg64
(lp3983
S''
asbasbasbag57
(g73
g59
NtRp3984
(dp3985
g62
(dp3986
sg71
g3920
sg64
(lp3987
g57
(g78
g59
NtRp3988
(dp3989
g62
(dp3990
g82
g83
ssg71
g3984
sg64
(lp3991
g370
asbag57
(g78
g59
NtRp3992
(dp3993
g62
(dp3994
g89
g90
ssg71
g3984
sg64
(lp3995
S':'
asbag57
(g78
g59
NtRp3996
(dp3997
g62
(dp3998
sg71
g3984
sg64
(lp3999
g57
(g58
g59
NtRp4000
(dp4001
g62
(dp4002
g70
I3
ssg71
g3996
sg64
(lp4003
S''
asbasbasbag57
(g73
g59
NtRp4004
(dp4005
g62
(dp4006
sg71
g3920
sg64
(lp4007
g57
(g78
g59
NtRp4008
(dp4009
g62
(dp4010
g82
g83
ssg71
g4004
sg64
(lp4011
g391
asbag57
(g78
g59
NtRp4012
(dp4013
g62
(dp4014
g89
g90
ssg71
g4004
sg64
(lp4015
S':'
asbag57
(g78
g59
NtRp4016
(dp4017
g62
(dp4018
sg71
g4004
sg64
(lp4019
g57
(g58
g59
NtRp4020
(dp4021
g62
(dp4022
g70
I3
ssg71
g4016
sg64
(lp4023
S''
asbasbasbag57
(g73
g59
NtRp4024
(dp4025
g62
(dp4026
sg71
g3920
sg64
(lp4027
g57
(g78
g59
NtRp4028
(dp4029
g62
(dp4030
g82
g83
ssg71
g4024
sg64
(lp4031
g412
asbag57
(g78
g59
NtRp4032
(dp4033
g62
(dp4034
g89
g90
ssg71
g4024
sg64
(lp4035
S':'
asbag57
(g78
g59
NtRp4036
(dp4037
g62
(dp4038
sg71
g4024
sg64
(lp4039
g57
(g58
g59
NtRp4040
(dp4041
g62
(dp4042
g70
I3
ssg71
g4036
sg64
(lp4043
S'/'
asbasbasbag57
(g73
g59
NtRp4044
(dp4045
g62
(dp4046
sg71
g3920
sg64
(lp4047
g57
(g78
g59
NtRp4048
(dp4049
g62
(dp4050
g82
g83
ssg71
g4044
sg64
(lp4051
g433
asbag57
(g78
g59
NtRp4052
(dp4053
g62
(dp4054
g89
g90
ssg71
g4044
sg64
(lp4055
S':'
asbag57
(g78
g59
NtRp4056
(dp4057
g62
(dp4058
sg71
g4044
sg64
(lp4059
g57
(g58
g59
NtRp4060
(dp4061
g62
(dp4062
g70
I3
ssg71
g4056
sg64
(lp4063
S''
asbasbasbag57
(g73
g59
NtRp4064
(dp4065
g62
(dp4066
sg71
g3920
sg64
(lp4067
g57
(g78
g59
NtRp4068
(dp4069
g62
(dp4070
g82
g83
ssg71
g4064
sg64
(lp4071
g454
asbag57
(g78
g59
NtRp4072
(dp4073
g62
(dp4074
g89
g90
ssg71
g4064
sg64
(lp4075
S':'
asbag57
(g78
g59
NtRp4076
(dp4077
g62
(dp4078
sg71
g4064
sg64
(lp4079
g57
(g58
g59
NtRp4080
(dp4081
g62
(dp4082
g70
I3
ssg71
g4076
sg64
(lp4083
S''
asbasbasbasbasbasbasbasbasbasbasbag57
(g73
g59
NtRp4084
(dp4085
g62
(dp4086
sg71
g3850
sg64
(lp4087
g57
(g78
g59
NtRp4088
(dp4089
g62
(dp4090
g82
g83
ssg71
g4084
sg64
(lp4091
S'delimiters'
p4092
asbag57
(g78
g59
NtRp4093
(dp4094
g62
(dp4095
g89
g90
ssg71
g4084
sg64
(lp4096
S':'
asbag57
(g78
g59
NtRp4097
(dp4098
g62
(dp4099
sg71
g4084
sg64
(lp4100
g57
(g58
g59
NtRp4101
(dp4102
g62
(dp4103
g70
I5
ssg71
g4097
sg64
(lp4104
g57
(g66
g59
NtRp4105
(dp4106
g62
(dp4107
g70
I4
ssg71
Nsg64
(lp4108
g57
(g73
g59
NtRp4109
(dp4110
g62
(dp4111
sg71
g4105
sg64
(lp4112
g57
(g78
g59
NtRp4113
(dp4114
g62
(dp4115
sg71
g4109
sg64
(lp4116
g57
(g58
g59
NtRp4117
(dp4118
g62
(dp4119
g70
I4
ssg71
g4113
sg64
(lp4120
S'{{'
p4121
asbasbasbag57
(g73
g59
NtRp4122
(dp4123
g62
(dp4124
sg71
g4105
sg64
(lp4125
g57
(g78
g59
NtRp4126
(dp4127
g62
(dp4128
sg71
g4122
sg64
(lp4129
g57
(g58
g59
NtRp4130
(dp4131
g62
(dp4132
g70
I4
ssg71
g4126
sg64
(lp4133
S'}}'
p4134
asbasbasbasbasbasbasbag57
(g73
g59
NtRp4135
(dp4136
g62
(dp4137
sg71
g3850
sg64
(lp4138
g57
(g78
g59
NtRp4139
(dp4140
g62
(dp4141
g82
g83
ssg71
g4135
sg64
(lp4142
S'files'
p4143
asbag57
(g78
g59
NtRp4144
(dp4145
g62
(dp4146
g89
g90
ssg71
g4135
sg64
(lp4147
S':'
asbag57
(g78
g59
NtRp4148
(dp4149
g62
(dp4150
sg71
g4135
sg64
(lp4151
g57
(g58
g59
NtRp4152
(dp4153
g62
(dp4154
g70
I5
ssg71
g4148
sg64
(lp4155
g57
(g66
g59
NtRp4156
(dp4157
g62
(dp4158
g70
I4
ssg71
Nsg64
(lp4159
sbasbasbasbag57
(g73
g59
NtRp4160
(dp4161
g62
(dp4162
sg71
g3850
sg64
(lp4163
g57
(g78
g59
NtRp4164
(dp4165
g62
(dp4166
g82
g83
ssg71
g4160
sg64
(lp4167
S'flash'
p4168
asbag57
(g78
g59
NtRp4169
(dp4170
g62
(dp4171
g89
g90
ssg71
g4160
sg64
(lp4172
S':'
asbag57
(g78
g59
NtRp4173
(dp4174
g62
(dp4175
sg71
g4160
sg64
(lp4176
g57
(g58
g59
NtRp4177
(dp4178
g62
(dp4179
g70
I5
ssg71
g4173
sg64
(lp4180
S''
asbasbasbag57
(g73
g59
NtRp4181
(dp4182
g62
(dp4183
sg71
g3850
sg64
(lp4184
g57
(g78
g59
NtRp4185
(dp4186
g62
(dp4187
g82
g83
ssg71
g4181
sg64
(lp4188
S'generic_patterns'
p4189
asbag57
(g78
g59
NtRp4190
(dp4191
g62
(dp4192
g89
g90
ssg71
g4181
sg64
(lp4193
S':'
asbag57
(g78
g59
NtRp4194
(dp4195
g62
(dp4196
sg71
g4181
sg64
(lp4197
g57
(g58
g59
NtRp4198
(dp4199
g62
(dp4200
g70
I5
ssg71
g4194
sg64
(lp4201
g57
(g66
g59
NtRp4202
(dp4203
g62
(dp4204
g70
I4
ssg71
Nsg64
(lp4205
g57
(g73
g59
NtRp4206
(dp4207
g62
(dp4208
sg71
g4202
sg64
(lp4209
g57
(g78
g59
NtRp4210
(dp4211
g62
(dp4212
sg71
g4206
sg64
(lp4213
g57
(g58
g59
NtRp4214
(dp4215
g62
(dp4216
g70
I4
ssg71
g4210
sg64
(lp4217
S'*'
asbasbasbasbasbasbasbag57
(g73
g59
NtRp4218
(dp4219
g62
(dp4220
sg71
g3850
sg64
(lp4221
g57
(g78
g59
NtRp4222
(dp4223
g62
(dp4224
g82
g83
ssg71
g4218
sg64
(lp4225
S'headers'
p4226
asbag57
(g78
g59
NtRp4227
(dp4228
g62
(dp4229
g89
g90
ssg71
g4218
sg64
(lp4230
S':'
asbag57
(g78
g59
NtRp4231
(dp4232
g62
(dp4233
sg71
g4218
sg64
(lp4234
g57
(g58
g59
NtRp4235
(dp4236
g62
(dp4237
g70
I5
ssg71
g4231
sg64
(lp4238
g57
(g66
g59
NtRp4239
(dp4240
g62
(dp4241
g70
I4
ssg71
Nsg64
(lp4242
g57
(g73
g59
NtRp4243
(dp4244
g62
(dp4245
sg71
g4239
sg64
(lp4246
g57
(g78
g59
NtRp4247
(dp4248
g62
(dp4249
g82
g83
ssg71
g4243
sg64
(lp4250
S'X-Powered-By'
p4251
asbag57
(g78
g59
NtRp4252
(dp4253
g62
(dp4254
g89
g90
ssg71
g4243
sg64
(lp4255
S':'
asbag57
(g78
g59
NtRp4256
(dp4257
g62
(dp4258
sg71
g4243
sg64
(lp4259
g57
(g58
g59
NtRp4260
(dp4261
g62
(dp4262
g70
I4
ssg71
g4256
sg64
(lp4263
S'web2py'
p4264
asbasbasbasbasbasbasbag57
(g73
g59
NtRp4265
(dp4266
g62
(dp4267
sg71
g3850
sg64
(lp4268
g57
(g78
g59
NtRp4269
(dp4270
g62
(dp4271
g82
g83
ssg71
g4265
sg64
(lp4272
S'menu'
p4273
asbag57
(g78
g59
NtRp4274
(dp4275
g62
(dp4276
g89
g90
ssg71
g4265
sg64
(lp4277
S':'
asbag57
(g78
g59
NtRp4278
(dp4279
g62
(dp4280
sg71
g4265
sg64
(lp4281
g57
(g58
g59
NtRp4282
(dp4283
g62
(dp4284
g70
I5
ssg71
g4278
sg64
(lp4285
g57
(g66
g59
NtRp4286
(dp4287
g62
(dp4288
g70
I4
ssg71
Nsg64
(lp4289
sbasbasbasbag57
(g73
g59
NtRp4290
(dp4291
g62
(dp4292
sg71
g3850
sg64
(lp4293
g57
(g78
g59
NtRp4294
(dp4295
g62
(dp4296
g82
g83
ssg71
g4290
sg64
(lp4297
S'meta'
p4298
asbag57
(g78
g59
NtRp4299
(dp4300
g62
(dp4301
g89
g90
ssg71
g4290
sg64
(lp4302
S':'
asbag57
(g78
g59
NtRp4303
(dp4304
g62
(dp4305
sg71
g4290
sg64
(lp4306
g57
(g58
g59
NtRp4307
(dp4308
g62
(dp4309
g70
I5
ssg71
g4303
sg64
(lp4310
g57
(g66
g59
NtRp4311
(dp4312
g62
(dp4313
g70
I4
ssg71
Nsg64
(lp4314
sbasbasbasbag57
(g73
g59
NtRp4315
(dp4316
g62
(dp4317
sg71
g3850
sg64
(lp4318
g57
(g78
g59
NtRp4319
(dp4320
g62
(dp4321
g82
g83
ssg71
g4315
sg64
(lp4322
S'models_to_run'
p4323
asbag57
(g78
g59
NtRp4324
(dp4325
g62
(dp4326
g89
g90
ssg71
g4315
sg64
(lp4327
S':'
asbag57
(g78
g59
NtRp4328
(dp4329
g62
(dp4330
sg71
g4315
sg64
(lp4331
g57
(g58
g59
NtRp4332
(dp4333
g62
(dp4334
g70
I5
ssg71
g4328
sg64
(lp4335
g57
(g66
g59
NtRp4336
(dp4337
g62
(dp4338
g70
I4
ssg71
Nsg64
(lp4339
g57
(g73
g59
NtRp4340
(dp4341
g62
(dp4342
sg71
g4336
sg64
(lp4343
g57
(g78
g59
NtRp4344
(dp4345
g62
(dp4346
sg71
g4340
sg64
(lp4347
g57
(g58
g59
NtRp4348
(dp4349
g62
(dp4350
g70
I4
ssg71
g4344
sg64
(lp4351
S'^\\w+\\.py$'
p4352
asbasbasbag57
(g73
g59
NtRp4353
(dp4354
g62
(dp4355
sg71
g4336
sg64
(lp4356
g57
(g78
g59
NtRp4357
(dp4358
g62
(dp4359
sg71
g4353
sg64
(lp4360
g57
(g58
g59
NtRp4361
(dp4362
g62
(dp4363
g70
I4
ssg71
g4357
sg64
(lp4364
S'^default/\\w+\\.py$'
p4365
asbasbasbag57
(g73
g59
NtRp4366
(dp4367
g62
(dp4368
sg71
g4336
sg64
(lp4369
g57
(g78
g59
NtRp4370
(dp4371
g62
(dp4372
sg71
g4366
sg64
(lp4373
g57
(g58
g59
NtRp4374
(dp4375
g62
(dp4376
g70
I4
ssg71
g4370
sg64
(lp4377
S'^default/user/\\w+\\.py$'
p4378
asbasbasbasbasbasbasbag57
(g73
g59
NtRp4379
(dp4380
g62
(dp4381
sg71
g3850
sg64
(lp4382
g57
(g78
g59
NtRp4383
(dp4384
g62
(dp4385
g82
g83
ssg71
g4379
sg64
(lp4386
S'postprocessing'
p4387
asbag57
(g78
g59
NtRp4388
(dp4389
g62
(dp4390
g89
g90
ssg71
g4379
sg64
(lp4391
S':'
asbag57
(g78
g59
NtRp4392
(dp4393
g62
(dp4394
sg71
g4379
sg64
(lp4395
g57
(g58
g59
NtRp4396
(dp4397
g62
(dp4398
g70
I5
ssg71
g4392
sg64
(lp4399
g57
(g66
g59
NtRp4400
(dp4401
g62
(dp4402
g70
I4
ssg71
Nsg64
(lp4403
sbasbasbasbag57
(g73
g59
NtRp4404
(dp4405
g62
(dp4406
sg71
g3850
sg64
(lp4407
g57
(g78
g59
NtRp4408
(dp4409
g62
(dp4410
g82
g83
ssg71
g4404
sg64
(lp4411
S'session_cookie_expires'
p4412
asbag57
(g78
g59
NtRp4413
(dp4414
g62
(dp4415
g89
g90
ssg71
g4404
sg64
(lp4416
S':'
asbag57
(g78
g59
NtRp4417
(dp4418
g62
(dp4419
sg71
g4404
sg64
(lp4420
g57
(g58
g59
NtRp4421
(dp4422
g62
(dp4423
g70
I5
ssg71
g4417
sg64
(lp4424
S'None'
p4425
asbasbasbag57
(g73
g59
NtRp4426
(dp4427
g62
(dp4428
sg71
g3850
sg64
(lp4429
g57
(g78
g59
NtRp4430
(dp4431
g62
(dp4432
g82
g83
ssg71
g4426
sg64
(lp4433
S'session_data_name'
p4434
asbag57
(g78
g59
NtRp4435
(dp4436
g62
(dp4437
g89
g90
ssg71
g4426
sg64
(lp4438
S':'
asbag57
(g78
g59
NtRp4439
(dp4440
g62
(dp4441
sg71
g4426
sg64
(lp4442
g57
(g58
g59
NtRp4443
(dp4444
g62
(dp4445
g70
I5
ssg71
g4439
sg64
(lp4446
S'session_data_ssad'
p4447
asbasbasbag57
(g73
g59
NtRp4448
(dp4449
g62
(dp4450
sg71
g3850
sg64
(lp4451
g57
(g78
g59
NtRp4452
(dp4453
g62
(dp4454
g82
g83
ssg71
g4448
sg64
(lp4455
S'session_file'
p4456
asbag57
(g78
g59
NtRp4457
(dp4458
g62
(dp4459
g89
g90
ssg71
g4448
sg64
(lp4460
S':'
asbag57
(g78
g59
NtRp4461
(dp4462
g62
(dp4463
sg71
g4448
sg64
(lp4464
g57
(g58
g59
NtRp4465
(dp4466
g62
(dp4467
g70
I5
ssg71
g4461
sg64
(lp4468
S"<open file '/home/urvashi/Desktop/WEB2PY/web2py/applications/SSAD/sessions/127.0.0.1-83e42192-e5b1-45f6-a2c4-ccc32a5e5e70', mode 'rb+' at 0x7f9f3c305c90>"
p4469
asbasbasbag57
(g73
g59
NtRp4470
(dp4471
g62
(dp4472
sg71
g3850
sg64
(lp4473
g57
(g78
g59
NtRp4474
(dp4475
g62
(dp4476
g82
g83
ssg71
g4470
sg64
(lp4477
S'session_filename'
p4478
asbag57
(g78
g59
NtRp4479
(dp4480
g62
(dp4481
g89
g90
ssg71
g4470
sg64
(lp4482
S':'
asbag57
(g78
g59
NtRp4483
(dp4484
g62
(dp4485
sg71
g4470
sg64
(lp4486
g57
(g58
g59
NtRp4487
(dp4488
g62
(dp4489
g70
I5
ssg71
g4483
sg64
(lp4490
S'/home/urvashi/Desktop/WEB2PY/web2py/applications/SSAD/sessions/127.0.0.1-83e42192-e5b1-45f6-a2c4-ccc32a5e5e70'
p4491
asbasbasbag57
(g73
g59
NtRp4492
(dp4493
g62
(dp4494
sg71
g3850
sg64
(lp4495
g57
(g78
g59
NtRp4496
(dp4497
g62
(dp4498
g82
g83
ssg71
g4492
sg64
(lp4499
S'session_id'
p4500
asbag57
(g78
g59
NtRp4501
(dp4502
g62
(dp4503
g89
g90
ssg71
g4492
sg64
(lp4504
S':'
asbag57
(g78
g59
NtRp4505
(dp4506
g62
(dp4507
sg71
g4492
sg64
(lp4508
g57
(g58
g59
NtRp4509
(dp4510
g62
(dp4511
g70
I5
ssg71
g4505
sg64
(lp4512
g674
asbasbasbag57
(g73
g59
NtRp4513
(dp4514
g62
(dp4515
sg71
g3850
sg64
(lp4516
g57
(g78
g59
NtRp4517
(dp4518
g62
(dp4519
g82
g83
ssg71
g4513
sg64
(lp4520
S'session_id_name'
p4521
asbag57
(g78
g59
NtRp4522
(dp4523
g62
(dp4524
g89
g90
ssg71
g4513
sg64
(lp4525
S':'
asbag57
(g78
g59
NtRp4526
(dp4527
g62
(dp4528
sg71
g4513
sg64
(lp4529
g57
(g58
g59
NtRp4530
(dp4531
g62
(dp4532
g70
I5
ssg71
g4526
sg64
(lp4533
g3907
asbasbasbag57
(g73
g59
NtRp4534
(dp4535
g62
(dp4536
sg71
g3850
sg64
(lp4537
g57
(g78
g59
NtRp4538
(dp4539
g62
(dp4540
g82
g83
ssg71
g4534
sg64
(lp4541
S'session_locked'
p4542
asbag57
(g78
g59
NtRp4543
(dp4544
g62
(dp4545
g89
g90
ssg71
g4534
sg64
(lp4546
S':'
asbag57
(g78
g59
NtRp4547
(dp4548
g62
(dp4549
sg71
g4534
sg64
(lp4550
g57
(g58
g59
NtRp4551
(dp4552
g62
(dp4553
g70
I5
ssg71
g4547
sg64
(lp4554
g1970
asbasbasbag57
(g73
g59
NtRp4555
(dp4556
g62
(dp4557
sg71
g3850
sg64
(lp4558
g57
(g78
g59
NtRp4559
(dp4560
g62
(dp4561
g82
g83
ssg71
g4555
sg64
(lp4562
S'session_new'
p4563
asbag57
(g78
g59
NtRp4564
(dp4565
g62
(dp4566
g89
g90
ssg71
g4555
sg64
(lp4567
S':'
asbag57
(g78
g59
NtRp4568
(dp4569
g62
(dp4570
sg71
g4555
sg64
(lp4571
g57
(g58
g59
NtRp4572
(dp4573
g62
(dp4574
g70
I5
ssg71
g4568
sg64
(lp4575
g100
asbasbasbag57
(g73
g59
NtRp4576
(dp4577
g62
(dp4578
sg71
g3850
sg64
(lp4579
g57
(g78
g59
NtRp4580
(dp4581
g62
(dp4582
g82
g83
ssg71
g4576
sg64
(lp4583
S'session_storage_type'
p4584
asbag57
(g78
g59
NtRp4585
(dp4586
g62
(dp4587
g89
g90
ssg71
g4576
sg64
(lp4588
S':'
asbag57
(g78
g59
NtRp4589
(dp4590
g62
(dp4591
sg71
g4576
sg64
(lp4592
g57
(g58
g59
NtRp4593
(dp4594
g62
(dp4595
g70
I5
ssg71
g4589
sg64
(lp4596
g3401
asbasbasbag57
(g73
g59
NtRp4597
(dp4598
g62
(dp4599
sg71
g3850
sg64
(lp4600
g57
(g78
g59
NtRp4601
(dp4602
g62
(dp4603
g82
g83
ssg71
g4597
sg64
(lp4604
S'status'
p4605
asbag57
(g78
g59
NtRp4606
(dp4607
g62
(dp4608
g89
g90
ssg71
g4597
sg64
(lp4609
S':'
asbag57
(g78
g59
NtRp4610
(dp4611
g62
(dp4612
sg71
g4597
sg64
(lp4613
g57
(g58
g59
NtRp4614
(dp4615
g62
(dp4616
g70
I5
ssg71
g4610
sg64
(lp4617
S'200'
p4618
asbasbasbag57
(g73
g59
NtRp4619
(dp4620
g62
(dp4621
sg71
g3850
sg64
(lp4622
g57
(g78
g59
NtRp4623
(dp4624
g62
(dp4625
g82
g83
ssg71
g4619
sg64
(lp4626
S'view'
p4627
asbag57
(g78
g59
NtRp4628
(dp4629
g62
(dp4630
g89
g90
ssg71
g4619
sg64
(lp4631
S':'
asbag57
(g78
g59
NtRp4632
(dp4633
g62
(dp4634
sg71
g4619
sg64
(lp4635
g57
(g58
g59
NtRp4636
(dp4637
g62
(dp4638
g70
I5
ssg71
g4632
sg64
(lp4639
S'default/user.html'
p4640
asbasbasbasbasbsS'locals'
p4641
(dp4642
S'Service'
p4643
S"<class 'gluon.tools.Service'>"
p4644
sS'OBJECT'
p4645
S"<class 'gluon.html.OBJECT'>"
p4646
sS'SQLDB'
p4647
S"<class 'gluon.dal.DAL'>"
p4648
sg3454
S"<Storage {'last_query': 'db.auth_user.id>0', '_f...login]': '92af73d3-bb23-4d9b-a423-1224d655f1ad'}>"
p4649
sS'LINK'
p4650
S"<class 'gluon.html.LINK'>"
p4651
sS'BR'
p4652
S"<class 'gluon.html.BR'>"
p4653
sS'local_import'
p4654
S'<function <lambda>>'
p4655
sS'OPTGROUP'
p4656
S"<class 'gluon.html.OPTGROUP'>"
p4657
sS'__package__'
p4658
S'None'
p4659
sS'PRE'
p4660
S"<class 'gluon.html.PRE'>"
p4661
sS'IS_INT_IN_RANGE'
p4662
S"<class 'gluon.validators.IS_INT_IN_RANGE'>"
p4663
sS'IS_LOWER'
p4664
S"<class 'gluon.validators.IS_LOWER'>"
p4665
sS'IS_STRONG'
p4666
S"<class 'gluon.validators.IS_STRONG'>"
p4667
sS'cache'
p4668
S'<gluon.cache.Cache object>'
p4669
sS'IS_IN_DB'
p4670
S"<class 'gluon.validators.IS_IN_DB'>"
p4671
sS'TAG'
p4672
S'<gluon.html.__TAG__ object>'
p4673
sS'SQLField'
p4674
S"<class 'gluon.dal.Field'>"
p4675
sS'mail'
p4676
S'<gluon.tools.Mail object>'
p4677
sS'BODY'
p4678
S"<class 'gluon.html.BODY'>"
p4679
sS'IS_DATE_IN_RANGE'
p4680
S"<class 'gluon.validators.IS_DATE_IN_RANGE'>"
p4681
sS'TH'
p4682
S"<class 'gluon.html.TH'>"
p4683
sS'URL'
p4684
S'<function URL>'
p4685
sS'__file__'
p4686
S"'/home/urvashi/Desktop/WEB2PY/web2py/applications/SSAD/models/db.py'"
p4687
sS'db'
p4688
S'<DAL uri="sqlite://storage.sqlite">'
p4689
sS'auth'
p4690
S'<gluon.tools.Auth object>'
p4691
sS'P'
S"<class 'gluon.html.P'>"
p4692
sS'TFOOT'
p4693
S"<class 'gluon.html.TFOOT'>"
p4694
sS'XHTML'
p4695
S"<class 'gluon.html.XHTML'>"
p4696
sS'ON'
p4697
g1970
sS'OL'
p4698
S"<class 'gluon.html.OL'>"
p4699
sS'TEXTAREA'
p4700
S"<class 'gluon.html.TEXTAREA'>"
p4701
sS'MENU'
p4702
S"<class 'gluon.html.MENU'>"
p4703
sS'LOAD'
p4704
S'<function LOAD>'
p4705
sS'CODE'
p4706
S"<class 'gluon.html.CODE'>"
p4707
sS'HTTP'
p4708
S"<class 'gluon.http.HTTP'>"
p4709
sS'HR'
p4710
S"<class 'gluon.html.HR'>"
p4711
sS'IS_DATETIME'
p4712
S"<class 'gluon.validators.IS_DATETIME'>"
p4713
sS'HEAD'
p4714
S"<class 'gluon.html.HEAD'>"
p4715
sS'LABEL'
p4716
S"<class 'gluon.html.LABEL'>"
p4717
sS'CLEANUP'
p4718
S"<class 'gluon.validators.CLEANUP'>"
p4719
sS'plugins'
p4720
S'<gluon.tools.PluginManager object>'
p4721
sS'SELECT'
p4722
S"<class 'gluon.html.SELECT'>"
p4723
sS'use_janrain'
p4724
S'<function use_janrain>'
p4725
sS'CENTER'
p4726
S"<class 'gluon.html.CENTER'>"
p4727
sS'prettydate'
p4728
S'<function prettydate>'
p4729
sS'Crud'
p4730
S"<class 'gluon.tools.Crud'>"
p4731
sS'Auth'
p4732
S"<class 'gluon.tools.Auth'>"
p4733
sS'__builtins__'
p4734
S"{'ArithmeticError': <type 'exceptions.ArithmeticError'>, 'AssertionError': <type 'exceptions.AssertionError'>, 'AttributeError': <type 'exceptions.AttributeError'>, 'BaseException': <type 'exceptions.BaseException'>, 'BufferError': <type 'exceptions.BufferError'>, 'BytesWarning': <type 'exceptions.BytesWarning'>, 'DeprecationWarning': <type 'exceptions.DeprecationWarning'>, 'EOFError': <type 'exceptions.EOFError'>, 'Ellipsis': Ellipsis, 'EnvironmentError': <type 'exceptions.EnvironmentError'>, ...}"
p4735
sS'HTML'
p4736
S"<class 'gluon.html.HTML'>"
p4737
sS'SQLFORM'
p4738
S"<class 'gluon.sqlhtml.SQLFORM'>"
p4739
sS'EM'
p4740
S"<class 'gluon.html.EM'>"
p4741
sS'redirect'
p4742
S'<function redirect>'
p4743
sS'FIELDSET'
p4744
S"<class 'gluon.html.FIELDSET'>"
p4745
sS'IS_EQUAL_TO'
p4746
S"<class 'gluon.validators.IS_EQUAL_TO'>"
p4747
sS'embed64'
p4748
S'<function embed64>'
p4749
sS'IS_LIST_OF'
p4750
S"<class 'gluon.validators.IS_LIST_OF'>"
p4751
sS'__name__'
p4752
S"'__restricted__'"
p4753
sS'EMBED'
p4754
S"<class 'gluon.html.EMBED'>"
p4755
sS'FORM'
p4756
S"<class 'gluon.html.FORM'>"
p4757
sS'H2'
p4758
S"<class 'gluon.html.H2'>"
p4759
sS'H3'
p4760
S"<class 'gluon.html.H3'>"
p4761
sS'BUTTON'
p4762
S"<class 'gluon.html.BUTTON'>"
p4763
sS'H1'
p4764
S"<class 'gluon.html.H1'>"
p4765
sS'H6'
p4766
S"<class 'gluon.html.H6'>"
p4767
sS'H4'
p4768
S"<class 'gluon.html.H4'>"
p4769
sS'H5'
p4770
S"<class 'gluon.html.H5'>"
p4771
sS'UL'
p4772
S"<class 'gluon.html.UL'>"
p4773
sS'IS_UPPER'
p4774
S"<class 'gluon.validators.IS_UPPER'>"
p4775
sS'xmlescape'
p4776
S'<function xmlescape>'
p4777
sS'IS_TIME'
p4778
S"<class 'gluon.validators.IS_TIME'>"
p4779
sS'OPTION'
p4780
S"<class 'gluon.html.OPTION'>"
p4781
sS'TITLE'
p4782
S"<class 'gluon.html.TITLE'>"
p4783
sS'CRYPT'
p4784
S"<class 'gluon.validators.CRYPT'>"
p4785
sS'IS_EMPTY_OR'
p4786
S"<class 'gluon.validators.IS_EMPTY_OR'>"
p4787
sS'MARKMIN'
p4788
S"<class 'gluon.html.MARKMIN'>"
p4789
sS'INPUT'
p4790
S"<class 'gluon.html.INPUT'>"
p4791
sS'STRONG'
p4792
S"<class 'gluon.html.STRONG'>"
p4793
sS'COL'
p4794
S"<class 'gluon.html.COL'>"
p4795
sS'service'
p4796
S'<gluon.tools.Service object>'
p4797
sS'SCRIPT'
p4798
S"<class 'gluon.html.SCRIPT'>"
p4799
sS'TABLE'
p4800
S"<class 'gluon.html.TABLE'>"
p4801
sS'IS_IPV4'
p4802
S"<class 'gluon.validators.IS_IPV4'>"
p4803
sS'IS_LENGTH'
p4804
S"<class 'gluon.validators.IS_LENGTH'>"
p4805
sS'XML'
p4806
S"<class 'gluon.html.XML'>"
p4807
sS'B'
S"<class 'gluon.html.B'>"
p4808
sS'IMG'
p4809
S"<class 'gluon.html.IMG'>"
p4810
sS'SQLTABLE'
p4811
S"<class 'gluon.sqlhtml.SQLTABLE'>"
p4812
sS'IS_MATCH'
p4813
S"<class 'gluon.validators.IS_MATCH'>"
p4814
sS'IS_ALPHANUMERIC'
p4815
S"<class 'gluon.validators.IS_ALPHANUMERIC'>"
p4816
sS'SPAN'
p4817
S"<class 'gluon.html.SPAN'>"
p4818
sS'IS_SLUG'
p4819
S"<class 'gluon.validators.IS_SLUG'>"
p4820
sS'BEAUTIFY'
p4821
S"<class 'gluon.html.BEAUTIFY'>"
p4822
sS'META'
p4823
S"<class 'gluon.html.META'>"
p4824
sS'IS_DATE'
p4825
S"<class 'gluon.validators.IS_DATE'>"
p4826
sS'IS_EMAIL'
p4827
S"<class 'gluon.validators.IS_EMAIL'>"
p4828
sS'IS_NOT_EMPTY'
p4829
S"<class 'gluon.validators.IS_NOT_EMPTY'>"
p4830
sS'IS_FLOAT_IN_RANGE'
p4831
S"<class 'gluon.validators.IS_FLOAT_IN_RANGE'>"
p4832
sS'TBODY'
p4833
S"<class 'gluon.html.TBODY'>"
p4834
sS'CAT'
p4835
S"<class 'gluon.html.CAT'>"
p4836
sS'Field'
p4837
S"<class 'gluon.dal.Field'>"
p4838
sS'DIV'
p4839
S"<class 'gluon.html.DIV'>"
p4840
sS'LEGEND'
p4841
S"<class 'gluon.html.LEGEND'>"
p4842
sS'COLGROUP'
p4843
S"<class 'gluon.html.COLGROUP'>"
p4844
sS'DAL'
p4845
S"<class 'gluon.dal.DAL'>"
p4846
sS'TT'
p4847
S"<class 'gluon.html.TT'>"
p4848
sS'TR'
p4849
S"<class 'gluon.html.TR'>"
p4850
sS'LI'
p4851
S"<class 'gluon.html.LI'>"
p4852
sS'IFRAME'
p4853
S"<class 'gluon.html.IFRAME'>"
p4854
sS'TD'
p4855
S"<class 'gluon.html.TD'>"
p4856
sS'PluginManager'
p4857
S"<class 'gluon.tools.PluginManager'>"
p4858
sS'IS_URL'
p4859
S"<class 'gluon.validators.IS_URL'>"
p4860
sS'A'
S"<class 'gluon.html.A'>"
p4861
sS'STYLE'
p4862
S"<class 'gluon.html.STYLE'>"
p4863
sS'IS_DATETIME_IN_RANGE'
p4864
S"<class 'gluon.validators.IS_DATETIME_IN_RANGE'>"
p4865
sS'IS_IMAGE'
p4866
S"<class 'gluon.validators.IS_IMAGE'>"
p4867
sS'I'
S"<class 'gluon.html.I'>"
p4868
sS'crud'
p4869
S'<gluon.tools.Crud object>'
p4870
sS'IS_NOT_IN_DB'
p4871
S"<class 'gluon.validators.IS_NOT_IN_DB'>"
p4872
sg3845
S"<Storage {'body': <cStringIO.StringO object at 0...at 0x7f9f4c289d70>, 'view': 'default/user.html'}>"
p4873
sS'THEAD'
p4874
S"<class 'gluon.html.THEAD'>"
p4875
sS'IS_NULL_OR'
p4876
S"<class 'gluon.validators.IS_EMPTY_OR'>"
p4877
sg56
S"<Storage {'function': 'user', 'body': <cStringIO.../applications/SSAD/', 'post_vars': <Storage {}>}>"
p4878
sS'IS_EXPR'
p4879
S"<class 'gluon.validators.IS_EXPR'>"
p4880
sS'IS_IN_SET'
p4881
S"<class 'gluon.validators.IS_IN_SET'>"
p4882
sS'IS_UPLOAD_FILENAME'
p4883
S"<class 'gluon.validators.IS_UPLOAD_FILENAME'>"
p4884
sS'IS_DECIMAL_IN_RANGE'
p4885
S"<class 'gluon.validators.IS_DECIMAL_IN_RANGE'>"
p4886
sS'T'
S'<gluon.languages.translator object>'
p4887
sssS'traceback'
p4888
S'Traceback (most recent call last):\n  File "/home/urvashi/Desktop/WEB2PY/web2py/gluon/restricted.py", line 212, in restricted\n    exec ccode in environment\n  File "/home/urvashi/Desktop/WEB2PY/web2py/applications/SSAD/models/db.py", line 91, in <module>\n    db.Field(\'category\',db.categories,requires=IS_IN_DB(db,\'categories.id\',\'categories.name\',label=\'Category\')),\nTypeError: __init__() got multiple values for keyword argument \'label\'\n'
p4889
s.