(dp1
S'output'
p2
S"<type 'exceptions.TypeError'> int() argument must be a string or a number, not 'Rows'"
p3
sS'layer'
p4
S'/home/urvashi/Desktop/WEB2PY/web2py/applications/SSAD/controllers/default.py'
p5
sS'code'
p6
S'# -*- coding: utf-8 -*-\n# this file is released under public domain and you can use without limitations\n\n#########################################################################\n## This is a samples controller\n## - index is the default action of any application\n## - user is required for authentication and authorization\n## - download is for downloading files uploaded in the db (does streaming)\n## - call exposes all registered services (none by default)\n#########################################################################\n\ndef user():\n    """\n    exposes:\n    http://..../[app]/default/user/login\n    http://..../[app]/default/user/logout\n    http://..../[app]/default/user/register\n    http://..../[app]/default/user/profile\n    http://..../[app]/default/user/retrieve_password\n    http://..../[app]/default/user/change_password\n    use @auth.requires_login()\n        @auth.requires_membership(\'group name\')\n        @auth.requires_permission(\'read\',\'table name\',record_id)\n    to decorate functions that need access control\n    """\n    """if auth.user:\n        if auth.user.id==1:\n            redirect(URL(\'admin\'))\n        else:\n            redirect(URL(\'index\'))\n    """\n    return dict(form=auth())\n\n\n@auth.requires_login()\ndef index():\n    """\n    example action using the internationalization operator T and flash\n    rendered by views/default/index.html or views/generic.html\n\n    if you need a simple wiki simple replace the two lines below with:\n    return auth.wiki()\n    """\n    \'auth\' in globals()\n    if auth.user:\n        if (auth.user.id)==1:\n            message = "WELCOME ADMIN IIITH !!"\n            redirect(URL(\'admin\'))\n        else:\n            message = "WELCOME TO MY REDDIT !!"\n            cat=db(db.categories.id>0).select(\'categories.name\')\n  \n    else:\n        redirect(URL(\'user\'))\n    return dict(message=message,cat=cat)\n@auth.requires_login()\ndef display():\n   if auth.user:\n    cat=str(request.post_vars.cate)\n    lists=db(db.links.category==cat).select()\n    ids=db(db.auth_user.id>0).select()\n   else:\n    redirect(URL(\'user\'))\n   return dict(lists=lists,cat=cat,ids=ids)\n\ndef like():\n    if auth.user:\n        a=int(auth.user.id)\n        i=request.post_vars.link\n        users=db(db.disliked.link == i).select()\n        flag=0\n        for k in range(len(users)):\n            if a==int(users[k][\'disliked.usr\']):\n                db(db.disliked.usr==a).delete()\n                db.liked.insert(usr=a,link=i)\n                lik=db(db.links.id==i).select(\'links.dislikes\')\n                l=int(lik[0][\'links.dislikes\'])\n                l=l-1\n                db(db.links.id==i).update(dislikes=l)\n                p=int(db(db.links.id==i).select(\'link.points\'))\n                p=p+8\n                db(db.links.id==i).update(points=p)\n                l=int(lik[0][\'links.likes\'])\n                l=l+1\n                db(db.links.id==i).update(likes=l)\n                flag=1\n                message= " U had disliked this earlier,now liked !!"\n        if flag==0:\n            u=db(db.liked.link==i).select()\n            for m in range(len(u)):\n                if a==int(u[m][\'liked.usr\']):\n                    message="post already liked"                    \n                    flag=1\n        if flag==0:\n             lik=db(db.links.id==i).select(\'links.likes\')\n             l=int(lik[0][\'links.likes\'])\n             l=l+1\n             db(db.links.id==i).update(likes=l)\n             p=int(db(db.links.id==i).select(\'links.points\'))\n             p=p+5\n             db(db.links.id==i).update(points=p)\n             db.liked.insert(usr=a,link=i)\n             message = "post liked"\n    else:\n        redirect(URL(\'user\'))\n    return dict(message=message,users=users)\n\ndef dislike():\n    if auth.user:\n        a=auth.user.id\n        i=request.post_vars.link\n        users=db(db.liked.link==i).select()\n        flag=0\n        for k in range(len(users)):\n            if a==int(users[k][\'liked.usr\']):\n                db(db.liked.usr==a).delete()\n                db.disliked.insert(usr=a,link=i)\n                lik=db(db.links.id==i).select(\'links.likes\')\n                l=int(lik[0][\'links.likes\'])\n                l=l-1\n                db(db.links.id==i).update(likes=l)\n                lik=db(db.links.id==i).select(\'links.dislikes\')\n                l=int(lik[0][\'links.dislikes\'])\n                l=l+1\n                db(db.links.id==i).update(dislikes=l)\n                p=int(db(db.links.id==i).select(\'link.points\'))\n                p=p-8\n                db(db.links.id==i).update(points=p)\n                flag=1\n                message= " U had liked this earlier,now disliked !!"\n        if flag==0:\n            u=db(db.disliked.link==i).select()\n            for m in range(len(u)):\n                if a==int(u[m][\'disliked.usr\']):\n                    message="post already disliked"\n                    flag=1\n            if flag==0:\n             lik=db(db.links.id==i).select(\'links.dislikes\')\n             l=int(lik[0][\'links.dislikes\'])\n             l=l+1\n             db(db.links.id==i).update(dislikes=l)\n             db.disliked.insert(usr=a,link=i)\n             message= "post disliked "\n    else:\n        redirect(URL(\'user\'))\n    return dict(message=message)\n@auth.requires_login()\ndef comment():\n    if auth.user:\n        ids=auth.user.id\n        i=request.post_vars.link\n    else:\n        redirect(URL(\'user\'))\n    return dict(ids=ids,i=i)\n@auth.requires_login()    \ndef add_comment():\n    com=request.post_vars.comment\n    i=request.post_vars.ids\n    link=request.post_vars.link\n    db.comments.insert(usr=i,link=link,commented=com)\n    return locals()\n\n@auth.requires_login()\ndef view_posts():\n    if auth.user:\n        lists=db(db.links.username==auth.user).select()\n    else:\n        redirect(URL(\'user\'))\n    return dict(lists=lists)\ndef edit_post():\n    if auth.user:\n        link=request.post_vars.link\n        lists=db(db.links.id==link).select()\n        cat_list=db(db.categories.id>0).select()\n        cate=[]\n        if len(cat_list)>0:\n                  for i in range(len(cat_list)):\n                          cate.append(cat_list[i][\'categories.name\'])\n    else:\n        redirect(URL(\'user\'))\n    return dict(lists=lists,cate=cate)\ndef edit_post_2():\n    if auth.user:\n       i=int(request.post_vars.link)\n       url=str(request.post_vars.url)\n       head=str(request.post_vars.head)\n       cat=str(request.post_vars.cat)\n       db(db.links.id==i).update(url=url,heading=head,category=cat)\n    else:\n        redirect(URL(\'user\'))\n    return locals()\n\ndef del_post():\n    if auth.user:\n        link=int(request.post_vars.link)\n        db(db.links.id==link).delete()        \n    else:\n        redirect(URL(\'user\'))\n    return locals()\n@auth.requires_login()\ndef admin():\n    if auth.user:\n        if(auth.user.id)!=1:\n            redirect(URL(\'index\'))\n        else:\n            message="ADMIN HOME PAGE "\n        return dict(message=message)\n    else:\n        redirect(URL(\'user\'))\n    return locals()\n@auth.requires_login()\ndef add_category():\n    \'auth\' in globals()\n    if auth.user:\n        flag=1\n    else:\n        redirect(URL(\'index\'))\n    return locals()\ndef add_category_2():\n    cat_name=request.post_vars.cat_name\n    if cat_name==\'\':\n            redirect(URL(\'add_category\'))\n    list=db(db.categories.id>0).select()\n    if len(list) > 0:\n            records=[]\n            for i in range(len(list)):\n                records.append(list[i][\'categories.name\'])\n            print "records"\n            print records\n            flag=0\n            for i in range(len(records)):\n                if str(records[i])==str(cat_name):\n                    message="Category exists !!"\n                    flag=1\n            if flag==0:\n                db.categories.insert(name=cat_name)\n                message="New category added successfully !!"\n         \n    else:\n        db.categories.insert(name=cat_name)\n        message="New category added successfully !!"\n    return dict(message=message)\n@auth.requires_login()\ndef delete_user():\n        \'auth\' in globals()\n        if auth.user:\n            if auth.user.id==1:\n                form=SQLFORM.factory(\n                    db.Field(\'usrname\',db.auth_user,requires=IS_IN_DB(db,\'auth_user.id\',\'auth_user.email\'),required=True))\n                if form.accepts(request.vars,session):\n                    redirect(URL(r=request,f=\'delete_user_2?usrname=%d\'% int(form.vars.usrname)))\n                elif form.errors:\n                    response.flash=\'ERRORS!!!\'\n            else:\n                response.flash=\'access denied\'\n                redirect(URL(\'index\'))\n        else:\n            redirect(URL(\'user\'))\n        return dict(form=form)\n@auth.requires_login()        \ndef delete_user_2():\n        if auth.user:\n            if auth.user.id==1:\n                usrname=int(request.vars.usrname)\n                db(db.auth_user.id==usrname).delete()\n            else:\n                redirect(URL(\'index\'))\n        else:\n            redirect(URL(\'user\'))\n        return locals()\n        \ndef delete_post():\n    return locals()\n\n@auth.requires_login()\ndef post_link():\n   if auth.user:\n       if auth.user.id == 1:\n         redirect(URL(\'admin\')) \n       else:\n          i=db(db.auth_user.id==auth.user.id).select()\n          d=i[0][\'auth_user.id\']\n          fname=i[0][\'auth_user.first_name\']\n          lname=i[0][\'auth_user.last_name\']\n          cat_list=db(db.categories.id>0).select()\n          cate=[]\n          if len(cat_list)>0:\n                  for i in range(len(cat_list)):\n                          cate.append(cat_list[i][\'categories.name\'])\n   else:\n       redirect(URL(\'user\'))\n   return locals()\n\ndef post_link_2():\n   fname=str(request.post_vars.fname)\n   lname=str(request.post_vars.lname)\n   name=fname+\' \'+lname\n   i=int(request.post_vars.i)\n   url=str(request.post_vars.url)\n   head=str(request.post_vars.head)\n   cat=str(request.post_vars.cat)\n   db.links.insert(url=url,username=i,heading=head,category=cat,likes=0,dislikes=0)\n   message= "Successfully posted !!"\n   return dict(message=message,name=name)\n   \ndef download():\n    """\n    allows downloading of uploaded files\n    http://..../[app]/default/download/[filename]\n    """\n    return response.download(request, db)            \ndef call():\n    """\n    exposes services. for example:\n    http://..../[app]/default/call/jsonrpc\n    decorate with @services.jsonrpc the functions to expose\n    supports xml, json, xmlrpc, jsonrpc, amfrpc, rss, csv\n    """\n    return service()\n\n\n@auth.requires_signature()\ndef data():\n    """\n    http://..../[app]/default/data/tables\n    http://..../[app]/default/data/create/[table]\n    http://..../[app]/default/data/read/[table]/[id]\n    http://..../[app]/default/data/update/[table]/[id]\n    http://..../[app]/default/data/delete/[table]/[id]\n    http://..../[app]/default/data/select/[table]\n    http://..../[app]/default/data/search/[table]\n    but URLs must be signed, i.e. linked with\n      A(\'table\',_href=URL(\'data/tables\',user_signature=True))\n    or with the signed load operator\n      LOAD(\'default\',\'data.load\',args=\'tables\',ajax=True,user_signature=True)\n    """\n    return dict(form=crud())\n\nresponse._vars=response._caller(like)\n'
p7
sS'snapshot'
p8
(dp9
S'exception'
p10
(dp11
S'__hash__'
p12
S"<method-wrapper '__hash__' of exceptions.TypeError object>"
p13
sS'__setattr__'
p14
S"<method-wrapper '__setattr__' of exceptions.TypeError object>"
p15
sS'__reduce_ex__'
p16
S'<built-in method __reduce_ex__ of exceptions.TypeError object>'
p17
sS'__getslice__'
p18
S"<method-wrapper '__getslice__' of exceptions.TypeError object>"
p19
sS'__getitem__'
p20
S"<method-wrapper '__getitem__' of exceptions.TypeError object>"
p21
sS'__setstate__'
p22
S'<built-in method __setstate__ of exceptions.TypeError object>'
p23
sS'args'
p24
S'("int() argument must be a string or a number, not \'Rows\'",)'
p25
sS'__reduce__'
p26
S'<built-in method __reduce__ of exceptions.TypeError object>'
p27
sS'__str__'
p28
S"<method-wrapper '__str__' of exceptions.TypeError object>"
p29
sS'__format__'
p30
S'<built-in method __format__ of exceptions.TypeError object>'
p31
sS'__getattribute__'
p32
S"<method-wrapper '__getattribute__' of exceptions.TypeError object>"
p33
sS'__class__'
p34
S"<type 'exceptions.TypeError'>"
p35
sS'__unicode__'
p36
S'<built-in method __unicode__ of exceptions.TypeError object>'
p37
sS'__delattr__'
p38
S"<method-wrapper '__delattr__' of exceptions.TypeError object>"
p39
sS'__subclasshook__'
p40
S'<built-in method __subclasshook__ of type object>'
p41
sS'__repr__'
p42
S"<method-wrapper '__repr__' of exceptions.TypeError object>"
p43
sS'__dict__'
p44
S'{}'
p45
sS'__sizeof__'
p46
S'<built-in method __sizeof__ of exceptions.TypeError object>'
p47
sS'__doc__'
p48
S"'Inappropriate argument type.'"
p49
sS'__init__'
p50
S"<method-wrapper '__init__' of exceptions.TypeError object>"
p51
sS'__new__'
p52
S'<built-in method __new__ of type object>'
p53
ssS'evalue'
p54
S"int() argument must be a string or a number, not 'Rows'"
p55
sS'request'
p56
ccopy_reg
_reconstructor
p57
(cgluon.html
BEAUTIFY
p58
c__builtin__
object
p59
NtRp60
(dp61
S'attributes'
p62
(dp63
sS'components'
p64
(lp65
g57
(cgluon.html
TABLE
p66
g59
NtRp67
(dp68
g62
(dp69
S'level'
p70
I5
ssS'parent'
p71
Nsg64
(lp72
g57
(cgluon.html
TR
p73
g59
NtRp74
(dp75
g62
(dp76
sg71
g67
sg64
(lp77
g57
(cgluon.html
TD
p78
g59
NtRp79
(dp80
g62
(dp81
S'_style'
p82
S'font-weight:bold;vertical-align:top'
p83
ssg71
g74
sg64
(lp84
S'ajax'
p85
asbag57
(g78
g59
NtRp86
(dp87
g62
(dp88
S'_valign'
p89
S'top'
p90
ssg71
g74
sg64
(lp91
S':'
asbag57
(g78
g59
NtRp92
(dp93
g62
(dp94
sg71
g74
sg64
(lp95
g57
(g58
g59
NtRp96
(dp97
g62
(dp98
g70
I5
ssg71
g92
sg64
(lp99
S'False'
p100
asbasbasbag57
(g73
g59
NtRp101
(dp102
g62
(dp103
sg71
g67
sg64
(lp104
g57
(g78
g59
NtRp105
(dp106
g62
(dp107
g82
g83
ssg71
g101
sg64
(lp108
S'application'
p109
asbag57
(g78
g59
NtRp110
(dp111
g62
(dp112
g89
g90
ssg71
g101
sg64
(lp113
S':'
asbag57
(g78
g59
NtRp114
(dp115
g62
(dp116
sg71
g101
sg64
(lp117
g57
(g58
g59
NtRp118
(dp119
g62
(dp120
g70
I5
ssg71
g114
sg64
(lp121
S'SSAD'
p122
asbasbasbag57
(g73
g59
NtRp123
(dp124
g62
(dp125
sg71
g67
sg64
(lp126
g57
(g78
g59
NtRp127
(dp128
g62
(dp129
g82
g83
ssg71
g123
sg64
(lp130
g24
asbag57
(g78
g59
NtRp131
(dp132
g62
(dp133
g89
g90
ssg71
g123
sg64
(lp134
S':'
asbag57
(g78
g59
NtRp135
(dp136
g62
(dp137
sg71
g123
sg64
(lp138
g57
(g58
g59
NtRp139
(dp140
g62
(dp141
g70
I5
ssg71
g135
sg64
(lp142
g57
(g66
g59
NtRp143
(dp144
g62
(dp145
g70
I4
ssg71
Nsg64
(lp146
sbasbasbasbag57
(g73
g59
NtRp147
(dp148
g62
(dp149
sg71
g67
sg64
(lp150
g57
(g78
g59
NtRp151
(dp152
g62
(dp153
g82
g83
ssg71
g147
sg64
(lp154
S'body'
p155
asbag57
(g78
g59
NtRp156
(dp157
g62
(dp158
g89
g90
ssg71
g147
sg64
(lp159
S':'
asbag57
(g78
g59
NtRp160
(dp161
g62
(dp162
sg71
g147
sg64
(lp163
g57
(g58
g59
NtRp164
(dp165
g62
(dp166
g70
I5
ssg71
g160
sg64
(lp167
S"<open file '<fdopen>', mode 'w+b' at 0x7fd96c0b2030>"
p168
asbasbasbag57
(g73
g59
NtRp169
(dp170
g62
(dp171
sg71
g67
sg64
(lp172
g57
(g78
g59
NtRp173
(dp174
g62
(dp175
g82
g83
ssg71
g169
sg64
(lp176
S'cid'
p177
asbag57
(g78
g59
NtRp178
(dp179
g62
(dp180
g89
g90
ssg71
g169
sg64
(lp181
S':'
asbag57
(g78
g59
NtRp182
(dp183
g62
(dp184
sg71
g169
sg64
(lp185
g57
(g58
g59
NtRp186
(dp187
g62
(dp188
g70
I5
ssg71
g182
sg64
(lp189
S'None'
p190
asbasbasbag57
(g73
g59
NtRp191
(dp192
g62
(dp193
sg71
g67
sg64
(lp194
g57
(g78
g59
NtRp195
(dp196
g62
(dp197
g82
g83
ssg71
g191
sg64
(lp198
S'client'
p199
asbag57
(g78
g59
NtRp200
(dp201
g62
(dp202
g89
g90
ssg71
g191
sg64
(lp203
S':'
asbag57
(g78
g59
NtRp204
(dp205
g62
(dp206
sg71
g191
sg64
(lp207
g57
(g58
g59
NtRp208
(dp209
g62
(dp210
g70
I5
ssg71
g204
sg64
(lp211
S'127.0.0.1'
p212
asbasbasbag57
(g73
g59
NtRp213
(dp214
g62
(dp215
sg71
g67
sg64
(lp216
g57
(g78
g59
NtRp217
(dp218
g62
(dp219
g82
g83
ssg71
g213
sg64
(lp220
S'controller'
p221
asbag57
(g78
g59
NtRp222
(dp223
g62
(dp224
g89
g90
ssg71
g213
sg64
(lp225
S':'
asbag57
(g78
g59
NtRp226
(dp227
g62
(dp228
sg71
g213
sg64
(lp229
g57
(g58
g59
NtRp230
(dp231
g62
(dp232
g70
I5
ssg71
g226
sg64
(lp233
S'default'
p234
asbasbasbag57
(g73
g59
NtRp235
(dp236
g62
(dp237
sg71
g67
sg64
(lp238
g57
(g78
g59
NtRp239
(dp240
g62
(dp241
g82
g83
ssg71
g235
sg64
(lp242
S'cookies'
p243
asbag57
(g78
g59
NtRp244
(dp245
g62
(dp246
g89
g90
ssg71
g235
sg64
(lp247
S':'
asbag57
(g78
g59
NtRp248
(dp249
g62
(dp250
sg71
g235
sg64
(lp251
g57
(g58
g59
NtRp252
(dp253
g62
(dp254
g70
I5
ssg71
g248
sg64
(lp255
g57
(g66
g59
NtRp256
(dp257
g62
(dp258
g70
I4
ssg71
Nsg64
(lp259
g57
(g73
g59
NtRp260
(dp261
g62
(dp262
sg71
g256
sg64
(lp263
g57
(g78
g59
NtRp264
(dp265
g62
(dp266
g82
g83
ssg71
g260
sg64
(lp267
S'session_id_admin'
p268
asbag57
(g78
g59
NtRp269
(dp270
g62
(dp271
g89
g90
ssg71
g260
sg64
(lp272
S':'
asbag57
(g78
g59
NtRp273
(dp274
g62
(dp275
sg71
g260
sg64
(lp276
g57
(g58
g59
NtRp277
(dp278
g62
(dp279
g70
I4
ssg71
g273
sg64
(lp280
S'127.0.0.1-d6356bbd-9e9c-4631-a558-f03165f7d576'
p281
ag57
(g66
g59
NtRp282
(dp283
g62
(dp284
g70
I3
ssg71
Nsg64
(lp285
g57
(g73
g59
NtRp286
(dp287
g62
(dp288
sg71
g282
sg64
(lp289
g57
(g78
g59
NtRp290
(dp291
g62
(dp292
g82
g83
ssg71
g286
sg64
(lp293
S'comment'
p294
asbag57
(g78
g59
NtRp295
(dp296
g62
(dp297
g89
g90
ssg71
g286
sg64
(lp298
S':'
asbag57
(g78
g59
NtRp299
(dp300
g62
(dp301
sg71
g286
sg64
(lp302
g57
(g58
g59
NtRp303
(dp304
g62
(dp305
g70
I3
ssg71
g299
sg64
(lp306
S''
asbasbasbag57
(g73
g59
NtRp307
(dp308
g62
(dp309
sg71
g282
sg64
(lp310
g57
(g78
g59
NtRp311
(dp312
g62
(dp313
g82
g83
ssg71
g307
sg64
(lp314
S'domain'
p315
asbag57
(g78
g59
NtRp316
(dp317
g62
(dp318
g89
g90
ssg71
g307
sg64
(lp319
S':'
asbag57
(g78
g59
NtRp320
(dp321
g62
(dp322
sg71
g307
sg64
(lp323
g57
(g58
g59
NtRp324
(dp325
g62
(dp326
g70
I3
ssg71
g320
sg64
(lp327
S''
asbasbasbag57
(g73
g59
NtRp328
(dp329
g62
(dp330
sg71
g282
sg64
(lp331
g57
(g78
g59
NtRp332
(dp333
g62
(dp334
g82
g83
ssg71
g328
sg64
(lp335
S'expires'
p336
asbag57
(g78
g59
NtRp337
(dp338
g62
(dp339
g89
g90
ssg71
g328
sg64
(lp340
S':'
asbag57
(g78
g59
NtRp341
(dp342
g62
(dp343
sg71
g328
sg64
(lp344
g57
(g58
g59
NtRp345
(dp346
g62
(dp347
g70
I3
ssg71
g341
sg64
(lp348
S''
asbasbasbag57
(g73
g59
NtRp349
(dp350
g62
(dp351
sg71
g282
sg64
(lp352
g57
(g78
g59
NtRp353
(dp354
g62
(dp355
g82
g83
ssg71
g349
sg64
(lp356
S'httponly'
p357
asbag57
(g78
g59
NtRp358
(dp359
g62
(dp360
g89
g90
ssg71
g349
sg64
(lp361
S':'
asbag57
(g78
g59
NtRp362
(dp363
g62
(dp364
sg71
g349
sg64
(lp365
g57
(g58
g59
NtRp366
(dp367
g62
(dp368
g70
I3
ssg71
g362
sg64
(lp369
S''
asbasbasbag57
(g73
g59
NtRp370
(dp371
g62
(dp372
sg71
g282
sg64
(lp373
g57
(g78
g59
NtRp374
(dp375
g62
(dp376
g82
g83
ssg71
g370
sg64
(lp377
S'max-age'
p378
asbag57
(g78
g59
NtRp379
(dp380
g62
(dp381
g89
g90
ssg71
g370
sg64
(lp382
S':'
asbag57
(g78
g59
NtRp383
(dp384
g62
(dp385
sg71
g370
sg64
(lp386
g57
(g58
g59
NtRp387
(dp388
g62
(dp389
g70
I3
ssg71
g383
sg64
(lp390
S''
asbasbasbag57
(g73
g59
NtRp391
(dp392
g62
(dp393
sg71
g282
sg64
(lp394
g57
(g78
g59
NtRp395
(dp396
g62
(dp397
g82
g83
ssg71
g391
sg64
(lp398
S'path'
p399
asbag57
(g78
g59
NtRp400
(dp401
g62
(dp402
g89
g90
ssg71
g391
sg64
(lp403
S':'
asbag57
(g78
g59
NtRp404
(dp405
g62
(dp406
sg71
g391
sg64
(lp407
g57
(g58
g59
NtRp408
(dp409
g62
(dp410
g70
I3
ssg71
g404
sg64
(lp411
S''
asbasbasbag57
(g73
g59
NtRp412
(dp413
g62
(dp414
sg71
g282
sg64
(lp415
g57
(g78
g59
NtRp416
(dp417
g62
(dp418
g82
g83
ssg71
g412
sg64
(lp419
S'secure'
p420
asbag57
(g78
g59
NtRp421
(dp422
g62
(dp423
g89
g90
ssg71
g412
sg64
(lp424
S':'
asbag57
(g78
g59
NtRp425
(dp426
g62
(dp427
sg71
g412
sg64
(lp428
g57
(g58
g59
NtRp429
(dp430
g62
(dp431
g70
I3
ssg71
g425
sg64
(lp432
S''
asbasbasbag57
(g73
g59
NtRp433
(dp434
g62
(dp435
sg71
g282
sg64
(lp436
g57
(g78
g59
NtRp437
(dp438
g62
(dp439
g82
g83
ssg71
g433
sg64
(lp440
S'version'
p441
asbag57
(g78
g59
NtRp442
(dp443
g62
(dp444
g89
g90
ssg71
g433
sg64
(lp445
S':'
asbag57
(g78
g59
NtRp446
(dp447
g62
(dp448
sg71
g433
sg64
(lp449
g57
(g58
g59
NtRp450
(dp451
g62
(dp452
g70
I3
ssg71
g446
sg64
(lp453
S''
asbasbasbasbasbasbasbag57
(g73
g59
NtRp454
(dp455
g62
(dp456
sg71
g256
sg64
(lp457
g57
(g78
g59
NtRp458
(dp459
g62
(dp460
g82
g83
ssg71
g454
sg64
(lp461
S'session_id_ssad'
p462
asbag57
(g78
g59
NtRp463
(dp464
g62
(dp465
g89
g90
ssg71
g454
sg64
(lp466
S':'
asbag57
(g78
g59
NtRp467
(dp468
g62
(dp469
sg71
g454
sg64
(lp470
g57
(g58
g59
NtRp471
(dp472
g62
(dp473
g70
I4
ssg71
g467
sg64
(lp474
S'127.0.0.1-c668ac90-883a-4163-916b-4b94201f7ce7'
p475
ag57
(g66
g59
NtRp476
(dp477
g62
(dp478
g70
I3
ssg71
Nsg64
(lp479
g57
(g73
g59
NtRp480
(dp481
g62
(dp482
sg71
g476
sg64
(lp483
g57
(g78
g59
NtRp484
(dp485
g62
(dp486
g82
g83
ssg71
g480
sg64
(lp487
g294
asbag57
(g78
g59
NtRp488
(dp489
g62
(dp490
g89
g90
ssg71
g480
sg64
(lp491
S':'
asbag57
(g78
g59
NtRp492
(dp493
g62
(dp494
sg71
g480
sg64
(lp495
g57
(g58
g59
NtRp496
(dp497
g62
(dp498
g70
I3
ssg71
g492
sg64
(lp499
S''
asbasbasbag57
(g73
g59
NtRp500
(dp501
g62
(dp502
sg71
g476
sg64
(lp503
g57
(g78
g59
NtRp504
(dp505
g62
(dp506
g82
g83
ssg71
g500
sg64
(lp507
g315
asbag57
(g78
g59
NtRp508
(dp509
g62
(dp510
g89
g90
ssg71
g500
sg64
(lp511
S':'
asbag57
(g78
g59
NtRp512
(dp513
g62
(dp514
sg71
g500
sg64
(lp515
g57
(g58
g59
NtRp516
(dp517
g62
(dp518
g70
I3
ssg71
g512
sg64
(lp519
S''
asbasbasbag57
(g73
g59
NtRp520
(dp521
g62
(dp522
sg71
g476
sg64
(lp523
g57
(g78
g59
NtRp524
(dp525
g62
(dp526
g82
g83
ssg71
g520
sg64
(lp527
g336
asbag57
(g78
g59
NtRp528
(dp529
g62
(dp530
g89
g90
ssg71
g520
sg64
(lp531
S':'
asbag57
(g78
g59
NtRp532
(dp533
g62
(dp534
sg71
g520
sg64
(lp535
g57
(g58
g59
NtRp536
(dp537
g62
(dp538
g70
I3
ssg71
g532
sg64
(lp539
S''
asbasbasbag57
(g73
g59
NtRp540
(dp541
g62
(dp542
sg71
g476
sg64
(lp543
g57
(g78
g59
NtRp544
(dp545
g62
(dp546
g82
g83
ssg71
g540
sg64
(lp547
g357
asbag57
(g78
g59
NtRp548
(dp549
g62
(dp550
g89
g90
ssg71
g540
sg64
(lp551
S':'
asbag57
(g78
g59
NtRp552
(dp553
g62
(dp554
sg71
g540
sg64
(lp555
g57
(g58
g59
NtRp556
(dp557
g62
(dp558
g70
I3
ssg71
g552
sg64
(lp559
S''
asbasbasbag57
(g73
g59
NtRp560
(dp561
g62
(dp562
sg71
g476
sg64
(lp563
g57
(g78
g59
NtRp564
(dp565
g62
(dp566
g82
g83
ssg71
g560
sg64
(lp567
g378
asbag57
(g78
g59
NtRp568
(dp569
g62
(dp570
g89
g90
ssg71
g560
sg64
(lp571
S':'
asbag57
(g78
g59
NtRp572
(dp573
g62
(dp574
sg71
g560
sg64
(lp575
g57
(g58
g59
NtRp576
(dp577
g62
(dp578
g70
I3
ssg71
g572
sg64
(lp579
S''
asbasbasbag57
(g73
g59
NtRp580
(dp581
g62
(dp582
sg71
g476
sg64
(lp583
g57
(g78
g59
NtRp584
(dp585
g62
(dp586
g82
g83
ssg71
g580
sg64
(lp587
g399
asbag57
(g78
g59
NtRp588
(dp589
g62
(dp590
g89
g90
ssg71
g580
sg64
(lp591
S':'
asbag57
(g78
g59
NtRp592
(dp593
g62
(dp594
sg71
g580
sg64
(lp595
g57
(g58
g59
NtRp596
(dp597
g62
(dp598
g70
I3
ssg71
g592
sg64
(lp599
S''
asbasbasbag57
(g73
g59
NtRp600
(dp601
g62
(dp602
sg71
g476
sg64
(lp603
g57
(g78
g59
NtRp604
(dp605
g62
(dp606
g82
g83
ssg71
g600
sg64
(lp607
g420
asbag57
(g78
g59
NtRp608
(dp609
g62
(dp610
g89
g90
ssg71
g600
sg64
(lp611
S':'
asbag57
(g78
g59
NtRp612
(dp613
g62
(dp614
sg71
g600
sg64
(lp615
g57
(g58
g59
NtRp616
(dp617
g62
(dp618
g70
I3
ssg71
g612
sg64
(lp619
S''
asbasbasbag57
(g73
g59
NtRp620
(dp621
g62
(dp622
sg71
g476
sg64
(lp623
g57
(g78
g59
NtRp624
(dp625
g62
(dp626
g82
g83
ssg71
g620
sg64
(lp627
g441
asbag57
(g78
g59
NtRp628
(dp629
g62
(dp630
g89
g90
ssg71
g620
sg64
(lp631
S':'
asbag57
(g78
g59
NtRp632
(dp633
g62
(dp634
sg71
g620
sg64
(lp635
g57
(g58
g59
NtRp636
(dp637
g62
(dp638
g70
I3
ssg71
g632
sg64
(lp639
S''
asbasbasbasbasbasbasbasbasbasbasbag57
(g73
g59
NtRp640
(dp641
g62
(dp642
sg71
g67
sg64
(lp643
g57
(g78
g59
NtRp644
(dp645
g62
(dp646
g82
g83
ssg71
g640
sg64
(lp647
S'env'
p648
asbag57
(g78
g59
NtRp649
(dp650
g62
(dp651
g89
g90
ssg71
g640
sg64
(lp652
S':'
asbag57
(g78
g59
NtRp653
(dp654
g62
(dp655
sg71
g640
sg64
(lp656
g57
(g58
g59
NtRp657
(dp658
g62
(dp659
g70
I5
ssg71
g653
sg64
(lp660
g57
(g66
g59
NtRp661
(dp662
g62
(dp663
g70
I4
ssg71
Nsg64
(lp664
g57
(g73
g59
NtRp665
(dp666
g62
(dp667
sg71
g661
sg64
(lp668
g57
(g78
g59
NtRp669
(dp670
g62
(dp671
g82
g83
ssg71
g665
sg64
(lp672
S'app_folders'
p673
asbag57
(g78
g59
NtRp674
(dp675
g62
(dp676
g89
g90
ssg71
g665
sg64
(lp677
S':'
asbag57
(g78
g59
NtRp678
(dp679
g62
(dp680
sg71
g665
sg64
(lp681
g57
(g58
g59
NtRp682
(dp683
g62
(dp684
g70
I4
ssg71
g678
sg64
(lp685
S"set(['/home/urvashi/Desktop/WEB2PY/web2py/applications/admin/', '/home/urvashi/Desktop/WEB2PY/web2py/applications/SSAD/'])"
p686
asbasbasbag57
(g73
g59
NtRp687
(dp688
g62
(dp689
sg71
g661
sg64
(lp690
g57
(g78
g59
NtRp691
(dp692
g62
(dp693
g82
g83
ssg71
g687
sg64
(lp694
S'applications_parent'
p695
asbag57
(g78
g59
NtRp696
(dp697
g62
(dp698
g89
g90
ssg71
g687
sg64
(lp699
S':'
asbag57
(g78
g59
NtRp700
(dp701
g62
(dp702
sg71
g687
sg64
(lp703
g57
(g58
g59
NtRp704
(dp705
g62
(dp706
g70
I4
ssg71
g700
sg64
(lp707
S'/home/urvashi/Desktop/WEB2PY/web2py'
p708
asbasbasbag57
(g73
g59
NtRp709
(dp710
g62
(dp711
sg71
g661
sg64
(lp712
g57
(g78
g59
NtRp713
(dp714
g62
(dp715
g82
g83
ssg71
g709
sg64
(lp716
S'cmd_args'
p717
asbag57
(g78
g59
NtRp718
(dp719
g62
(dp720
g89
g90
ssg71
g709
sg64
(lp721
S':'
asbag57
(g78
g59
NtRp722
(dp723
g62
(dp724
sg71
g709
sg64
(lp725
g57
(g58
g59
NtRp726
(dp727
g62
(dp728
g70
I4
ssg71
g722
sg64
(lp729
g57
(g66
g59
NtRp730
(dp731
g62
(dp732
g70
I3
ssg71
Nsg64
(lp733
sbasbasbasbag57
(g73
g59
NtRp734
(dp735
g62
(dp736
sg71
g661
sg64
(lp737
g57
(g78
g59
NtRp738
(dp739
g62
(dp740
g82
g83
ssg71
g734
sg64
(lp741
S'cmd_options'
p742
asbag57
(g78
g59
NtRp743
(dp744
g62
(dp745
g89
g90
ssg71
g734
sg64
(lp746
S':'
asbag57
(g78
g59
NtRp747
(dp748
g62
(dp749
sg71
g734
sg64
(lp750
g57
(g58
g59
NtRp751
(dp752
g62
(dp753
g70
I4
ssg71
g747
sg64
(lp754
S"<Values at 0x29e8518: {'verbose': False, 'ip': '127.0.0.1', 'with_scheduler': False, 'ips': [], 'shutdown_timeout': 5, 'taskbar': False, 'port': 8000, 'maxthreads': None, 'softcron': False, 'server_name': 'urvashi-VPCEH35EN', 'bpython': False, 'nogui': False, 'pid_filename': 'httpserver.pid', 'extcron': False, 'runcron': False, 'run_system_tests': False, 'test': None, 'folder': '/home/urvashi/Desktop/WEB2PY/web2py', 'config': '', 'minthreads': None, 'winservice': '', 'shell': None, 'run': '', 'log_filename': 'httpserver.log', 'debuglevel': 30, 'args': [''], 'socket_timeout': 5, 'ssl_ca_certificate': None, 'scheduler': None, 'profiler_filename': None, 'ssl_private_key': '', 'scheduler_groups': None, 'password': '123', 'request_queue_size': 5, 'ssl_certificate': '', 'cronjob': False, 'numthreads': None, 'quiet': False, 'interfaces': None, 'import_models': False, 'timeout': 10, 'plain': False, 'nobanner': False}>"
p755
asbasbasbag57
(g73
g59
NtRp756
(dp757
g62
(dp758
sg71
g661
sg64
(lp759
g57
(g78
g59
NtRp760
(dp761
g62
(dp762
g82
g83
ssg71
g756
sg64
(lp763
S'content_length'
p764
asbag57
(g78
g59
NtRp765
(dp766
g62
(dp767
g89
g90
ssg71
g756
sg64
(lp768
S':'
asbag57
(g78
g59
NtRp769
(dp770
g62
(dp771
sg71
g756
sg64
(lp772
g57
(g58
g59
NtRp773
(dp774
g62
(dp775
g70
I4
ssg71
g769
sg64
(lp776
S'7'
asbasbasbag57
(g73
g59
NtRp777
(dp778
g62
(dp779
sg71
g661
sg64
(lp780
g57
(g78
g59
NtRp781
(dp782
g62
(dp783
g82
g83
ssg71
g777
sg64
(lp784
S'content_type'
p785
asbag57
(g78
g59
NtRp786
(dp787
g62
(dp788
g89
g90
ssg71
g777
sg64
(lp789
S':'
asbag57
(g78
g59
NtRp790
(dp791
g62
(dp792
sg71
g777
sg64
(lp793
g57
(g58
g59
NtRp794
(dp795
g62
(dp796
g70
I4
ssg71
g790
sg64
(lp797
S'application/x-www-form-urlencoded'
p798
asbasbasbag57
(g73
g59
NtRp799
(dp800
g62
(dp801
sg71
g661
sg64
(lp802
g57
(g78
g59
NtRp803
(dp804
g62
(dp805
g82
g83
ssg71
g799
sg64
(lp806
S'db_sessions'
p807
asbag57
(g78
g59
NtRp808
(dp809
g62
(dp810
g89
g90
ssg71
g799
sg64
(lp811
S':'
asbag57
(g78
g59
NtRp812
(dp813
g62
(dp814
sg71
g799
sg64
(lp815
g57
(g58
g59
NtRp816
(dp817
g62
(dp818
g70
I4
ssg71
g812
sg64
(lp819
S'set([])'
p820
asbasbasbag57
(g73
g59
NtRp821
(dp822
g62
(dp823
sg71
g661
sg64
(lp824
g57
(g78
g59
NtRp825
(dp826
g62
(dp827
g82
g83
ssg71
g821
sg64
(lp828
S'debugging'
p829
asbag57
(g78
g59
NtRp830
(dp831
g62
(dp832
g89
g90
ssg71
g821
sg64
(lp833
S':'
asbag57
(g78
g59
NtRp834
(dp835
g62
(dp836
sg71
g821
sg64
(lp837
g57
(g58
g59
NtRp838
(dp839
g62
(dp840
g70
I4
ssg71
g834
sg64
(lp841
g100
asbasbasbag57
(g73
g59
NtRp842
(dp843
g62
(dp844
sg71
g661
sg64
(lp845
g57
(g78
g59
NtRp846
(dp847
g62
(dp848
g82
g83
ssg71
g842
sg64
(lp849
S'gluon_parent'
p850
asbag57
(g78
g59
NtRp851
(dp852
g62
(dp853
g89
g90
ssg71
g842
sg64
(lp854
S':'
asbag57
(g78
g59
NtRp855
(dp856
g62
(dp857
sg71
g842
sg64
(lp858
g57
(g58
g59
NtRp859
(dp860
g62
(dp861
g70
I4
ssg71
g855
sg64
(lp862
S'/home/urvashi/Desktop/WEB2PY/web2py'
p863
asbasbasbag57
(g73
g59
NtRp864
(dp865
g62
(dp866
sg71
g661
sg64
(lp867
g57
(g78
g59
NtRp868
(dp869
g62
(dp870
g82
g83
ssg71
g864
sg64
(lp871
S'http_accept'
p872
asbag57
(g78
g59
NtRp873
(dp874
g62
(dp875
g89
g90
ssg71
g864
sg64
(lp876
S':'
asbag57
(g78
g59
NtRp877
(dp878
g62
(dp879
sg71
g864
sg64
(lp880
g57
(g58
g59
NtRp881
(dp882
g62
(dp883
g70
I4
ssg71
g877
sg64
(lp884
S'text/html,application/xhtml+xml,application/xml;q=0.9,*/*;q=0.8'
p885
asbasbasbag57
(g73
g59
NtRp886
(dp887
g62
(dp888
sg71
g661
sg64
(lp889
g57
(g78
g59
NtRp890
(dp891
g62
(dp892
g82
g83
ssg71
g886
sg64
(lp893
S'http_accept_encoding'
p894
asbag57
(g78
g59
NtRp895
(dp896
g62
(dp897
g89
g90
ssg71
g886
sg64
(lp898
S':'
asbag57
(g78
g59
NtRp899
(dp900
g62
(dp901
sg71
g886
sg64
(lp902
g57
(g58
g59
NtRp903
(dp904
g62
(dp905
g70
I4
ssg71
g899
sg64
(lp906
S'gzip, deflate'
p907
asbasbasbag57
(g73
g59
NtRp908
(dp909
g62
(dp910
sg71
g661
sg64
(lp911
g57
(g78
g59
NtRp912
(dp913
g62
(dp914
g82
g83
ssg71
g908
sg64
(lp915
S'http_accept_language'
p916
asbag57
(g78
g59
NtRp917
(dp918
g62
(dp919
g89
g90
ssg71
g908
sg64
(lp920
S':'
asbag57
(g78
g59
NtRp921
(dp922
g62
(dp923
sg71
g908
sg64
(lp924
g57
(g58
g59
NtRp925
(dp926
g62
(dp927
g70
I4
ssg71
g921
sg64
(lp928
S'en-us,en;q=0.5'
p929
asbasbasbag57
(g73
g59
NtRp930
(dp931
g62
(dp932
sg71
g661
sg64
(lp933
g57
(g78
g59
NtRp934
(dp935
g62
(dp936
g82
g83
ssg71
g930
sg64
(lp937
S'http_cache_control'
p938
asbag57
(g78
g59
NtRp939
(dp940
g62
(dp941
g89
g90
ssg71
g930
sg64
(lp942
S':'
asbag57
(g78
g59
NtRp943
(dp944
g62
(dp945
sg71
g930
sg64
(lp946
g57
(g58
g59
NtRp947
(dp948
g62
(dp949
g70
I4
ssg71
g943
sg64
(lp950
S'max-age=0'
p951
asbasbasbag57
(g73
g59
NtRp952
(dp953
g62
(dp954
sg71
g661
sg64
(lp955
g57
(g78
g59
NtRp956
(dp957
g62
(dp958
g82
g83
ssg71
g952
sg64
(lp959
S'http_connection'
p960
asbag57
(g78
g59
NtRp961
(dp962
g62
(dp963
g89
g90
ssg71
g952
sg64
(lp964
S':'
asbag57
(g78
g59
NtRp965
(dp966
g62
(dp967
sg71
g952
sg64
(lp968
g57
(g58
g59
NtRp969
(dp970
g62
(dp971
g70
I4
ssg71
g965
sg64
(lp972
S'keep-alive'
p973
asbasbasbag57
(g73
g59
NtRp974
(dp975
g62
(dp976
sg71
g661
sg64
(lp977
g57
(g78
g59
NtRp978
(dp979
g62
(dp980
g82
g83
ssg71
g974
sg64
(lp981
S'http_content_length'
p982
asbag57
(g78
g59
NtRp983
(dp984
g62
(dp985
g89
g90
ssg71
g974
sg64
(lp986
S':'
asbag57
(g78
g59
NtRp987
(dp988
g62
(dp989
sg71
g974
sg64
(lp990
g57
(g58
g59
NtRp991
(dp992
g62
(dp993
g70
I4
ssg71
g987
sg64
(lp994
S'7'
asbasbasbag57
(g73
g59
NtRp995
(dp996
g62
(dp997
sg71
g661
sg64
(lp998
g57
(g78
g59
NtRp999
(dp1000
g62
(dp1001
g82
g83
ssg71
g995
sg64
(lp1002
S'http_content_type'
p1003
asbag57
(g78
g59
NtRp1004
(dp1005
g62
(dp1006
g89
g90
ssg71
g995
sg64
(lp1007
S':'
asbag57
(g78
g59
NtRp1008
(dp1009
g62
(dp1010
sg71
g995
sg64
(lp1011
g57
(g58
g59
NtRp1012
(dp1013
g62
(dp1014
g70
I4
ssg71
g1008
sg64
(lp1015
g798
asbasbasbag57
(g73
g59
NtRp1016
(dp1017
g62
(dp1018
sg71
g661
sg64
(lp1019
g57
(g78
g59
NtRp1020
(dp1021
g62
(dp1022
g82
g83
ssg71
g1016
sg64
(lp1023
S'http_cookie'
p1024
asbag57
(g78
g59
NtRp1025
(dp1026
g62
(dp1027
g89
g90
ssg71
g1016
sg64
(lp1028
S':'
asbag57
(g78
g59
NtRp1029
(dp1030
g62
(dp1031
sg71
g1016
sg64
(lp1032
g57
(g58
g59
NtRp1033
(dp1034
g62
(dp1035
g70
I4
ssg71
g1029
sg64
(lp1036
S'session_id_ssad=127.0.0.1-c668ac90-883a-4163-916b-4b94201f7ce7; session_id_admin=127.0.0.1-d6356bbd-9e9c-4631-a558-f03165f7d576'
p1037
asbasbasbag57
(g73
g59
NtRp1038
(dp1039
g62
(dp1040
sg71
g661
sg64
(lp1041
g57
(g78
g59
NtRp1042
(dp1043
g62
(dp1044
g82
g83
ssg71
g1038
sg64
(lp1045
S'http_host'
p1046
asbag57
(g78
g59
NtRp1047
(dp1048
g62
(dp1049
g89
g90
ssg71
g1038
sg64
(lp1050
S':'
asbag57
(g78
g59
NtRp1051
(dp1052
g62
(dp1053
sg71
g1038
sg64
(lp1054
g57
(g58
g59
NtRp1055
(dp1056
g62
(dp1057
g70
I4
ssg71
g1051
sg64
(lp1058
S'127.0.0.1:8000'
p1059
asbasbasbag57
(g73
g59
NtRp1060
(dp1061
g62
(dp1062
sg71
g661
sg64
(lp1063
g57
(g78
g59
NtRp1064
(dp1065
g62
(dp1066
g82
g83
ssg71
g1060
sg64
(lp1067
S'http_referer'
p1068
asbag57
(g78
g59
NtRp1069
(dp1070
g62
(dp1071
g89
g90
ssg71
g1060
sg64
(lp1072
S':'
asbag57
(g78
g59
NtRp1073
(dp1074
g62
(dp1075
sg71
g1060
sg64
(lp1076
g57
(g58
g59
NtRp1077
(dp1078
g62
(dp1079
g70
I4
ssg71
g1073
sg64
(lp1080
S'http://127.0.0.1:8000/SSAD/default/display.html'
p1081
asbasbasbag57
(g73
g59
NtRp1082
(dp1083
g62
(dp1084
sg71
g661
sg64
(lp1085
g57
(g78
g59
NtRp1086
(dp1087
g62
(dp1088
g82
g83
ssg71
g1082
sg64
(lp1089
S'http_user_agent'
p1090
asbag57
(g78
g59
NtRp1091
(dp1092
g62
(dp1093
g89
g90
ssg71
g1082
sg64
(lp1094
S':'
asbag57
(g78
g59
NtRp1095
(dp1096
g62
(dp1097
sg71
g1082
sg64
(lp1098
g57
(g58
g59
NtRp1099
(dp1100
g62
(dp1101
g70
I4
ssg71
g1095
sg64
(lp1102
S'Mozilla/5.0 (X11; Ubuntu; Linux x86_64; rv:11.0) Gecko/20100101 Firefox/11.0'
p1103
asbasbasbag57
(g73
g59
NtRp1104
(dp1105
g62
(dp1106
sg71
g661
sg64
(lp1107
g57
(g78
g59
NtRp1108
(dp1109
g62
(dp1110
g82
g83
ssg71
g1104
sg64
(lp1111
S'is_jython'
p1112
asbag57
(g78
g59
NtRp1113
(dp1114
g62
(dp1115
g89
g90
ssg71
g1104
sg64
(lp1116
S':'
asbag57
(g78
g59
NtRp1117
(dp1118
g62
(dp1119
sg71
g1104
sg64
(lp1120
g57
(g58
g59
NtRp1121
(dp1122
g62
(dp1123
g70
I4
ssg71
g1117
sg64
(lp1124
g100
asbasbasbag57
(g73
g59
NtRp1125
(dp1126
g62
(dp1127
sg71
g661
sg64
(lp1128
g57
(g78
g59
NtRp1129
(dp1130
g62
(dp1131
g82
g83
ssg71
g1125
sg64
(lp1132
S'is_pypy'
p1133
asbag57
(g78
g59
NtRp1134
(dp1135
g62
(dp1136
g89
g90
ssg71
g1125
sg64
(lp1137
S':'
asbag57
(g78
g59
NtRp1138
(dp1139
g62
(dp1140
sg71
g1125
sg64
(lp1141
g57
(g58
g59
NtRp1142
(dp1143
g62
(dp1144
g70
I4
ssg71
g1138
sg64
(lp1145
g100
asbasbasbag57
(g73
g59
NtRp1146
(dp1147
g62
(dp1148
sg71
g661
sg64
(lp1149
g57
(g78
g59
NtRp1150
(dp1151
g62
(dp1152
g82
g83
ssg71
g1146
sg64
(lp1153
S'local_hosts'
p1154
asbag57
(g78
g59
NtRp1155
(dp1156
g62
(dp1157
g89
g90
ssg71
g1146
sg64
(lp1158
S':'
asbag57
(g78
g59
NtRp1159
(dp1160
g62
(dp1161
sg71
g1146
sg64
(lp1162
g57
(g58
g59
NtRp1163
(dp1164
g62
(dp1165
g70
I4
ssg71
g1159
sg64
(lp1166
g57
(g66
g59
NtRp1167
(dp1168
g62
(dp1169
g70
I3
ssg71
Nsg64
(lp1170
g57
(g73
g59
NtRp1171
(dp1172
g62
(dp1173
sg71
g1167
sg64
(lp1174
g57
(g78
g59
NtRp1175
(dp1176
g62
(dp1177
sg71
g1171
sg64
(lp1178
g57
(g58
g59
NtRp1179
(dp1180
g62
(dp1181
g70
I3
ssg71
g1175
sg64
(lp1182
S'::1'
p1183
asbasbasbag57
(g73
g59
NtRp1184
(dp1185
g62
(dp1186
sg71
g1167
sg64
(lp1187
g57
(g78
g59
NtRp1188
(dp1189
g62
(dp1190
sg71
g1184
sg64
(lp1191
g57
(g58
g59
NtRp1192
(dp1193
g62
(dp1194
g70
I3
ssg71
g1188
sg64
(lp1195
S'127.0.1.1'
p1196
asbasbasbag57
(g73
g59
NtRp1197
(dp1198
g62
(dp1199
sg71
g1167
sg64
(lp1200
g57
(g78
g59
NtRp1201
(dp1202
g62
(dp1203
sg71
g1197
sg64
(lp1204
g57
(g58
g59
NtRp1205
(dp1206
g62
(dp1207
g70
I3
ssg71
g1201
sg64
(lp1208
S'::ffff:127.0.0.1'
p1209
asbasbasbag57
(g73
g59
NtRp1210
(dp1211
g62
(dp1212
sg71
g1167
sg64
(lp1213
g57
(g78
g59
NtRp1214
(dp1215
g62
(dp1216
sg71
g1210
sg64
(lp1217
g57
(g58
g59
NtRp1218
(dp1219
g62
(dp1220
g70
I3
ssg71
g1214
sg64
(lp1221
S'127.0.0.1'
p1222
asbasbasbag57
(g73
g59
NtRp1223
(dp1224
g62
(dp1225
sg71
g1167
sg64
(lp1226
g57
(g78
g59
NtRp1227
(dp1228
g62
(dp1229
sg71
g1223
sg64
(lp1230
g57
(g58
g59
NtRp1231
(dp1232
g62
(dp1233
g70
I3
ssg71
g1227
sg64
(lp1234
S'urvashi-VPCEH35EN'
p1235
asbasbasbasbasbasbasbag57
(g73
g59
NtRp1236
(dp1237
g62
(dp1238
sg71
g661
sg64
(lp1239
g57
(g78
g59
NtRp1240
(dp1241
g62
(dp1242
g82
g83
ssg71
g1236
sg64
(lp1243
S'path_info'
p1244
asbag57
(g78
g59
NtRp1245
(dp1246
g62
(dp1247
g89
g90
ssg71
g1236
sg64
(lp1248
S':'
asbag57
(g78
g59
NtRp1249
(dp1250
g62
(dp1251
sg71
g1236
sg64
(lp1252
g57
(g58
g59
NtRp1253
(dp1254
g62
(dp1255
g70
I4
ssg71
g1249
sg64
(lp1256
S'/SSAD/default/like.html'
p1257
asbasbasbag57
(g73
g59
NtRp1258
(dp1259
g62
(dp1260
sg71
g661
sg64
(lp1261
g57
(g78
g59
NtRp1262
(dp1263
g62
(dp1264
g82
g83
ssg71
g1258
sg64
(lp1265
S'query_string'
p1266
asbag57
(g78
g59
NtRp1267
(dp1268
g62
(dp1269
g89
g90
ssg71
g1258
sg64
(lp1270
S':'
asbag57
(g78
g59
NtRp1271
(dp1272
g62
(dp1273
sg71
g1258
sg64
(lp1274
g57
(g58
g59
NtRp1275
(dp1276
g62
(dp1277
g70
I4
ssg71
g1271
sg64
(lp1278
S''
asbasbasbag57
(g73
g59
NtRp1279
(dp1280
g62
(dp1281
sg71
g661
sg64
(lp1282
g57
(g78
g59
NtRp1283
(dp1284
g62
(dp1285
g82
g83
ssg71
g1279
sg64
(lp1286
S'remote_addr'
p1287
asbag57
(g78
g59
NtRp1288
(dp1289
g62
(dp1290
g89
g90
ssg71
g1279
sg64
(lp1291
S':'
asbag57
(g78
g59
NtRp1292
(dp1293
g62
(dp1294
sg71
g1279
sg64
(lp1295
g57
(g58
g59
NtRp1296
(dp1297
g62
(dp1298
g70
I4
ssg71
g1292
sg64
(lp1299
g212
asbasbasbag57
(g73
g59
NtRp1300
(dp1301
g62
(dp1302
sg71
g661
sg64
(lp1303
g57
(g78
g59
NtRp1304
(dp1305
g62
(dp1306
g82
g83
ssg71
g1300
sg64
(lp1307
S'remote_port'
p1308
asbag57
(g78
g59
NtRp1309
(dp1310
g62
(dp1311
g89
g90
ssg71
g1300
sg64
(lp1312
S':'
asbag57
(g78
g59
NtRp1313
(dp1314
g62
(dp1315
sg71
g1300
sg64
(lp1316
g57
(g58
g59
NtRp1317
(dp1318
g62
(dp1319
g70
I4
ssg71
g1313
sg64
(lp1320
S'42755'
p1321
asbasbasbag57
(g73
g59
NtRp1322
(dp1323
g62
(dp1324
sg71
g661
sg64
(lp1325
g57
(g78
g59
NtRp1326
(dp1327
g62
(dp1328
g82
g83
ssg71
g1322
sg64
(lp1329
S'request_method'
p1330
asbag57
(g78
g59
NtRp1331
(dp1332
g62
(dp1333
g89
g90
ssg71
g1322
sg64
(lp1334
S':'
asbag57
(g78
g59
NtRp1335
(dp1336
g62
(dp1337
sg71
g1322
sg64
(lp1338
g57
(g58
g59
NtRp1339
(dp1340
g62
(dp1341
g70
I4
ssg71
g1335
sg64
(lp1342
S'POST'
p1343
asbasbasbag57
(g73
g59
NtRp1344
(dp1345
g62
(dp1346
sg71
g661
sg64
(lp1347
g57
(g78
g59
NtRp1348
(dp1349
g62
(dp1350
g82
g83
ssg71
g1344
sg64
(lp1351
S'request_uri'
p1352
asbag57
(g78
g59
NtRp1353
(dp1354
g62
(dp1355
g89
g90
ssg71
g1344
sg64
(lp1356
S':'
asbag57
(g78
g59
NtRp1357
(dp1358
g62
(dp1359
sg71
g1344
sg64
(lp1360
g57
(g58
g59
NtRp1361
(dp1362
g62
(dp1363
g70
I4
ssg71
g1357
sg64
(lp1364
g1257
asbasbasbag57
(g73
g59
NtRp1365
(dp1366
g62
(dp1367
sg71
g661
sg64
(lp1368
g57
(g78
g59
NtRp1369
(dp1370
g62
(dp1371
g82
g83
ssg71
g1365
sg64
(lp1372
S'script_name'
p1373
asbag57
(g78
g59
NtRp1374
(dp1375
g62
(dp1376
g89
g90
ssg71
g1365
sg64
(lp1377
S':'
asbag57
(g78
g59
NtRp1378
(dp1379
g62
(dp1380
sg71
g1365
sg64
(lp1381
g57
(g58
g59
NtRp1382
(dp1383
g62
(dp1384
g70
I4
ssg71
g1378
sg64
(lp1385
S''
asbasbasbag57
(g73
g59
NtRp1386
(dp1387
g62
(dp1388
sg71
g661
sg64
(lp1389
g57
(g78
g59
NtRp1390
(dp1391
g62
(dp1392
g82
g83
ssg71
g1386
sg64
(lp1393
S'server_name'
p1394
asbag57
(g78
g59
NtRp1395
(dp1396
g62
(dp1397
g89
g90
ssg71
g1386
sg64
(lp1398
S':'
asbag57
(g78
g59
NtRp1399
(dp1400
g62
(dp1401
sg71
g1386
sg64
(lp1402
g57
(g58
g59
NtRp1403
(dp1404
g62
(dp1405
g70
I4
ssg71
g1399
sg64
(lp1406
S'urvashi-VPCEH35EN'
p1407
asbasbasbag57
(g73
g59
NtRp1408
(dp1409
g62
(dp1410
sg71
g661
sg64
(lp1411
g57
(g78
g59
NtRp1412
(dp1413
g62
(dp1414
g82
g83
ssg71
g1408
sg64
(lp1415
S'server_port'
p1416
asbag57
(g78
g59
NtRp1417
(dp1418
g62
(dp1419
g89
g90
ssg71
g1408
sg64
(lp1420
S':'
asbag57
(g78
g59
NtRp1421
(dp1422
g62
(dp1423
sg71
g1408
sg64
(lp1424
g57
(g58
g59
NtRp1425
(dp1426
g62
(dp1427
g70
I4
ssg71
g1421
sg64
(lp1428
S'8000'
p1429
asbasbasbag57
(g73
g59
NtRp1430
(dp1431
g62
(dp1432
sg71
g661
sg64
(lp1433
g57
(g78
g59
NtRp1434
(dp1435
g62
(dp1436
g82
g83
ssg71
g1430
sg64
(lp1437
S'server_protocol'
p1438
asbag57
(g78
g59
NtRp1439
(dp1440
g62
(dp1441
g89
g90
ssg71
g1430
sg64
(lp1442
S':'
asbag57
(g78
g59
NtRp1443
(dp1444
g62
(dp1445
sg71
g1430
sg64
(lp1446
g57
(g58
g59
NtRp1447
(dp1448
g62
(dp1449
g70
I4
ssg71
g1443
sg64
(lp1450
S'HTTP/1.1'
p1451
asbasbasbag57
(g73
g59
NtRp1452
(dp1453
g62
(dp1454
sg71
g661
sg64
(lp1455
g57
(g78
g59
NtRp1456
(dp1457
g62
(dp1458
g82
g83
ssg71
g1452
sg64
(lp1459
S'server_software'
p1460
asbag57
(g78
g59
NtRp1461
(dp1462
g62
(dp1463
g89
g90
ssg71
g1452
sg64
(lp1464
S':'
asbag57
(g78
g59
NtRp1465
(dp1466
g62
(dp1467
sg71
g1452
sg64
(lp1468
g57
(g58
g59
NtRp1469
(dp1470
g62
(dp1471
g70
I4
ssg71
g1465
sg64
(lp1472
S'Rocket 1.2.6'
p1473
asbasbasbag57
(g73
g59
NtRp1474
(dp1475
g62
(dp1476
sg71
g661
sg64
(lp1477
g57
(g78
g59
NtRp1478
(dp1479
g62
(dp1480
g82
g83
ssg71
g1474
sg64
(lp1481
S'web2py_path'
p1482
asbag57
(g78
g59
NtRp1483
(dp1484
g62
(dp1485
g89
g90
ssg71
g1474
sg64
(lp1486
S':'
asbag57
(g78
g59
NtRp1487
(dp1488
g62
(dp1489
sg71
g1474
sg64
(lp1490
g57
(g58
g59
NtRp1491
(dp1492
g62
(dp1493
g70
I4
ssg71
g1487
sg64
(lp1494
g708
asbasbasbag57
(g73
g59
NtRp1495
(dp1496
g62
(dp1497
sg71
g661
sg64
(lp1498
g57
(g78
g59
NtRp1499
(dp1500
g62
(dp1501
g82
g83
ssg71
g1495
sg64
(lp1502
S'web2py_version'
p1503
asbag57
(g78
g59
NtRp1504
(dp1505
g62
(dp1506
g89
g90
ssg71
g1495
sg64
(lp1507
S':'
asbag57
(g78
g59
NtRp1508
(dp1509
g62
(dp1510
sg71
g1495
sg64
(lp1511
g57
(g58
g59
NtRp1512
(dp1513
g62
(dp1514
g70
I4
ssg71
g1508
sg64
(lp1515
g57
(g66
g59
NtRp1516
(dp1517
g62
(dp1518
g70
I3
ssg71
Nsg64
(lp1519
g57
(g73
g59
NtRp1520
(dp1521
g62
(dp1522
sg71
g1516
sg64
(lp1523
g57
(g78
g59
NtRp1524
(dp1525
g62
(dp1526
sg71
g1520
sg64
(lp1527
g57
(g58
g59
NtRp1528
(dp1529
g62
(dp1530
g70
I3
ssg71
g1524
sg64
(lp1531
S'2'
asbasbasbag57
(g73
g59
NtRp1532
(dp1533
g62
(dp1534
sg71
g1516
sg64
(lp1535
g57
(g78
g59
NtRp1536
(dp1537
g62
(dp1538
sg71
g1532
sg64
(lp1539
g57
(g58
g59
NtRp1540
(dp1541
g62
(dp1542
g70
I3
ssg71
g1536
sg64
(lp1543
S'3'
asbasbasbag57
(g73
g59
NtRp1544
(dp1545
g62
(dp1546
sg71
g1516
sg64
(lp1547
g57
(g78
g59
NtRp1548
(dp1549
g62
(dp1550
sg71
g1544
sg64
(lp1551
g57
(g58
g59
NtRp1552
(dp1553
g62
(dp1554
g70
I3
ssg71
g1548
sg64
(lp1555
S'2'
asbasbasbag57
(g73
g59
NtRp1556
(dp1557
g62
(dp1558
sg71
g1516
sg64
(lp1559
g57
(g78
g59
NtRp1560
(dp1561
g62
(dp1562
sg71
g1556
sg64
(lp1563
g57
(g58
g59
NtRp1564
(dp1565
g62
(dp1566
g70
I3
ssg71
g1560
sg64
(lp1567
S'datetime.datetime(2012, 12, 17, 15, 3, 30)'
p1568
asbasbasbag57
(g73
g59
NtRp1569
(dp1570
g62
(dp1571
sg71
g1516
sg64
(lp1572
g57
(g78
g59
NtRp1573
(dp1574
g62
(dp1575
sg71
g1569
sg64
(lp1576
g57
(g58
g59
NtRp1577
(dp1578
g62
(dp1579
g70
I3
ssg71
g1573
sg64
(lp1580
S'stable'
p1581
asbasbasbasbasbasbasbag57
(g73
g59
NtRp1582
(dp1583
g62
(dp1584
sg71
g661
sg64
(lp1585
g57
(g78
g59
NtRp1586
(dp1587
g62
(dp1588
g82
g83
ssg71
g1582
sg64
(lp1589
S'wsgi_errors'
p1590
asbag57
(g78
g59
NtRp1591
(dp1592
g62
(dp1593
g89
g90
ssg71
g1582
sg64
(lp1594
S':'
asbag57
(g78
g59
NtRp1595
(dp1596
g62
(dp1597
sg71
g1582
sg64
(lp1598
g57
(g58
g59
NtRp1599
(dp1600
g62
(dp1601
g70
I4
ssg71
g1595
sg64
(lp1602
S"<open file '<stderr>', mode 'w' at 0x7fd979b7b270>"
p1603
asbasbasbag57
(g73
g59
NtRp1604
(dp1605
g62
(dp1606
sg71
g661
sg64
(lp1607
g57
(g78
g59
NtRp1608
(dp1609
g62
(dp1610
g82
g83
ssg71
g1604
sg64
(lp1611
S'wsgi_file_wrapper'
p1612
asbag57
(g78
g59
NtRp1613
(dp1614
g62
(dp1615
g89
g90
ssg71
g1604
sg64
(lp1616
S':'
asbag57
(g78
g59
NtRp1617
(dp1618
g62
(dp1619
sg71
g1604
sg64
(lp1620
g57
(g58
g59
NtRp1621
(dp1622
g62
(dp1623
g70
I4
ssg71
g1617
sg64
(lp1624
S'<class wsgiref.util.FileWrapper at 0x25bc8d8>'
p1625
asbasbasbag57
(g73
g59
NtRp1626
(dp1627
g62
(dp1628
sg71
g661
sg64
(lp1629
g57
(g78
g59
NtRp1630
(dp1631
g62
(dp1632
g82
g83
ssg71
g1626
sg64
(lp1633
S'wsgi_input'
p1634
asbag57
(g78
g59
NtRp1635
(dp1636
g62
(dp1637
g89
g90
ssg71
g1626
sg64
(lp1638
S':'
asbag57
(g78
g59
NtRp1639
(dp1640
g62
(dp1641
sg71
g1626
sg64
(lp1642
g57
(g58
g59
NtRp1643
(dp1644
g62
(dp1645
g70
I4
ssg71
g1639
sg64
(lp1646
S'<socket._fileobject object at 0x7fd96c0ba350>'
p1647
asbasbasbag57
(g73
g59
NtRp1648
(dp1649
g62
(dp1650
sg71
g661
sg64
(lp1651
g57
(g78
g59
NtRp1652
(dp1653
g62
(dp1654
g82
g83
ssg71
g1648
sg64
(lp1655
S'wsgi_multiprocess'
p1656
asbag57
(g78
g59
NtRp1657
(dp1658
g62
(dp1659
g89
g90
ssg71
g1648
sg64
(lp1660
S':'
asbag57
(g78
g59
NtRp1661
(dp1662
g62
(dp1663
sg71
g1648
sg64
(lp1664
g57
(g58
g59
NtRp1665
(dp1666
g62
(dp1667
g70
I4
ssg71
g1661
sg64
(lp1668
g100
asbasbasbag57
(g73
g59
NtRp1669
(dp1670
g62
(dp1671
sg71
g661
sg64
(lp1672
g57
(g78
g59
NtRp1673
(dp1674
g62
(dp1675
g82
g83
ssg71
g1669
sg64
(lp1676
S'wsgi_multithread'
p1677
asbag57
(g78
g59
NtRp1678
(dp1679
g62
(dp1680
g89
g90
ssg71
g1669
sg64
(lp1681
S':'
asbag57
(g78
g59
NtRp1682
(dp1683
g62
(dp1684
sg71
g1669
sg64
(lp1685
g57
(g58
g59
NtRp1686
(dp1687
g62
(dp1688
g70
I4
ssg71
g1682
sg64
(lp1689
S'True'
p1690
asbasbasbag57
(g73
g59
NtRp1691
(dp1692
g62
(dp1693
sg71
g661
sg64
(lp1694
g57
(g78
g59
NtRp1695
(dp1696
g62
(dp1697
g82
g83
ssg71
g1691
sg64
(lp1698
S'wsgi_run_once'
p1699
asbag57
(g78
g59
NtRp1700
(dp1701
g62
(dp1702
g89
g90
ssg71
g1691
sg64
(lp1703
S':'
asbag57
(g78
g59
NtRp1704
(dp1705
g62
(dp1706
sg71
g1691
sg64
(lp1707
g57
(g58
g59
NtRp1708
(dp1709
g62
(dp1710
g70
I4
ssg71
g1704
sg64
(lp1711
g100
asbasbasbag57
(g73
g59
NtRp1712
(dp1713
g62
(dp1714
sg71
g661
sg64
(lp1715
g57
(g78
g59
NtRp1716
(dp1717
g62
(dp1718
g82
g83
ssg71
g1712
sg64
(lp1719
S'wsgi_url_scheme'
p1720
asbag57
(g78
g59
NtRp1721
(dp1722
g62
(dp1723
g89
g90
ssg71
g1712
sg64
(lp1724
S':'
asbag57
(g78
g59
NtRp1725
(dp1726
g62
(dp1727
sg71
g1712
sg64
(lp1728
g57
(g58
g59
NtRp1729
(dp1730
g62
(dp1731
g70
I4
ssg71
g1725
sg64
(lp1732
S'http'
p1733
asbasbasbag57
(g73
g59
NtRp1734
(dp1735
g62
(dp1736
sg71
g661
sg64
(lp1737
g57
(g78
g59
NtRp1738
(dp1739
g62
(dp1740
g82
g83
ssg71
g1734
sg64
(lp1741
S'wsgi_version'
p1742
asbag57
(g78
g59
NtRp1743
(dp1744
g62
(dp1745
g89
g90
ssg71
g1734
sg64
(lp1746
S':'
asbag57
(g78
g59
NtRp1747
(dp1748
g62
(dp1749
sg71
g1734
sg64
(lp1750
g57
(g58
g59
NtRp1751
(dp1752
g62
(dp1753
g70
I4
ssg71
g1747
sg64
(lp1754
g57
(g66
g59
NtRp1755
(dp1756
g62
(dp1757
g70
I3
ssg71
Nsg64
(lp1758
g57
(g73
g59
NtRp1759
(dp1760
g62
(dp1761
sg71
g1755
sg64
(lp1762
g57
(g78
g59
NtRp1763
(dp1764
g62
(dp1765
sg71
g1759
sg64
(lp1766
g57
(g58
g59
NtRp1767
(dp1768
g62
(dp1769
g70
I3
ssg71
g1763
sg64
(lp1770
S'1'
asbasbasbag57
(g73
g59
NtRp1771
(dp1772
g62
(dp1773
sg71
g1755
sg64
(lp1774
g57
(g78
g59
NtRp1775
(dp1776
g62
(dp1777
sg71
g1771
sg64
(lp1778
g57
(g58
g59
NtRp1779
(dp1780
g62
(dp1781
g70
I3
ssg71
g1775
sg64
(lp1782
S'0'
asbasbasbasbasbasbasbasbasbasbasbag57
(g73
g59
NtRp1783
(dp1784
g62
(dp1785
sg71
g67
sg64
(lp1786
g57
(g78
g59
NtRp1787
(dp1788
g62
(dp1789
g82
g83
ssg71
g1783
sg64
(lp1790
S'extension'
p1791
asbag57
(g78
g59
NtRp1792
(dp1793
g62
(dp1794
g89
g90
ssg71
g1783
sg64
(lp1795
S':'
asbag57
(g78
g59
NtRp1796
(dp1797
g62
(dp1798
sg71
g1783
sg64
(lp1799
g57
(g58
g59
NtRp1800
(dp1801
g62
(dp1802
g70
I5
ssg71
g1796
sg64
(lp1803
S'html'
p1804
asbasbasbag57
(g73
g59
NtRp1805
(dp1806
g62
(dp1807
sg71
g67
sg64
(lp1808
g57
(g78
g59
NtRp1809
(dp1810
g62
(dp1811
g82
g83
ssg71
g1805
sg64
(lp1812
S'folder'
p1813
asbag57
(g78
g59
NtRp1814
(dp1815
g62
(dp1816
g89
g90
ssg71
g1805
sg64
(lp1817
S':'
asbag57
(g78
g59
NtRp1818
(dp1819
g62
(dp1820
sg71
g1805
sg64
(lp1821
g57
(g58
g59
NtRp1822
(dp1823
g62
(dp1824
g70
I5
ssg71
g1818
sg64
(lp1825
S'/home/urvashi/Desktop/WEB2PY/web2py/applications/SSAD/'
p1826
asbasbasbag57
(g73
g59
NtRp1827
(dp1828
g62
(dp1829
sg71
g67
sg64
(lp1830
g57
(g78
g59
NtRp1831
(dp1832
g62
(dp1833
g82
g83
ssg71
g1827
sg64
(lp1834
S'function'
p1835
asbag57
(g78
g59
NtRp1836
(dp1837
g62
(dp1838
g89
g90
ssg71
g1827
sg64
(lp1839
S':'
asbag57
(g78
g59
NtRp1840
(dp1841
g62
(dp1842
sg71
g1827
sg64
(lp1843
g57
(g58
g59
NtRp1844
(dp1845
g62
(dp1846
g70
I5
ssg71
g1840
sg64
(lp1847
S'like'
p1848
asbasbasbag57
(g73
g59
NtRp1849
(dp1850
g62
(dp1851
sg71
g67
sg64
(lp1852
g57
(g78
g59
NtRp1853
(dp1854
g62
(dp1855
g82
g83
ssg71
g1849
sg64
(lp1856
S'get_vars'
p1857
asbag57
(g78
g59
NtRp1858
(dp1859
g62
(dp1860
g89
g90
ssg71
g1849
sg64
(lp1861
S':'
asbag57
(g78
g59
NtRp1862
(dp1863
g62
(dp1864
sg71
g1849
sg64
(lp1865
g57
(g58
g59
NtRp1866
(dp1867
g62
(dp1868
g70
I5
ssg71
g1862
sg64
(lp1869
g57
(g66
g59
NtRp1870
(dp1871
g62
(dp1872
g70
I4
ssg71
Nsg64
(lp1873
sbasbasbasbag57
(g73
g59
NtRp1874
(dp1875
g62
(dp1876
sg71
g67
sg64
(lp1877
g57
(g78
g59
NtRp1878
(dp1879
g62
(dp1880
g82
g83
ssg71
g1874
sg64
(lp1881
S'global_settings'
p1882
asbag57
(g78
g59
NtRp1883
(dp1884
g62
(dp1885
g89
g90
ssg71
g1874
sg64
(lp1886
S':'
asbag57
(g78
g59
NtRp1887
(dp1888
g62
(dp1889
sg71
g1874
sg64
(lp1890
g57
(g58
g59
NtRp1891
(dp1892
g62
(dp1893
g70
I5
ssg71
g1887
sg64
(lp1894
g57
(g66
g59
NtRp1895
(dp1896
g62
(dp1897
g70
I4
ssg71
Nsg64
(lp1898
g57
(g73
g59
NtRp1899
(dp1900
g62
(dp1901
sg71
g1895
sg64
(lp1902
g57
(g78
g59
NtRp1903
(dp1904
g62
(dp1905
g82
g83
ssg71
g1899
sg64
(lp1906
g673
asbag57
(g78
g59
NtRp1907
(dp1908
g62
(dp1909
g89
g90
ssg71
g1899
sg64
(lp1910
S':'
asbag57
(g78
g59
NtRp1911
(dp1912
g62
(dp1913
sg71
g1899
sg64
(lp1914
g57
(g58
g59
NtRp1915
(dp1916
g62
(dp1917
g70
I4
ssg71
g1911
sg64
(lp1918
S"set(['/home/urvashi/Desktop/WEB2PY/web2py/applications/admin/', '/home/urvashi/Desktop/WEB2PY/web2py/applications/SSAD/'])"
p1919
asbasbasbag57
(g73
g59
NtRp1920
(dp1921
g62
(dp1922
sg71
g1895
sg64
(lp1923
g57
(g78
g59
NtRp1924
(dp1925
g62
(dp1926
g82
g83
ssg71
g1920
sg64
(lp1927
g695
asbag57
(g78
g59
NtRp1928
(dp1929
g62
(dp1930
g89
g90
ssg71
g1920
sg64
(lp1931
S':'
asbag57
(g78
g59
NtRp1932
(dp1933
g62
(dp1934
sg71
g1920
sg64
(lp1935
g57
(g58
g59
NtRp1936
(dp1937
g62
(dp1938
g70
I4
ssg71
g1932
sg64
(lp1939
g708
asbasbasbag57
(g73
g59
NtRp1940
(dp1941
g62
(dp1942
sg71
g1895
sg64
(lp1943
g57
(g78
g59
NtRp1944
(dp1945
g62
(dp1946
g82
g83
ssg71
g1940
sg64
(lp1947
g717
asbag57
(g78
g59
NtRp1948
(dp1949
g62
(dp1950
g89
g90
ssg71
g1940
sg64
(lp1951
S':'
asbag57
(g78
g59
NtRp1952
(dp1953
g62
(dp1954
sg71
g1940
sg64
(lp1955
g57
(g58
g59
NtRp1956
(dp1957
g62
(dp1958
g70
I4
ssg71
g1952
sg64
(lp1959
g57
(g66
g59
NtRp1960
(dp1961
g62
(dp1962
g70
I3
ssg71
Nsg64
(lp1963
sbasbasbasbag57
(g73
g59
NtRp1964
(dp1965
g62
(dp1966
sg71
g1895
sg64
(lp1967
g57
(g78
g59
NtRp1968
(dp1969
g62
(dp1970
g82
g83
ssg71
g1964
sg64
(lp1971
g742
asbag57
(g78
g59
NtRp1972
(dp1973
g62
(dp1974
g89
g90
ssg71
g1964
sg64
(lp1975
S':'
asbag57
(g78
g59
NtRp1976
(dp1977
g62
(dp1978
sg71
g1964
sg64
(lp1979
g57
(g58
g59
NtRp1980
(dp1981
g62
(dp1982
g70
I4
ssg71
g1976
sg64
(lp1983
S"<Values at 0x29e8518: {'verbose': False, 'ip': '127.0.0.1', 'with_scheduler': False, 'ips': [], 'shutdown_timeout': 5, 'taskbar': False, 'port': 8000, 'maxthreads': None, 'softcron': False, 'server_name': 'urvashi-VPCEH35EN', 'bpython': False, 'nogui': False, 'pid_filename': 'httpserver.pid', 'extcron': False, 'runcron': False, 'run_system_tests': False, 'test': None, 'folder': '/home/urvashi/Desktop/WEB2PY/web2py', 'config': '', 'minthreads': None, 'winservice': '', 'shell': None, 'run': '', 'log_filename': 'httpserver.log', 'debuglevel': 30, 'args': [''], 'socket_timeout': 5, 'ssl_ca_certificate': None, 'scheduler': None, 'profiler_filename': None, 'ssl_private_key': '', 'scheduler_groups': None, 'password': '123', 'request_queue_size': 5, 'ssl_certificate': '', 'cronjob': False, 'numthreads': None, 'quiet': False, 'interfaces': None, 'import_models': False, 'timeout': 10, 'plain': False, 'nobanner': False}>"
p1984
asbasbasbag57
(g73
g59
NtRp1985
(dp1986
g62
(dp1987
sg71
g1895
sg64
(lp1988
g57
(g78
g59
NtRp1989
(dp1990
g62
(dp1991
g82
g83
ssg71
g1985
sg64
(lp1992
g807
asbag57
(g78
g59
NtRp1993
(dp1994
g62
(dp1995
g89
g90
ssg71
g1985
sg64
(lp1996
S':'
asbag57
(g78
g59
NtRp1997
(dp1998
g62
(dp1999
sg71
g1985
sg64
(lp2000
g57
(g58
g59
NtRp2001
(dp2002
g62
(dp2003
g70
I4
ssg71
g1997
sg64
(lp2004
S'set([])'
p2005
asbasbasbag57
(g73
g59
NtRp2006
(dp2007
g62
(dp2008
sg71
g1895
sg64
(lp2009
g57
(g78
g59
NtRp2010
(dp2011
g62
(dp2012
g82
g83
ssg71
g2006
sg64
(lp2013
g829
asbag57
(g78
g59
NtRp2014
(dp2015
g62
(dp2016
g89
g90
ssg71
g2006
sg64
(lp2017
S':'
asbag57
(g78
g59
NtRp2018
(dp2019
g62
(dp2020
sg71
g2006
sg64
(lp2021
g57
(g58
g59
NtRp2022
(dp2023
g62
(dp2024
g70
I4
ssg71
g2018
sg64
(lp2025
g100
asbasbasbag57
(g73
g59
NtRp2026
(dp2027
g62
(dp2028
sg71
g1895
sg64
(lp2029
g57
(g78
g59
NtRp2030
(dp2031
g62
(dp2032
g82
g83
ssg71
g2026
sg64
(lp2033
g850
asbag57
(g78
g59
NtRp2034
(dp2035
g62
(dp2036
g89
g90
ssg71
g2026
sg64
(lp2037
S':'
asbag57
(g78
g59
NtRp2038
(dp2039
g62
(dp2040
sg71
g2026
sg64
(lp2041
g57
(g58
g59
NtRp2042
(dp2043
g62
(dp2044
g70
I4
ssg71
g2038
sg64
(lp2045
g863
asbasbasbag57
(g73
g59
NtRp2046
(dp2047
g62
(dp2048
sg71
g1895
sg64
(lp2049
g57
(g78
g59
NtRp2050
(dp2051
g62
(dp2052
g82
g83
ssg71
g2046
sg64
(lp2053
g1112
asbag57
(g78
g59
NtRp2054
(dp2055
g62
(dp2056
g89
g90
ssg71
g2046
sg64
(lp2057
S':'
asbag57
(g78
g59
NtRp2058
(dp2059
g62
(dp2060
sg71
g2046
sg64
(lp2061
g57
(g58
g59
NtRp2062
(dp2063
g62
(dp2064
g70
I4
ssg71
g2058
sg64
(lp2065
g100
asbasbasbag57
(g73
g59
NtRp2066
(dp2067
g62
(dp2068
sg71
g1895
sg64
(lp2069
g57
(g78
g59
NtRp2070
(dp2071
g62
(dp2072
g82
g83
ssg71
g2066
sg64
(lp2073
g1133
asbag57
(g78
g59
NtRp2074
(dp2075
g62
(dp2076
g89
g90
ssg71
g2066
sg64
(lp2077
S':'
asbag57
(g78
g59
NtRp2078
(dp2079
g62
(dp2080
sg71
g2066
sg64
(lp2081
g57
(g58
g59
NtRp2082
(dp2083
g62
(dp2084
g70
I4
ssg71
g2078
sg64
(lp2085
g100
asbasbasbag57
(g73
g59
NtRp2086
(dp2087
g62
(dp2088
sg71
g1895
sg64
(lp2089
g57
(g78
g59
NtRp2090
(dp2091
g62
(dp2092
g82
g83
ssg71
g2086
sg64
(lp2093
g1154
asbag57
(g78
g59
NtRp2094
(dp2095
g62
(dp2096
g89
g90
ssg71
g2086
sg64
(lp2097
S':'
asbag57
(g78
g59
NtRp2098
(dp2099
g62
(dp2100
sg71
g2086
sg64
(lp2101
g57
(g58
g59
NtRp2102
(dp2103
g62
(dp2104
g70
I4
ssg71
g2098
sg64
(lp2105
g57
(g66
g59
NtRp2106
(dp2107
g62
(dp2108
g70
I3
ssg71
Nsg64
(lp2109
g57
(g73
g59
NtRp2110
(dp2111
g62
(dp2112
sg71
g2106
sg64
(lp2113
g57
(g78
g59
NtRp2114
(dp2115
g62
(dp2116
sg71
g2110
sg64
(lp2117
g57
(g58
g59
NtRp2118
(dp2119
g62
(dp2120
g70
I3
ssg71
g2114
sg64
(lp2121
g1183
asbasbasbag57
(g73
g59
NtRp2122
(dp2123
g62
(dp2124
sg71
g2106
sg64
(lp2125
g57
(g78
g59
NtRp2126
(dp2127
g62
(dp2128
sg71
g2122
sg64
(lp2129
g57
(g58
g59
NtRp2130
(dp2131
g62
(dp2132
g70
I3
ssg71
g2126
sg64
(lp2133
g1196
asbasbasbag57
(g73
g59
NtRp2134
(dp2135
g62
(dp2136
sg71
g2106
sg64
(lp2137
g57
(g78
g59
NtRp2138
(dp2139
g62
(dp2140
sg71
g2134
sg64
(lp2141
g57
(g58
g59
NtRp2142
(dp2143
g62
(dp2144
g70
I3
ssg71
g2138
sg64
(lp2145
g1209
asbasbasbag57
(g73
g59
NtRp2146
(dp2147
g62
(dp2148
sg71
g2106
sg64
(lp2149
g57
(g78
g59
NtRp2150
(dp2151
g62
(dp2152
sg71
g2146
sg64
(lp2153
g57
(g58
g59
NtRp2154
(dp2155
g62
(dp2156
g70
I3
ssg71
g2150
sg64
(lp2157
g1222
asbasbasbag57
(g73
g59
NtRp2158
(dp2159
g62
(dp2160
sg71
g2106
sg64
(lp2161
g57
(g78
g59
NtRp2162
(dp2163
g62
(dp2164
sg71
g2158
sg64
(lp2165
g57
(g58
g59
NtRp2166
(dp2167
g62
(dp2168
g70
I3
ssg71
g2162
sg64
(lp2169
g1235
asbasbasbasbasbasbasbag57
(g73
g59
NtRp2170
(dp2171
g62
(dp2172
sg71
g1895
sg64
(lp2173
g57
(g78
g59
NtRp2174
(dp2175
g62
(dp2176
g82
g83
ssg71
g2170
sg64
(lp2177
g1503
asbag57
(g78
g59
NtRp2178
(dp2179
g62
(dp2180
g89
g90
ssg71
g2170
sg64
(lp2181
S':'
asbag57
(g78
g59
NtRp2182
(dp2183
g62
(dp2184
sg71
g2170
sg64
(lp2185
g57
(g58
g59
NtRp2186
(dp2187
g62
(dp2188
g70
I4
ssg71
g2182
sg64
(lp2189
g57
(g66
g59
NtRp2190
(dp2191
g62
(dp2192
g70
I3
ssg71
Nsg64
(lp2193
g57
(g73
g59
NtRp2194
(dp2195
g62
(dp2196
sg71
g2190
sg64
(lp2197
g57
(g78
g59
NtRp2198
(dp2199
g62
(dp2200
sg71
g2194
sg64
(lp2201
g57
(g58
g59
NtRp2202
(dp2203
g62
(dp2204
g70
I3
ssg71
g2198
sg64
(lp2205
S'2'
asbasbasbag57
(g73
g59
NtRp2206
(dp2207
g62
(dp2208
sg71
g2190
sg64
(lp2209
g57
(g78
g59
NtRp2210
(dp2211
g62
(dp2212
sg71
g2206
sg64
(lp2213
g57
(g58
g59
NtRp2214
(dp2215
g62
(dp2216
g70
I3
ssg71
g2210
sg64
(lp2217
S'3'
asbasbasbag57
(g73
g59
NtRp2218
(dp2219
g62
(dp2220
sg71
g2190
sg64
(lp2221
g57
(g78
g59
NtRp2222
(dp2223
g62
(dp2224
sg71
g2218
sg64
(lp2225
g57
(g58
g59
NtRp2226
(dp2227
g62
(dp2228
g70
I3
ssg71
g2222
sg64
(lp2229
S'2'
asbasbasbag57
(g73
g59
NtRp2230
(dp2231
g62
(dp2232
sg71
g2190
sg64
(lp2233
g57
(g78
g59
NtRp2234
(dp2235
g62
(dp2236
sg71
g2230
sg64
(lp2237
g57
(g58
g59
NtRp2238
(dp2239
g62
(dp2240
g70
I3
ssg71
g2234
sg64
(lp2241
S'datetime.datetime(2012, 12, 17, 15, 3, 30)'
p2242
asbasbasbag57
(g73
g59
NtRp2243
(dp2244
g62
(dp2245
sg71
g2190
sg64
(lp2246
g57
(g78
g59
NtRp2247
(dp2248
g62
(dp2249
sg71
g2243
sg64
(lp2250
g57
(g58
g59
NtRp2251
(dp2252
g62
(dp2253
g70
I3
ssg71
g2247
sg64
(lp2254
g1581
asbasbasbasbasbasbasbasbasbasbasbag57
(g73
g59
NtRp2255
(dp2256
g62
(dp2257
sg71
g67
sg64
(lp2258
g57
(g78
g59
NtRp2259
(dp2260
g62
(dp2261
g82
g83
ssg71
g2255
sg64
(lp2262
S'is_https'
p2263
asbag57
(g78
g59
NtRp2264
(dp2265
g62
(dp2266
g89
g90
ssg71
g2255
sg64
(lp2267
S':'
asbag57
(g78
g59
NtRp2268
(dp2269
g62
(dp2270
sg71
g2255
sg64
(lp2271
g57
(g58
g59
NtRp2272
(dp2273
g62
(dp2274
g70
I5
ssg71
g2268
sg64
(lp2275
g100
asbasbasbag57
(g73
g59
NtRp2276
(dp2277
g62
(dp2278
sg71
g67
sg64
(lp2279
g57
(g78
g59
NtRp2280
(dp2281
g62
(dp2282
g82
g83
ssg71
g2276
sg64
(lp2283
S'is_local'
p2284
asbag57
(g78
g59
NtRp2285
(dp2286
g62
(dp2287
g89
g90
ssg71
g2276
sg64
(lp2288
S':'
asbag57
(g78
g59
NtRp2289
(dp2290
g62
(dp2291
sg71
g2276
sg64
(lp2292
g57
(g58
g59
NtRp2293
(dp2294
g62
(dp2295
g70
I5
ssg71
g2289
sg64
(lp2296
g1690
asbasbasbag57
(g73
g59
NtRp2297
(dp2298
g62
(dp2299
sg71
g67
sg64
(lp2300
g57
(g78
g59
NtRp2301
(dp2302
g62
(dp2303
g82
g83
ssg71
g2297
sg64
(lp2304
S'is_restful'
p2305
asbag57
(g78
g59
NtRp2306
(dp2307
g62
(dp2308
g89
g90
ssg71
g2297
sg64
(lp2309
S':'
asbag57
(g78
g59
NtRp2310
(dp2311
g62
(dp2312
sg71
g2297
sg64
(lp2313
g57
(g58
g59
NtRp2314
(dp2315
g62
(dp2316
g70
I5
ssg71
g2310
sg64
(lp2317
g100
asbasbasbag57
(g73
g59
NtRp2318
(dp2319
g62
(dp2320
sg71
g67
sg64
(lp2321
g57
(g78
g59
NtRp2322
(dp2323
g62
(dp2324
g82
g83
ssg71
g2318
sg64
(lp2325
S'now'
p2326
asbag57
(g78
g59
NtRp2327
(dp2328
g62
(dp2329
g89
g90
ssg71
g2318
sg64
(lp2330
S':'
asbag57
(g78
g59
NtRp2331
(dp2332
g62
(dp2333
sg71
g2318
sg64
(lp2334
g57
(g58
g59
NtRp2335
(dp2336
g62
(dp2337
g70
I5
ssg71
g2331
sg64
(lp2338
S'datetime.datetime(2013, 8, 29, 16, 33, 7, 112065)'
p2339
asbasbasbag57
(g73
g59
NtRp2340
(dp2341
g62
(dp2342
sg71
g67
sg64
(lp2343
g57
(g78
g59
NtRp2344
(dp2345
g62
(dp2346
g82
g83
ssg71
g2340
sg64
(lp2347
S'post_vars'
p2348
asbag57
(g78
g59
NtRp2349
(dp2350
g62
(dp2351
g89
g90
ssg71
g2340
sg64
(lp2352
S':'
asbag57
(g78
g59
NtRp2353
(dp2354
g62
(dp2355
sg71
g2340
sg64
(lp2356
g57
(g58
g59
NtRp2357
(dp2358
g62
(dp2359
g70
I5
ssg71
g2353
sg64
(lp2360
g57
(g66
g59
NtRp2361
(dp2362
g62
(dp2363
g70
I4
ssg71
Nsg64
(lp2364
g57
(g73
g59
NtRp2365
(dp2366
g62
(dp2367
sg71
g2361
sg64
(lp2368
g57
(g78
g59
NtRp2369
(dp2370
g62
(dp2371
g82
g83
ssg71
g2365
sg64
(lp2372
S'link'
p2373
asbag57
(g78
g59
NtRp2374
(dp2375
g62
(dp2376
g89
g90
ssg71
g2365
sg64
(lp2377
S':'
asbag57
(g78
g59
NtRp2378
(dp2379
g62
(dp2380
sg71
g2365
sg64
(lp2381
g57
(g58
g59
NtRp2382
(dp2383
g62
(dp2384
g70
I4
ssg71
g2378
sg64
(lp2385
S'12'
p2386
asbasbasbasbasbasbasbag57
(g73
g59
NtRp2387
(dp2388
g62
(dp2389
sg71
g67
sg64
(lp2390
g57
(g78
g59
NtRp2391
(dp2392
g62
(dp2393
g82
g83
ssg71
g2387
sg64
(lp2394
S'raw_args'
p2395
asbag57
(g78
g59
NtRp2396
(dp2397
g62
(dp2398
g89
g90
ssg71
g2387
sg64
(lp2399
S':'
asbag57
(g78
g59
NtRp2400
(dp2401
g62
(dp2402
sg71
g2387
sg64
(lp2403
g57
(g58
g59
NtRp2404
(dp2405
g62
(dp2406
g70
I5
ssg71
g2400
sg64
(lp2407
S''
asbasbasbag57
(g73
g59
NtRp2408
(dp2409
g62
(dp2410
sg71
g67
sg64
(lp2411
g57
(g78
g59
NtRp2412
(dp2413
g62
(dp2414
g82
g83
ssg71
g2408
sg64
(lp2415
S'raw_extension'
p2416
asbag57
(g78
g59
NtRp2417
(dp2418
g62
(dp2419
g89
g90
ssg71
g2408
sg64
(lp2420
S':'
asbag57
(g78
g59
NtRp2421
(dp2422
g62
(dp2423
sg71
g2408
sg64
(lp2424
g57
(g58
g59
NtRp2425
(dp2426
g62
(dp2427
g70
I5
ssg71
g2421
sg64
(lp2428
g1804
asbasbasbag57
(g73
g59
NtRp2429
(dp2430
g62
(dp2431
sg71
g67
sg64
(lp2432
g57
(g78
g59
NtRp2433
(dp2434
g62
(dp2435
g82
g83
ssg71
g2429
sg64
(lp2436
S'url'
p2437
asbag57
(g78
g59
NtRp2438
(dp2439
g62
(dp2440
g89
g90
ssg71
g2429
sg64
(lp2441
S':'
asbag57
(g78
g59
NtRp2442
(dp2443
g62
(dp2444
sg71
g2429
sg64
(lp2445
g57
(g58
g59
NtRp2446
(dp2447
g62
(dp2448
g70
I5
ssg71
g2442
sg64
(lp2449
g1257
asbasbasbag57
(g73
g59
NtRp2450
(dp2451
g62
(dp2452
sg71
g67
sg64
(lp2453
g57
(g78
g59
NtRp2454
(dp2455
g62
(dp2456
g82
g83
ssg71
g2450
sg64
(lp2457
S'utcnow'
p2458
asbag57
(g78
g59
NtRp2459
(dp2460
g62
(dp2461
g89
g90
ssg71
g2450
sg64
(lp2462
S':'
asbag57
(g78
g59
NtRp2463
(dp2464
g62
(dp2465
sg71
g2450
sg64
(lp2466
g57
(g58
g59
NtRp2467
(dp2468
g62
(dp2469
g70
I5
ssg71
g2463
sg64
(lp2470
S'datetime.datetime(2013, 8, 29, 11, 3, 7, 112109)'
p2471
asbasbasbag57
(g73
g59
NtRp2472
(dp2473
g62
(dp2474
sg71
g67
sg64
(lp2475
g57
(g78
g59
NtRp2476
(dp2477
g62
(dp2478
g82
g83
ssg71
g2472
sg64
(lp2479
S'uuid'
p2480
asbag57
(g78
g59
NtRp2481
(dp2482
g62
(dp2483
g89
g90
ssg71
g2472
sg64
(lp2484
S':'
asbag57
(g78
g59
NtRp2485
(dp2486
g62
(dp2487
sg71
g2472
sg64
(lp2488
g57
(g58
g59
NtRp2489
(dp2490
g62
(dp2491
g70
I5
ssg71
g2485
sg64
(lp2492
S'SSAD/127.0.0.1.2013-08-29.16-33-07.ce9908c9-7b90-4d01-b70f-8184a6b2e771'
p2493
asbasbasbag57
(g73
g59
NtRp2494
(dp2495
g62
(dp2496
sg71
g67
sg64
(lp2497
g57
(g78
g59
NtRp2498
(dp2499
g62
(dp2500
g82
g83
ssg71
g2494
sg64
(lp2501
S'vars'
p2502
asbag57
(g78
g59
NtRp2503
(dp2504
g62
(dp2505
g89
g90
ssg71
g2494
sg64
(lp2506
S':'
asbag57
(g78
g59
NtRp2507
(dp2508
g62
(dp2509
sg71
g2494
sg64
(lp2510
g57
(g58
g59
NtRp2511
(dp2512
g62
(dp2513
g70
I5
ssg71
g2507
sg64
(lp2514
g57
(g66
g59
NtRp2515
(dp2516
g62
(dp2517
g70
I4
ssg71
Nsg64
(lp2518
g57
(g73
g59
NtRp2519
(dp2520
g62
(dp2521
sg71
g2515
sg64
(lp2522
g57
(g78
g59
NtRp2523
(dp2524
g62
(dp2525
g82
g83
ssg71
g2519
sg64
(lp2526
g2373
asbag57
(g78
g59
NtRp2527
(dp2528
g62
(dp2529
g89
g90
ssg71
g2519
sg64
(lp2530
S':'
asbag57
(g78
g59
NtRp2531
(dp2532
g62
(dp2533
sg71
g2519
sg64
(lp2534
g57
(g58
g59
NtRp2535
(dp2536
g62
(dp2537
g70
I4
ssg71
g2531
sg64
(lp2538
g2386
asbasbasbasbasbasbasbag57
(g73
g59
NtRp2539
(dp2540
g62
(dp2541
sg71
g67
sg64
(lp2542
g57
(g78
g59
NtRp2543
(dp2544
g62
(dp2545
g82
g83
ssg71
g2539
sg64
(lp2546
S'wsgi'
p2547
asbag57
(g78
g59
NtRp2548
(dp2549
g62
(dp2550
g89
g90
ssg71
g2539
sg64
(lp2551
S':'
asbag57
(g78
g59
NtRp2552
(dp2553
g62
(dp2554
sg71
g2539
sg64
(lp2555
g57
(g58
g59
NtRp2556
(dp2557
g62
(dp2558
g70
I5
ssg71
g2552
sg64
(lp2559
g57
(g66
g59
NtRp2560
(dp2561
g62
(dp2562
g70
I4
ssg71
Nsg64
(lp2563
g57
(g73
g59
NtRp2564
(dp2565
g62
(dp2566
sg71
g2560
sg64
(lp2567
g57
(g78
g59
NtRp2568
(dp2569
g62
(dp2570
g82
g83
ssg71
g2564
sg64
(lp2571
S'environ'
p2572
asbag57
(g78
g59
NtRp2573
(dp2574
g62
(dp2575
g89
g90
ssg71
g2564
sg64
(lp2576
S':'
asbag57
(g78
g59
NtRp2577
(dp2578
g62
(dp2579
sg71
g2564
sg64
(lp2580
g57
(g58
g59
NtRp2581
(dp2582
g62
(dp2583
g70
I4
ssg71
g2577
sg64
(lp2584
g57
(g66
g59
NtRp2585
(dp2586
g62
(dp2587
g70
I3
ssg71
Nsg64
(lp2588
g57
(g73
g59
NtRp2589
(dp2590
g62
(dp2591
sg71
g2585
sg64
(lp2592
g57
(g78
g59
NtRp2593
(dp2594
g62
(dp2595
g82
g83
ssg71
g2589
sg64
(lp2596
S'CONTENT_LENGTH'
p2597
asbag57
(g78
g59
NtRp2598
(dp2599
g62
(dp2600
g89
g90
ssg71
g2589
sg64
(lp2601
S':'
asbag57
(g78
g59
NtRp2602
(dp2603
g62
(dp2604
sg71
g2589
sg64
(lp2605
g57
(g58
g59
NtRp2606
(dp2607
g62
(dp2608
g70
I3
ssg71
g2602
sg64
(lp2609
S'7'
asbasbasbag57
(g73
g59
NtRp2610
(dp2611
g62
(dp2612
sg71
g2585
sg64
(lp2613
g57
(g78
g59
NtRp2614
(dp2615
g62
(dp2616
g82
g83
ssg71
g2610
sg64
(lp2617
S'CONTENT_TYPE'
p2618
asbag57
(g78
g59
NtRp2619
(dp2620
g62
(dp2621
g89
g90
ssg71
g2610
sg64
(lp2622
S':'
asbag57
(g78
g59
NtRp2623
(dp2624
g62
(dp2625
sg71
g2610
sg64
(lp2626
g57
(g58
g59
NtRp2627
(dp2628
g62
(dp2629
g70
I3
ssg71
g2623
sg64
(lp2630
g798
asbasbasbag57
(g73
g59
NtRp2631
(dp2632
g62
(dp2633
sg71
g2585
sg64
(lp2634
g57
(g78
g59
NtRp2635
(dp2636
g62
(dp2637
g82
g83
ssg71
g2631
sg64
(lp2638
S'HTTP_ACCEPT'
p2639
asbag57
(g78
g59
NtRp2640
(dp2641
g62
(dp2642
g89
g90
ssg71
g2631
sg64
(lp2643
S':'
asbag57
(g78
g59
NtRp2644
(dp2645
g62
(dp2646
sg71
g2631
sg64
(lp2647
g57
(g58
g59
NtRp2648
(dp2649
g62
(dp2650
g70
I3
ssg71
g2644
sg64
(lp2651
g885
asbasbasbag57
(g73
g59
NtRp2652
(dp2653
g62
(dp2654
sg71
g2585
sg64
(lp2655
g57
(g78
g59
NtRp2656
(dp2657
g62
(dp2658
g82
g83
ssg71
g2652
sg64
(lp2659
S'HTTP_ACCEPT_ENCODING'
p2660
asbag57
(g78
g59
NtRp2661
(dp2662
g62
(dp2663
g89
g90
ssg71
g2652
sg64
(lp2664
S':'
asbag57
(g78
g59
NtRp2665
(dp2666
g62
(dp2667
sg71
g2652
sg64
(lp2668
g57
(g58
g59
NtRp2669
(dp2670
g62
(dp2671
g70
I3
ssg71
g2665
sg64
(lp2672
g907
asbasbasbag57
(g73
g59
NtRp2673
(dp2674
g62
(dp2675
sg71
g2585
sg64
(lp2676
g57
(g78
g59
NtRp2677
(dp2678
g62
(dp2679
g82
g83
ssg71
g2673
sg64
(lp2680
S'HTTP_ACCEPT_LANGUAGE'
p2681
asbag57
(g78
g59
NtRp2682
(dp2683
g62
(dp2684
g89
g90
ssg71
g2673
sg64
(lp2685
S':'
asbag57
(g78
g59
NtRp2686
(dp2687
g62
(dp2688
sg71
g2673
sg64
(lp2689
g57
(g58
g59
NtRp2690
(dp2691
g62
(dp2692
g70
I3
ssg71
g2686
sg64
(lp2693
g929
asbasbasbag57
(g73
g59
NtRp2694
(dp2695
g62
(dp2696
sg71
g2585
sg64
(lp2697
g57
(g78
g59
NtRp2698
(dp2699
g62
(dp2700
g82
g83
ssg71
g2694
sg64
(lp2701
S'HTTP_CACHE_CONTROL'
p2702
asbag57
(g78
g59
NtRp2703
(dp2704
g62
(dp2705
g89
g90
ssg71
g2694
sg64
(lp2706
S':'
asbag57
(g78
g59
NtRp2707
(dp2708
g62
(dp2709
sg71
g2694
sg64
(lp2710
g57
(g58
g59
NtRp2711
(dp2712
g62
(dp2713
g70
I3
ssg71
g2707
sg64
(lp2714
g951
asbasbasbag57
(g73
g59
NtRp2715
(dp2716
g62
(dp2717
sg71
g2585
sg64
(lp2718
g57
(g78
g59
NtRp2719
(dp2720
g62
(dp2721
g82
g83
ssg71
g2715
sg64
(lp2722
S'HTTP_CONNECTION'
p2723
asbag57
(g78
g59
NtRp2724
(dp2725
g62
(dp2726
g89
g90
ssg71
g2715
sg64
(lp2727
S':'
asbag57
(g78
g59
NtRp2728
(dp2729
g62
(dp2730
sg71
g2715
sg64
(lp2731
g57
(g58
g59
NtRp2732
(dp2733
g62
(dp2734
g70
I3
ssg71
g2728
sg64
(lp2735
g973
asbasbasbag57
(g73
g59
NtRp2736
(dp2737
g62
(dp2738
sg71
g2585
sg64
(lp2739
g57
(g78
g59
NtRp2740
(dp2741
g62
(dp2742
g82
g83
ssg71
g2736
sg64
(lp2743
S'HTTP_CONTENT_LENGTH'
p2744
asbag57
(g78
g59
NtRp2745
(dp2746
g62
(dp2747
g89
g90
ssg71
g2736
sg64
(lp2748
S':'
asbag57
(g78
g59
NtRp2749
(dp2750
g62
(dp2751
sg71
g2736
sg64
(lp2752
g57
(g58
g59
NtRp2753
(dp2754
g62
(dp2755
g70
I3
ssg71
g2749
sg64
(lp2756
S'7'
asbasbasbag57
(g73
g59
NtRp2757
(dp2758
g62
(dp2759
sg71
g2585
sg64
(lp2760
g57
(g78
g59
NtRp2761
(dp2762
g62
(dp2763
g82
g83
ssg71
g2757
sg64
(lp2764
S'HTTP_CONTENT_TYPE'
p2765
asbag57
(g78
g59
NtRp2766
(dp2767
g62
(dp2768
g89
g90
ssg71
g2757
sg64
(lp2769
S':'
asbag57
(g78
g59
NtRp2770
(dp2771
g62
(dp2772
sg71
g2757
sg64
(lp2773
g57
(g58
g59
NtRp2774
(dp2775
g62
(dp2776
g70
I3
ssg71
g2770
sg64
(lp2777
g798
asbasbasbag57
(g73
g59
NtRp2778
(dp2779
g62
(dp2780
sg71
g2585
sg64
(lp2781
g57
(g78
g59
NtRp2782
(dp2783
g62
(dp2784
g82
g83
ssg71
g2778
sg64
(lp2785
S'HTTP_COOKIE'
p2786
asbag57
(g78
g59
NtRp2787
(dp2788
g62
(dp2789
g89
g90
ssg71
g2778
sg64
(lp2790
S':'
asbag57
(g78
g59
NtRp2791
(dp2792
g62
(dp2793
sg71
g2778
sg64
(lp2794
g57
(g58
g59
NtRp2795
(dp2796
g62
(dp2797
g70
I3
ssg71
g2791
sg64
(lp2798
g1037
asbasbasbag57
(g73
g59
NtRp2799
(dp2800
g62
(dp2801
sg71
g2585
sg64
(lp2802
g57
(g78
g59
NtRp2803
(dp2804
g62
(dp2805
g82
g83
ssg71
g2799
sg64
(lp2806
S'HTTP_HOST'
p2807
asbag57
(g78
g59
NtRp2808
(dp2809
g62
(dp2810
g89
g90
ssg71
g2799
sg64
(lp2811
S':'
asbag57
(g78
g59
NtRp2812
(dp2813
g62
(dp2814
sg71
g2799
sg64
(lp2815
g57
(g58
g59
NtRp2816
(dp2817
g62
(dp2818
g70
I3
ssg71
g2812
sg64
(lp2819
g1059
asbasbasbag57
(g73
g59
NtRp2820
(dp2821
g62
(dp2822
sg71
g2585
sg64
(lp2823
g57
(g78
g59
NtRp2824
(dp2825
g62
(dp2826
g82
g83
ssg71
g2820
sg64
(lp2827
S'HTTP_REFERER'
p2828
asbag57
(g78
g59
NtRp2829
(dp2830
g62
(dp2831
g89
g90
ssg71
g2820
sg64
(lp2832
S':'
asbag57
(g78
g59
NtRp2833
(dp2834
g62
(dp2835
sg71
g2820
sg64
(lp2836
g57
(g58
g59
NtRp2837
(dp2838
g62
(dp2839
g70
I3
ssg71
g2833
sg64
(lp2840
g1081
asbasbasbag57
(g73
g59
NtRp2841
(dp2842
g62
(dp2843
sg71
g2585
sg64
(lp2844
g57
(g78
g59
NtRp2845
(dp2846
g62
(dp2847
g82
g83
ssg71
g2841
sg64
(lp2848
S'HTTP_USER_AGENT'
p2849
asbag57
(g78
g59
NtRp2850
(dp2851
g62
(dp2852
g89
g90
ssg71
g2841
sg64
(lp2853
S':'
asbag57
(g78
g59
NtRp2854
(dp2855
g62
(dp2856
sg71
g2841
sg64
(lp2857
g57
(g58
g59
NtRp2858
(dp2859
g62
(dp2860
g70
I3
ssg71
g2854
sg64
(lp2861
g1103
asbasbasbag57
(g73
g59
NtRp2862
(dp2863
g62
(dp2864
sg71
g2585
sg64
(lp2865
g57
(g78
g59
NtRp2866
(dp2867
g62
(dp2868
g82
g83
ssg71
g2862
sg64
(lp2869
S'PATH_INFO'
p2870
asbag57
(g78
g59
NtRp2871
(dp2872
g62
(dp2873
g89
g90
ssg71
g2862
sg64
(lp2874
S':'
asbag57
(g78
g59
NtRp2875
(dp2876
g62
(dp2877
sg71
g2862
sg64
(lp2878
g57
(g58
g59
NtRp2879
(dp2880
g62
(dp2881
g70
I3
ssg71
g2875
sg64
(lp2882
g1257
asbasbasbag57
(g73
g59
NtRp2883
(dp2884
g62
(dp2885
sg71
g2585
sg64
(lp2886
g57
(g78
g59
NtRp2887
(dp2888
g62
(dp2889
g82
g83
ssg71
g2883
sg64
(lp2890
S'QUERY_STRING'
p2891
asbag57
(g78
g59
NtRp2892
(dp2893
g62
(dp2894
g89
g90
ssg71
g2883
sg64
(lp2895
S':'
asbag57
(g78
g59
NtRp2896
(dp2897
g62
(dp2898
sg71
g2883
sg64
(lp2899
g57
(g58
g59
NtRp2900
(dp2901
g62
(dp2902
g70
I3
ssg71
g2896
sg64
(lp2903
S''
asbasbasbag57
(g73
g59
NtRp2904
(dp2905
g62
(dp2906
sg71
g2585
sg64
(lp2907
g57
(g78
g59
NtRp2908
(dp2909
g62
(dp2910
g82
g83
ssg71
g2904
sg64
(lp2911
S'REMOTE_ADDR'
p2912
asbag57
(g78
g59
NtRp2913
(dp2914
g62
(dp2915
g89
g90
ssg71
g2904
sg64
(lp2916
S':'
asbag57
(g78
g59
NtRp2917
(dp2918
g62
(dp2919
sg71
g2904
sg64
(lp2920
g57
(g58
g59
NtRp2921
(dp2922
g62
(dp2923
g70
I3
ssg71
g2917
sg64
(lp2924
g212
asbasbasbag57
(g73
g59
NtRp2925
(dp2926
g62
(dp2927
sg71
g2585
sg64
(lp2928
g57
(g78
g59
NtRp2929
(dp2930
g62
(dp2931
g82
g83
ssg71
g2925
sg64
(lp2932
S'REMOTE_PORT'
p2933
asbag57
(g78
g59
NtRp2934
(dp2935
g62
(dp2936
g89
g90
ssg71
g2925
sg64
(lp2937
S':'
asbag57
(g78
g59
NtRp2938
(dp2939
g62
(dp2940
sg71
g2925
sg64
(lp2941
g57
(g58
g59
NtRp2942
(dp2943
g62
(dp2944
g70
I3
ssg71
g2938
sg64
(lp2945
g1321
asbasbasbag57
(g73
g59
NtRp2946
(dp2947
g62
(dp2948
sg71
g2585
sg64
(lp2949
g57
(g78
g59
NtRp2950
(dp2951
g62
(dp2952
g82
g83
ssg71
g2946
sg64
(lp2953
S'REQUEST_METHOD'
p2954
asbag57
(g78
g59
NtRp2955
(dp2956
g62
(dp2957
g89
g90
ssg71
g2946
sg64
(lp2958
S':'
asbag57
(g78
g59
NtRp2959
(dp2960
g62
(dp2961
sg71
g2946
sg64
(lp2962
g57
(g58
g59
NtRp2963
(dp2964
g62
(dp2965
g70
I3
ssg71
g2959
sg64
(lp2966
g1343
asbasbasbag57
(g73
g59
NtRp2967
(dp2968
g62
(dp2969
sg71
g2585
sg64
(lp2970
g57
(g78
g59
NtRp2971
(dp2972
g62
(dp2973
g82
g83
ssg71
g2967
sg64
(lp2974
S'REQUEST_URI'
p2975
asbag57
(g78
g59
NtRp2976
(dp2977
g62
(dp2978
g89
g90
ssg71
g2967
sg64
(lp2979
S':'
asbag57
(g78
g59
NtRp2980
(dp2981
g62
(dp2982
sg71
g2967
sg64
(lp2983
g57
(g58
g59
NtRp2984
(dp2985
g62
(dp2986
g70
I3
ssg71
g2980
sg64
(lp2987
g1257
asbasbasbag57
(g73
g59
NtRp2988
(dp2989
g62
(dp2990
sg71
g2585
sg64
(lp2991
g57
(g78
g59
NtRp2992
(dp2993
g62
(dp2994
g82
g83
ssg71
g2988
sg64
(lp2995
S'SCRIPT_NAME'
p2996
asbag57
(g78
g59
NtRp2997
(dp2998
g62
(dp2999
g89
g90
ssg71
g2988
sg64
(lp3000
S':'
asbag57
(g78
g59
NtRp3001
(dp3002
g62
(dp3003
sg71
g2988
sg64
(lp3004
g57
(g58
g59
NtRp3005
(dp3006
g62
(dp3007
g70
I3
ssg71
g3001
sg64
(lp3008
S''
asbasbasbag57
(g73
g59
NtRp3009
(dp3010
g62
(dp3011
sg71
g2585
sg64
(lp3012
g57
(g78
g59
NtRp3013
(dp3014
g62
(dp3015
g82
g83
ssg71
g3009
sg64
(lp3016
S'SERVER_NAME'
p3017
asbag57
(g78
g59
NtRp3018
(dp3019
g62
(dp3020
g89
g90
ssg71
g3009
sg64
(lp3021
S':'
asbag57
(g78
g59
NtRp3022
(dp3023
g62
(dp3024
sg71
g3009
sg64
(lp3025
g57
(g58
g59
NtRp3026
(dp3027
g62
(dp3028
g70
I3
ssg71
g3022
sg64
(lp3029
g1407
asbasbasbag57
(g73
g59
NtRp3030
(dp3031
g62
(dp3032
sg71
g2585
sg64
(lp3033
g57
(g78
g59
NtRp3034
(dp3035
g62
(dp3036
g82
g83
ssg71
g3030
sg64
(lp3037
S'SERVER_PORT'
p3038
asbag57
(g78
g59
NtRp3039
(dp3040
g62
(dp3041
g89
g90
ssg71
g3030
sg64
(lp3042
S':'
asbag57
(g78
g59
NtRp3043
(dp3044
g62
(dp3045
sg71
g3030
sg64
(lp3046
g57
(g58
g59
NtRp3047
(dp3048
g62
(dp3049
g70
I3
ssg71
g3043
sg64
(lp3050
g1429
asbasbasbag57
(g73
g59
NtRp3051
(dp3052
g62
(dp3053
sg71
g2585
sg64
(lp3054
g57
(g78
g59
NtRp3055
(dp3056
g62
(dp3057
g82
g83
ssg71
g3051
sg64
(lp3058
S'SERVER_PROTOCOL'
p3059
asbag57
(g78
g59
NtRp3060
(dp3061
g62
(dp3062
g89
g90
ssg71
g3051
sg64
(lp3063
S':'
asbag57
(g78
g59
NtRp3064
(dp3065
g62
(dp3066
sg71
g3051
sg64
(lp3067
g57
(g58
g59
NtRp3068
(dp3069
g62
(dp3070
g70
I3
ssg71
g3064
sg64
(lp3071
g1451
asbasbasbag57
(g73
g59
NtRp3072
(dp3073
g62
(dp3074
sg71
g2585
sg64
(lp3075
g57
(g78
g59
NtRp3076
(dp3077
g62
(dp3078
g82
g83
ssg71
g3072
sg64
(lp3079
S'SERVER_SOFTWARE'
p3080
asbag57
(g78
g59
NtRp3081
(dp3082
g62
(dp3083
g89
g90
ssg71
g3072
sg64
(lp3084
S':'
asbag57
(g78
g59
NtRp3085
(dp3086
g62
(dp3087
sg71
g3072
sg64
(lp3088
g57
(g58
g59
NtRp3089
(dp3090
g62
(dp3091
g70
I3
ssg71
g3085
sg64
(lp3092
g1473
asbasbasbag57
(g73
g59
NtRp3093
(dp3094
g62
(dp3095
sg71
g2585
sg64
(lp3096
g57
(g78
g59
NtRp3097
(dp3098
g62
(dp3099
g82
g83
ssg71
g3093
sg64
(lp3100
S'wsgi.errors'
p3101
asbag57
(g78
g59
NtRp3102
(dp3103
g62
(dp3104
g89
g90
ssg71
g3093
sg64
(lp3105
S':'
asbag57
(g78
g59
NtRp3106
(dp3107
g62
(dp3108
sg71
g3093
sg64
(lp3109
g57
(g58
g59
NtRp3110
(dp3111
g62
(dp3112
g70
I3
ssg71
g3106
sg64
(lp3113
S"<open file '<stderr>', mode 'w' at 0x7fd979b7b270>"
p3114
asbasbasbag57
(g73
g59
NtRp3115
(dp3116
g62
(dp3117
sg71
g2585
sg64
(lp3118
g57
(g78
g59
NtRp3119
(dp3120
g62
(dp3121
g82
g83
ssg71
g3115
sg64
(lp3122
S'wsgi.file_wrapper'
p3123
asbag57
(g78
g59
NtRp3124
(dp3125
g62
(dp3126
g89
g90
ssg71
g3115
sg64
(lp3127
S':'
asbag57
(g78
g59
NtRp3128
(dp3129
g62
(dp3130
sg71
g3115
sg64
(lp3131
g57
(g58
g59
NtRp3132
(dp3133
g62
(dp3134
g70
I3
ssg71
g3128
sg64
(lp3135
S'<class wsgiref.util.FileWrapper at 0x25bc8d8>'
p3136
asbasbasbag57
(g73
g59
NtRp3137
(dp3138
g62
(dp3139
sg71
g2585
sg64
(lp3140
g57
(g78
g59
NtRp3141
(dp3142
g62
(dp3143
g82
g83
ssg71
g3137
sg64
(lp3144
S'wsgi.input'
p3145
asbag57
(g78
g59
NtRp3146
(dp3147
g62
(dp3148
g89
g90
ssg71
g3137
sg64
(lp3149
S':'
asbag57
(g78
g59
NtRp3150
(dp3151
g62
(dp3152
sg71
g3137
sg64
(lp3153
g57
(g58
g59
NtRp3154
(dp3155
g62
(dp3156
g70
I3
ssg71
g3150
sg64
(lp3157
S"<open file '<fdopen>', mode 'w+b' at 0x7fd96c0b2030>"
p3158
asbasbasbag57
(g73
g59
NtRp3159
(dp3160
g62
(dp3161
sg71
g2585
sg64
(lp3162
g57
(g78
g59
NtRp3163
(dp3164
g62
(dp3165
g82
g83
ssg71
g3159
sg64
(lp3166
S'wsgi.multiprocess'
p3167
asbag57
(g78
g59
NtRp3168
(dp3169
g62
(dp3170
g89
g90
ssg71
g3159
sg64
(lp3171
S':'
asbag57
(g78
g59
NtRp3172
(dp3173
g62
(dp3174
sg71
g3159
sg64
(lp3175
g57
(g58
g59
NtRp3176
(dp3177
g62
(dp3178
g70
I3
ssg71
g3172
sg64
(lp3179
g100
asbasbasbag57
(g73
g59
NtRp3180
(dp3181
g62
(dp3182
sg71
g2585
sg64
(lp3183
g57
(g78
g59
NtRp3184
(dp3185
g62
(dp3186
g82
g83
ssg71
g3180
sg64
(lp3187
S'wsgi.multithread'
p3188
asbag57
(g78
g59
NtRp3189
(dp3190
g62
(dp3191
g89
g90
ssg71
g3180
sg64
(lp3192
S':'
asbag57
(g78
g59
NtRp3193
(dp3194
g62
(dp3195
sg71
g3180
sg64
(lp3196
g57
(g58
g59
NtRp3197
(dp3198
g62
(dp3199
g70
I3
ssg71
g3193
sg64
(lp3200
g1690
asbasbasbag57
(g73
g59
NtRp3201
(dp3202
g62
(dp3203
sg71
g2585
sg64
(lp3204
g57
(g78
g59
NtRp3205
(dp3206
g62
(dp3207
g82
g83
ssg71
g3201
sg64
(lp3208
S'wsgi.run_once'
p3209
asbag57
(g78
g59
NtRp3210
(dp3211
g62
(dp3212
g89
g90
ssg71
g3201
sg64
(lp3213
S':'
asbag57
(g78
g59
NtRp3214
(dp3215
g62
(dp3216
sg71
g3201
sg64
(lp3217
g57
(g58
g59
NtRp3218
(dp3219
g62
(dp3220
g70
I3
ssg71
g3214
sg64
(lp3221
g100
asbasbasbag57
(g73
g59
NtRp3222
(dp3223
g62
(dp3224
sg71
g2585
sg64
(lp3225
g57
(g78
g59
NtRp3226
(dp3227
g62
(dp3228
g82
g83
ssg71
g3222
sg64
(lp3229
S'wsgi.url_scheme'
p3230
asbag57
(g78
g59
NtRp3231
(dp3232
g62
(dp3233
g89
g90
ssg71
g3222
sg64
(lp3234
S':'
asbag57
(g78
g59
NtRp3235
(dp3236
g62
(dp3237
sg71
g3222
sg64
(lp3238
g57
(g58
g59
NtRp3239
(dp3240
g62
(dp3241
g70
I3
ssg71
g3235
sg64
(lp3242
g1733
asbasbasbag57
(g73
g59
NtRp3243
(dp3244
g62
(dp3245
sg71
g2585
sg64
(lp3246
g57
(g78
g59
NtRp3247
(dp3248
g62
(dp3249
g82
g83
ssg71
g3243
sg64
(lp3250
S'wsgi.version'
p3251
asbag57
(g78
g59
NtRp3252
(dp3253
g62
(dp3254
g89
g90
ssg71
g3243
sg64
(lp3255
S':'
asbag57
(g78
g59
NtRp3256
(dp3257
g62
(dp3258
sg71
g3243
sg64
(lp3259
g57
(g58
g59
NtRp3260
(dp3261
g62
(dp3262
g70
I3
ssg71
g3256
sg64
(lp3263
S'1'
asbasbasbasbasbasbasbasbasbasbasbasbasbsS'frames'
p3264
(lp3265
(dp3266
S'file'
p3267
S'/home/urvashi/Desktop/WEB2PY/web2py/gluon/restricted.py'
p3268
sS'dump'
p3269
(dp3270
S'environment'
p3271
S"{'A': <class 'gluon.html.A'>, 'Auth': <class 'gluon.tools.Auth'>, 'B': <class 'gluon.html.B'>, 'BEAUTIFY': <class 'gluon.html.BEAUTIFY'>, 'BODY': <class 'gluon.html.BODY'>, 'BR': <class 'gluon.html.BR'>, 'BUTTON': <class 'gluon.html.BUTTON'>, 'CAT': <class 'gluon.html.CAT'>, 'CENTER': <class 'gluon.html.CENTER'>, 'CLEANUP': <class 'gluon.validators.CLEANUP'>, ...}"
p3272
sS'ccode'
p3273
S'<code object <module> at 0x7fd950075f30, file "/...plications/SSAD/controllers/default.py", line 12>'
p3274
ssS'lnum'
p3275
I212
sS'lines'
p3276
(dp3277
I207
S'    try:'
p3278
sI208
S'        if isinstance(code, types.CodeType):'
p3279
sI209
S'            ccode = code'
p3280
sI210
S'        else:'
p3281
sI211
S'            ccode = compile2(code, layer)'
p3282
sI212
S'        exec ccode in environment'
p3283
sI213
S'    except HTTP:'
p3284
sI214
S'        raise'
p3285
sI215
S'    except RestrictedError:'
p3286
sI216
S'        # do not encapsulate (obfuscate) the original RestrictedError'
p3287
ssS'call'
p3288
S"(code='# -*- coding: utf-8 -*-\\n# this file is released ...m=crud())\\n\\nresponse._vars=response._caller(like)\\n', environment={'A': <class 'gluon.html.A'>, 'Auth': <class 'gluon.tools.Auth'>, 'B': <class 'gluon.html.B'>, 'BEAUTIFY': <class 'gluon.html.BEAUTIFY'>, 'BODY': <class 'gluon.html.BODY'>, 'BR': <class 'gluon.html.BR'>, 'BUTTON': <class 'gluon.html.BUTTON'>, 'CAT': <class 'gluon.html.CAT'>, 'CENTER': <class 'gluon.html.CENTER'>, 'CLEANUP': <class 'gluon.validators.CLEANUP'>, ...}, layer='/home/urvashi/Desktop/WEB2PY/web2py/applications/SSAD/controllers/default.py')"
p3289
sS'func'
p3290
S'restricted'
p3291
sa(dp3292
g3267
S'/home/urvashi/Desktop/WEB2PY/web2py/applications/SSAD/controllers/default.py'
p3293
sg3269
(dp3294
sg3275
I339
sg3276
(dp3295
I328
S'    http://..../[app]/default/data/update/[table]/[id]'
p3296
sI329
S'    http://..../[app]/default/data/delete/[table]/[id]'
p3297
sI330
S'    http://..../[app]/default/data/select/[table]'
p3298
sI331
S'    http://..../[app]/default/data/search/[table]'
p3299
sI332
S'    but URLs must be signed, i.e. linked with'
p3300
sI333
S"      A('table',_href=URL('data/tables',user_signature=True))"
p3301
sI334
S'    or with the signed load operator'
p3302
sI335
S"      LOAD('default','data.load',args='tables',ajax=True,user_signature=True)"
p3303
sI336
S'    """'
p3304
sI337
S'    return dict(form=crud())'
p3305
ssg3288
S'()'
p3306
sg3290
S'<module>'
p3307
sa(dp3308
g3267
S'/home/urvashi/Desktop/WEB2PY/web2py/gluon/globals.py'
p3309
sg3269
(dp3310
S'self'
p3311
S'undefined'
p3312
sS'f'
S'<function like>'
p3313
ssg3275
I193
sg3276
(dp3314
I192
S'        self._vars = None'
p3315
sI193
S'        self._caller = lambda f: f()'
p3316
sI194
S'        self._view_environment = None'
p3317
sI195
S'        self._custom_commit = None'
p3318
sI196
S'        self._custom_rollback = None'
p3319
sI197
S''
sI188
S'        self.menu = []             # used by the default view layout'
p3320
sI189
S'        self.files = []            # used by web2py_ajax.html'
p3321
sI190
S'        self.generic_patterns = []  # patterns to allow generic views'
p3322
sI191
S"        self.delimiters = ('{{', '}}')"
p3323
ssg3288
S'(f=<function like>)'
p3324
sg3290
S'<lambda>'
p3325
sa(dp3326
g3267
S'/home/urvashi/Desktop/WEB2PY/web2py/applications/SSAD/controllers/default.py'
p3327
sg3269
(dp3328
S'db.links'
p3329
S'<Table links (id,url,username,heading,category,date_posted,time_posted,likes,dislikes,points)>'
p3330
sS'i'
S"'12'"
p3331
sS').select'
p3332
g3312
sS'db.links.id'
p3333
S'<gluon.dal.Field object>'
p3334
sS'p'
g3312
sS'global db'
p3335
S'<DAL uri="sqlite://storage.sqlite">'
p3336
sS'builtinint'
p3337
S"<type 'int'>"
p3338
ssg3275
I99
sg3276
(dp3339
I96
S"             l=int(lik[0]['links.likes'])"
p3340
sI97
S'             l=l+1'
p3341
sI98
S'             db(db.links.id==i).update(likes=l)'
p3342
sI99
S"             p=int(db(db.links.id==i).select('links.points'))"
p3343
sI100
S'             p=p+5'
p3344
sI101
S'             db(db.links.id==i).update(points=p)'
p3345
sI102
S'             db.liked.insert(usr=a,link=i)'
p3346
sI103
S'             message = "post liked"'
p3347
sI94
S'        if flag==0:'
p3348
sI95
S"             lik=db(db.links.id==i).select('links.likes')"
p3349
ssg3288
S'()'
p3350
sg3290
S'like'
p3351
sasS'pyver'
p3352
S'Python 2.7.3: /usr/bin/python'
p3353
sS'session'
p3354
g57
(g58
g59
NtRp3355
(dp3356
g62
(dp3357
sg64
(lp3358
g57
(g66
g59
NtRp3359
(dp3360
g62
(dp3361
g70
I5
ssg71
Nsg64
(lp3362
g57
(g73
g59
NtRp3363
(dp3364
g62
(dp3365
sg71
g3359
sg64
(lp3366
g57
(g78
g59
NtRp3367
(dp3368
g62
(dp3369
g82
g83
ssg71
g3363
sg64
(lp3370
S'auth'
p3371
asbag57
(g78
g59
NtRp3372
(dp3373
g62
(dp3374
g89
g90
ssg71
g3363
sg64
(lp3375
S':'
asbag57
(g78
g59
NtRp3376
(dp3377
g62
(dp3378
sg71
g3363
sg64
(lp3379
g57
(g58
g59
NtRp3380
(dp3381
g62
(dp3382
g70
I5
ssg71
g3376
sg64
(lp3383
g57
(g66
g59
NtRp3384
(dp3385
g62
(dp3386
g70
I4
ssg71
Nsg64
(lp3387
g57
(g73
g59
NtRp3388
(dp3389
g62
(dp3390
sg71
g3384
sg64
(lp3391
g57
(g78
g59
NtRp3392
(dp3393
g62
(dp3394
g82
g83
ssg71
g3388
sg64
(lp3395
S'expiration'
p3396
asbag57
(g78
g59
NtRp3397
(dp3398
g62
(dp3399
g89
g90
ssg71
g3388
sg64
(lp3400
S':'
asbag57
(g78
g59
NtRp3401
(dp3402
g62
(dp3403
sg71
g3388
sg64
(lp3404
g57
(g58
g59
NtRp3405
(dp3406
g62
(dp3407
g70
I4
ssg71
g3401
sg64
(lp3408
S'3600'
p3409
asbasbasbag57
(g73
g59
NtRp3410
(dp3411
g62
(dp3412
sg71
g3384
sg64
(lp3413
g57
(g78
g59
NtRp3414
(dp3415
g62
(dp3416
g82
g83
ssg71
g3410
sg64
(lp3417
S'hmac_key'
p3418
asbag57
(g78
g59
NtRp3419
(dp3420
g62
(dp3421
g89
g90
ssg71
g3410
sg64
(lp3422
S':'
asbag57
(g78
g59
NtRp3423
(dp3424
g62
(dp3425
sg71
g3410
sg64
(lp3426
g57
(g58
g59
NtRp3427
(dp3428
g62
(dp3429
g70
I4
ssg71
g3423
sg64
(lp3430
S'3b876b8b-bdae-402a-8299-50b5f74a1865'
p3431
asbasbasbag57
(g73
g59
NtRp3432
(dp3433
g62
(dp3434
sg71
g3384
sg64
(lp3435
g57
(g78
g59
NtRp3436
(dp3437
g62
(dp3438
g82
g83
ssg71
g3432
sg64
(lp3439
S'last_visit'
p3440
asbag57
(g78
g59
NtRp3441
(dp3442
g62
(dp3443
g89
g90
ssg71
g3432
sg64
(lp3444
S':'
asbag57
(g78
g59
NtRp3445
(dp3446
g62
(dp3447
sg71
g3432
sg64
(lp3448
g57
(g58
g59
NtRp3449
(dp3450
g62
(dp3451
g70
I4
ssg71
g3445
sg64
(lp3452
S'datetime.datetime(2013, 8, 29, 16, 30, 9, 976129)'
p3453
asbasbasbag57
(g73
g59
NtRp3454
(dp3455
g62
(dp3456
sg71
g3384
sg64
(lp3457
g57
(g78
g59
NtRp3458
(dp3459
g62
(dp3460
g82
g83
ssg71
g3454
sg64
(lp3461
S'remember'
p3462
asbag57
(g78
g59
NtRp3463
(dp3464
g62
(dp3465
g89
g90
ssg71
g3454
sg64
(lp3466
S':'
asbag57
(g78
g59
NtRp3467
(dp3468
g62
(dp3469
sg71
g3454
sg64
(lp3470
g57
(g58
g59
NtRp3471
(dp3472
g62
(dp3473
g70
I4
ssg71
g3467
sg64
(lp3474
g100
asbasbasbag57
(g73
g59
NtRp3475
(dp3476
g62
(dp3477
sg71
g3384
sg64
(lp3478
g57
(g78
g59
NtRp3479
(dp3480
g62
(dp3481
g82
g83
ssg71
g3475
sg64
(lp3482
S'user'
p3483
asbag57
(g78
g59
NtRp3484
(dp3485
g62
(dp3486
g89
g90
ssg71
g3475
sg64
(lp3487
S':'
asbag57
(g78
g59
NtRp3488
(dp3489
g62
(dp3490
sg71
g3475
sg64
(lp3491
g57
(g58
g59
NtRp3492
(dp3493
g62
(dp3494
g70
I4
ssg71
g3488
sg64
(lp3495
g57
(g66
g59
NtRp3496
(dp3497
g62
(dp3498
g70
I3
ssg71
Nsg64
(lp3499
g57
(g73
g59
NtRp3500
(dp3501
g62
(dp3502
sg71
g3496
sg64
(lp3503
g57
(g78
g59
NtRp3504
(dp3505
g62
(dp3506
g82
g83
ssg71
g3500
sg64
(lp3507
S'email'
p3508
asbag57
(g78
g59
NtRp3509
(dp3510
g62
(dp3511
g89
g90
ssg71
g3500
sg64
(lp3512
S':'
asbag57
(g78
g59
NtRp3513
(dp3514
g62
(dp3515
sg71
g3500
sg64
(lp3516
g57
(g58
g59
NtRp3517
(dp3518
g62
(dp3519
g70
I3
ssg71
g3513
sg64
(lp3520
S'urvashi.senha@students.iiit.ac.in'
p3521
asbasbasbag57
(g73
g59
NtRp3522
(dp3523
g62
(dp3524
sg71
g3496
sg64
(lp3525
g57
(g78
g59
NtRp3526
(dp3527
g62
(dp3528
g82
g83
ssg71
g3522
sg64
(lp3529
S'first_name'
p3530
asbag57
(g78
g59
NtRp3531
(dp3532
g62
(dp3533
g89
g90
ssg71
g3522
sg64
(lp3534
S':'
asbag57
(g78
g59
NtRp3535
(dp3536
g62
(dp3537
sg71
g3522
sg64
(lp3538
g57
(g58
g59
NtRp3539
(dp3540
g62
(dp3541
g70
I3
ssg71
g3535
sg64
(lp3542
S'Urvashi'
p3543
asbasbasbag57
(g73
g59
NtRp3544
(dp3545
g62
(dp3546
sg71
g3496
sg64
(lp3547
g57
(g78
g59
NtRp3548
(dp3549
g62
(dp3550
g82
g83
ssg71
g3544
sg64
(lp3551
S'id'
p3552
asbag57
(g78
g59
NtRp3553
(dp3554
g62
(dp3555
g89
g90
ssg71
g3544
sg64
(lp3556
S':'
asbag57
(g78
g59
NtRp3557
(dp3558
g62
(dp3559
sg71
g3544
sg64
(lp3560
g57
(g58
g59
NtRp3561
(dp3562
g62
(dp3563
g70
I3
ssg71
g3557
sg64
(lp3564
S'3'
asbasbasbag57
(g73
g59
NtRp3565
(dp3566
g62
(dp3567
sg71
g3496
sg64
(lp3568
g57
(g78
g59
NtRp3569
(dp3570
g62
(dp3571
g82
g83
ssg71
g3565
sg64
(lp3572
S'last_name'
p3573
asbag57
(g78
g59
NtRp3574
(dp3575
g62
(dp3576
g89
g90
ssg71
g3565
sg64
(lp3577
S':'
asbag57
(g78
g59
NtRp3578
(dp3579
g62
(dp3580
sg71
g3565
sg64
(lp3581
g57
(g58
g59
NtRp3582
(dp3583
g62
(dp3584
g70
I3
ssg71
g3578
sg64
(lp3585
S'Senha'
p3586
asbasbasbag57
(g73
g59
NtRp3587
(dp3588
g62
(dp3589
sg71
g3496
sg64
(lp3590
g57
(g78
g59
NtRp3591
(dp3592
g62
(dp3593
g82
g83
ssg71
g3587
sg64
(lp3594
S'registration_id'
p3595
asbag57
(g78
g59
NtRp3596
(dp3597
g62
(dp3598
g89
g90
ssg71
g3587
sg64
(lp3599
S':'
asbag57
(g78
g59
NtRp3600
(dp3601
g62
(dp3602
sg71
g3587
sg64
(lp3603
g57
(g58
g59
NtRp3604
(dp3605
g62
(dp3606
g70
I3
ssg71
g3600
sg64
(lp3607
S''
asbasbasbag57
(g73
g59
NtRp3608
(dp3609
g62
(dp3610
sg71
g3496
sg64
(lp3611
g57
(g78
g59
NtRp3612
(dp3613
g62
(dp3614
g82
g83
ssg71
g3608
sg64
(lp3615
S'registration_key'
p3616
asbag57
(g78
g59
NtRp3617
(dp3618
g62
(dp3619
g89
g90
ssg71
g3608
sg64
(lp3620
S':'
asbag57
(g78
g59
NtRp3621
(dp3622
g62
(dp3623
sg71
g3608
sg64
(lp3624
g57
(g58
g59
NtRp3625
(dp3626
g62
(dp3627
g70
I3
ssg71
g3621
sg64
(lp3628
S''
asbasbasbag57
(g73
g59
NtRp3629
(dp3630
g62
(dp3631
sg71
g3496
sg64
(lp3632
g57
(g78
g59
NtRp3633
(dp3634
g62
(dp3635
g82
g83
ssg71
g3629
sg64
(lp3636
S'reset_password_key'
p3637
asbag57
(g78
g59
NtRp3638
(dp3639
g62
(dp3640
g89
g90
ssg71
g3629
sg64
(lp3641
S':'
asbag57
(g78
g59
NtRp3642
(dp3643
g62
(dp3644
sg71
g3629
sg64
(lp3645
g57
(g58
g59
NtRp3646
(dp3647
g62
(dp3648
g70
I3
ssg71
g3642
sg64
(lp3649
S''
asbasbasbasbasbasbasbag57
(g73
g59
NtRp3650
(dp3651
g62
(dp3652
sg71
g3384
sg64
(lp3653
g57
(g78
g59
NtRp3654
(dp3655
g62
(dp3656
g82
g83
ssg71
g3650
sg64
(lp3657
S'user_groups'
p3658
asbag57
(g78
g59
NtRp3659
(dp3660
g62
(dp3661
g89
g90
ssg71
g3650
sg64
(lp3662
S':'
asbag57
(g78
g59
NtRp3663
(dp3664
g62
(dp3665
sg71
g3650
sg64
(lp3666
g57
(g58
g59
NtRp3667
(dp3668
g62
(dp3669
g70
I4
ssg71
g3663
sg64
(lp3670
g57
(g66
g59
NtRp3671
(dp3672
g62
(dp3673
g70
I3
ssg71
Nsg64
(lp3674
g57
(g73
g59
NtRp3675
(dp3676
g62
(dp3677
sg71
g3671
sg64
(lp3678
g57
(g78
g59
NtRp3679
(dp3680
g62
(dp3681
g82
g83
ssg71
g3675
sg64
(lp3682
S'1'
asbag57
(g78
g59
NtRp3683
(dp3684
g62
(dp3685
g89
g90
ssg71
g3675
sg64
(lp3686
S':'
asbag57
(g78
g59
NtRp3687
(dp3688
g62
(dp3689
sg71
g3675
sg64
(lp3690
g57
(g58
g59
NtRp3691
(dp3692
g62
(dp3693
g70
I3
ssg71
g3687
sg64
(lp3694
S'user_3'
p3695
asbasbasbasbasbasbasbasbasbasbasbag57
(g73
g59
NtRp3696
(dp3697
g62
(dp3698
sg71
g3359
sg64
(lp3699
g57
(g78
g59
NtRp3700
(dp3701
g62
(dp3702
g82
g83
ssg71
g3696
sg64
(lp3703
S'flash'
p3704
asbag57
(g78
g59
NtRp3705
(dp3706
g62
(dp3707
g89
g90
ssg71
g3696
sg64
(lp3708
S':'
asbag57
(g78
g59
NtRp3709
(dp3710
g62
(dp3711
sg71
g3696
sg64
(lp3712
g57
(g58
g59
NtRp3713
(dp3714
g62
(dp3715
g70
I5
ssg71
g3709
sg64
(lp3716
S'None'
p3717
asbasbasbag57
(g73
g59
NtRp3718
(dp3719
g62
(dp3720
sg71
g3359
sg64
(lp3721
g57
(g78
g59
NtRp3722
(dp3723
g62
(dp3724
g82
g83
ssg71
g3718
sg64
(lp3725
S'last_orderby'
p3726
asbag57
(g78
g59
NtRp3727
(dp3728
g62
(dp3729
g89
g90
ssg71
g3718
sg64
(lp3730
S':'
asbag57
(g78
g59
NtRp3731
(dp3732
g62
(dp3733
sg71
g3718
sg64
(lp3734
g57
(g58
g59
NtRp3735
(dp3736
g62
(dp3737
g70
I5
ssg71
g3731
sg64
(lp3738
S'None'
p3739
asbasbasbag57
(g73
g59
NtRp3740
(dp3741
g62
(dp3742
sg71
g3359
sg64
(lp3743
g57
(g78
g59
NtRp3744
(dp3745
g62
(dp3746
g82
g83
ssg71
g3740
sg64
(lp3747
S'last_query'
p3748
asbag57
(g78
g59
NtRp3749
(dp3750
g62
(dp3751
g89
g90
ssg71
g3740
sg64
(lp3752
S':'
asbag57
(g78
g59
NtRp3753
(dp3754
g62
(dp3755
sg71
g3740
sg64
(lp3756
g57
(g58
g59
NtRp3757
(dp3758
g62
(dp3759
g70
I5
ssg71
g3753
sg64
(lp3760
S'db.links.id>0'
p3761
asbasbasbasbasbsS'etype'
p3762
S"<type 'exceptions.TypeError'>"
p3763
sS'date'
p3764
S'Thu Aug 29 16:33:07 2013'
p3765
sS'response'
p3766
g57
(g58
g59
NtRp3767
(dp3768
g62
(dp3769
sg64
(lp3770
g57
(g66
g59
NtRp3771
(dp3772
g62
(dp3773
g70
I5
ssg71
Nsg64
(lp3774
g57
(g73
g59
NtRp3775
(dp3776
g62
(dp3777
sg71
g3771
sg64
(lp3778
g57
(g78
g59
NtRp3779
(dp3780
g62
(dp3781
g82
g83
ssg71
g3775
sg64
(lp3782
g155
asbag57
(g78
g59
NtRp3783
(dp3784
g62
(dp3785
g89
g90
ssg71
g3775
sg64
(lp3786
S':'
asbag57
(g78
g59
NtRp3787
(dp3788
g62
(dp3789
sg71
g3775
sg64
(lp3790
g57
(g58
g59
NtRp3791
(dp3792
g62
(dp3793
g70
I5
ssg71
g3787
sg64
(lp3794
S'<cStringIO.StringO object at 0x7fd970556e68>'
p3795
asbasbasbag57
(g73
g59
NtRp3796
(dp3797
g62
(dp3798
sg71
g3771
sg64
(lp3799
g57
(g78
g59
NtRp3800
(dp3801
g62
(dp3802
g82
g83
ssg71
g3796
sg64
(lp3803
g243
asbag57
(g78
g59
NtRp3804
(dp3805
g62
(dp3806
g89
g90
ssg71
g3796
sg64
(lp3807
S':'
asbag57
(g78
g59
NtRp3808
(dp3809
g62
(dp3810
sg71
g3796
sg64
(lp3811
g57
(g58
g59
NtRp3812
(dp3813
g62
(dp3814
g70
I5
ssg71
g3808
sg64
(lp3815
g57
(g66
g59
NtRp3816
(dp3817
g62
(dp3818
g70
I4
ssg71
Nsg64
(lp3819
g57
(g73
g59
NtRp3820
(dp3821
g62
(dp3822
sg71
g3816
sg64
(lp3823
g57
(g78
g59
NtRp3824
(dp3825
g62
(dp3826
g82
g83
ssg71
g3820
sg64
(lp3827
S'session_id_ssad'
p3828
asbag57
(g78
g59
NtRp3829
(dp3830
g62
(dp3831
g89
g90
ssg71
g3820
sg64
(lp3832
S':'
asbag57
(g78
g59
NtRp3833
(dp3834
g62
(dp3835
sg71
g3820
sg64
(lp3836
g57
(g58
g59
NtRp3837
(dp3838
g62
(dp3839
g70
I4
ssg71
g3833
sg64
(lp3840
g475
ag57
(g66
g59
NtRp3841
(dp3842
g62
(dp3843
g70
I3
ssg71
Nsg64
(lp3844
g57
(g73
g59
NtRp3845
(dp3846
g62
(dp3847
sg71
g3841
sg64
(lp3848
g57
(g78
g59
NtRp3849
(dp3850
g62
(dp3851
g82
g83
ssg71
g3845
sg64
(lp3852
g294
asbag57
(g78
g59
NtRp3853
(dp3854
g62
(dp3855
g89
g90
ssg71
g3845
sg64
(lp3856
S':'
asbag57
(g78
g59
NtRp3857
(dp3858
g62
(dp3859
sg71
g3845
sg64
(lp3860
g57
(g58
g59
NtRp3861
(dp3862
g62
(dp3863
g70
I3
ssg71
g3857
sg64
(lp3864
S''
asbasbasbag57
(g73
g59
NtRp3865
(dp3866
g62
(dp3867
sg71
g3841
sg64
(lp3868
g57
(g78
g59
NtRp3869
(dp3870
g62
(dp3871
g82
g83
ssg71
g3865
sg64
(lp3872
g315
asbag57
(g78
g59
NtRp3873
(dp3874
g62
(dp3875
g89
g90
ssg71
g3865
sg64
(lp3876
S':'
asbag57
(g78
g59
NtRp3877
(dp3878
g62
(dp3879
sg71
g3865
sg64
(lp3880
g57
(g58
g59
NtRp3881
(dp3882
g62
(dp3883
g70
I3
ssg71
g3877
sg64
(lp3884
S''
asbasbasbag57
(g73
g59
NtRp3885
(dp3886
g62
(dp3887
sg71
g3841
sg64
(lp3888
g57
(g78
g59
NtRp3889
(dp3890
g62
(dp3891
g82
g83
ssg71
g3885
sg64
(lp3892
g336
asbag57
(g78
g59
NtRp3893
(dp3894
g62
(dp3895
g89
g90
ssg71
g3885
sg64
(lp3896
S':'
asbag57
(g78
g59
NtRp3897
(dp3898
g62
(dp3899
sg71
g3885
sg64
(lp3900
g57
(g58
g59
NtRp3901
(dp3902
g62
(dp3903
g70
I3
ssg71
g3897
sg64
(lp3904
S''
asbasbasbag57
(g73
g59
NtRp3905
(dp3906
g62
(dp3907
sg71
g3841
sg64
(lp3908
g57
(g78
g59
NtRp3909
(dp3910
g62
(dp3911
g82
g83
ssg71
g3905
sg64
(lp3912
g357
asbag57
(g78
g59
NtRp3913
(dp3914
g62
(dp3915
g89
g90
ssg71
g3905
sg64
(lp3916
S':'
asbag57
(g78
g59
NtRp3917
(dp3918
g62
(dp3919
sg71
g3905
sg64
(lp3920
g57
(g58
g59
NtRp3921
(dp3922
g62
(dp3923
g70
I3
ssg71
g3917
sg64
(lp3924
S''
asbasbasbag57
(g73
g59
NtRp3925
(dp3926
g62
(dp3927
sg71
g3841
sg64
(lp3928
g57
(g78
g59
NtRp3929
(dp3930
g62
(dp3931
g82
g83
ssg71
g3925
sg64
(lp3932
g378
asbag57
(g78
g59
NtRp3933
(dp3934
g62
(dp3935
g89
g90
ssg71
g3925
sg64
(lp3936
S':'
asbag57
(g78
g59
NtRp3937
(dp3938
g62
(dp3939
sg71
g3925
sg64
(lp3940
g57
(g58
g59
NtRp3941
(dp3942
g62
(dp3943
g70
I3
ssg71
g3937
sg64
(lp3944
S''
asbasbasbag57
(g73
g59
NtRp3945
(dp3946
g62
(dp3947
sg71
g3841
sg64
(lp3948
g57
(g78
g59
NtRp3949
(dp3950
g62
(dp3951
g82
g83
ssg71
g3945
sg64
(lp3952
g399
asbag57
(g78
g59
NtRp3953
(dp3954
g62
(dp3955
g89
g90
ssg71
g3945
sg64
(lp3956
S':'
asbag57
(g78
g59
NtRp3957
(dp3958
g62
(dp3959
sg71
g3945
sg64
(lp3960
g57
(g58
g59
NtRp3961
(dp3962
g62
(dp3963
g70
I3
ssg71
g3957
sg64
(lp3964
S'/'
asbasbasbag57
(g73
g59
NtRp3965
(dp3966
g62
(dp3967
sg71
g3841
sg64
(lp3968
g57
(g78
g59
NtRp3969
(dp3970
g62
(dp3971
g82
g83
ssg71
g3965
sg64
(lp3972
g420
asbag57
(g78
g59
NtRp3973
(dp3974
g62
(dp3975
g89
g90
ssg71
g3965
sg64
(lp3976
S':'
asbag57
(g78
g59
NtRp3977
(dp3978
g62
(dp3979
sg71
g3965
sg64
(lp3980
g57
(g58
g59
NtRp3981
(dp3982
g62
(dp3983
g70
I3
ssg71
g3977
sg64
(lp3984
S''
asbasbasbag57
(g73
g59
NtRp3985
(dp3986
g62
(dp3987
sg71
g3841
sg64
(lp3988
g57
(g78
g59
NtRp3989
(dp3990
g62
(dp3991
g82
g83
ssg71
g3985
sg64
(lp3992
g441
asbag57
(g78
g59
NtRp3993
(dp3994
g62
(dp3995
g89
g90
ssg71
g3985
sg64
(lp3996
S':'
asbag57
(g78
g59
NtRp3997
(dp3998
g62
(dp3999
sg71
g3985
sg64
(lp4000
g57
(g58
g59
NtRp4001
(dp4002
g62
(dp4003
g70
I3
ssg71
g3997
sg64
(lp4004
S''
asbasbasbasbasbasbasbasbasbasbasbag57
(g73
g59
NtRp4005
(dp4006
g62
(dp4007
sg71
g3771
sg64
(lp4008
g57
(g78
g59
NtRp4009
(dp4010
g62
(dp4011
g82
g83
ssg71
g4005
sg64
(lp4012
S'delimiters'
p4013
asbag57
(g78
g59
NtRp4014
(dp4015
g62
(dp4016
g89
g90
ssg71
g4005
sg64
(lp4017
S':'
asbag57
(g78
g59
NtRp4018
(dp4019
g62
(dp4020
sg71
g4005
sg64
(lp4021
g57
(g58
g59
NtRp4022
(dp4023
g62
(dp4024
g70
I5
ssg71
g4018
sg64
(lp4025
g57
(g66
g59
NtRp4026
(dp4027
g62
(dp4028
g70
I4
ssg71
Nsg64
(lp4029
g57
(g73
g59
NtRp4030
(dp4031
g62
(dp4032
sg71
g4026
sg64
(lp4033
g57
(g78
g59
NtRp4034
(dp4035
g62
(dp4036
sg71
g4030
sg64
(lp4037
g57
(g58
g59
NtRp4038
(dp4039
g62
(dp4040
g70
I4
ssg71
g4034
sg64
(lp4041
S'{{'
p4042
asbasbasbag57
(g73
g59
NtRp4043
(dp4044
g62
(dp4045
sg71
g4026
sg64
(lp4046
g57
(g78
g59
NtRp4047
(dp4048
g62
(dp4049
sg71
g4043
sg64
(lp4050
g57
(g58
g59
NtRp4051
(dp4052
g62
(dp4053
g70
I4
ssg71
g4047
sg64
(lp4054
S'}}'
p4055
asbasbasbasbasbasbasbag57
(g73
g59
NtRp4056
(dp4057
g62
(dp4058
sg71
g3771
sg64
(lp4059
g57
(g78
g59
NtRp4060
(dp4061
g62
(dp4062
g82
g83
ssg71
g4056
sg64
(lp4063
S'files'
p4064
asbag57
(g78
g59
NtRp4065
(dp4066
g62
(dp4067
g89
g90
ssg71
g4056
sg64
(lp4068
S':'
asbag57
(g78
g59
NtRp4069
(dp4070
g62
(dp4071
sg71
g4056
sg64
(lp4072
g57
(g58
g59
NtRp4073
(dp4074
g62
(dp4075
g70
I5
ssg71
g4069
sg64
(lp4076
g57
(g66
g59
NtRp4077
(dp4078
g62
(dp4079
g70
I4
ssg71
Nsg64
(lp4080
sbasbasbasbag57
(g73
g59
NtRp4081
(dp4082
g62
(dp4083
sg71
g3771
sg64
(lp4084
g57
(g78
g59
NtRp4085
(dp4086
g62
(dp4087
g82
g83
ssg71
g4081
sg64
(lp4088
S'flash'
p4089
asbag57
(g78
g59
NtRp4090
(dp4091
g62
(dp4092
g89
g90
ssg71
g4081
sg64
(lp4093
S':'
asbag57
(g78
g59
NtRp4094
(dp4095
g62
(dp4096
sg71
g4081
sg64
(lp4097
g57
(g58
g59
NtRp4098
(dp4099
g62
(dp4100
g70
I5
ssg71
g4094
sg64
(lp4101
S''
asbasbasbag57
(g73
g59
NtRp4102
(dp4103
g62
(dp4104
sg71
g3771
sg64
(lp4105
g57
(g78
g59
NtRp4106
(dp4107
g62
(dp4108
g82
g83
ssg71
g4102
sg64
(lp4109
S'generic_patterns'
p4110
asbag57
(g78
g59
NtRp4111
(dp4112
g62
(dp4113
g89
g90
ssg71
g4102
sg64
(lp4114
S':'
asbag57
(g78
g59
NtRp4115
(dp4116
g62
(dp4117
sg71
g4102
sg64
(lp4118
g57
(g58
g59
NtRp4119
(dp4120
g62
(dp4121
g70
I5
ssg71
g4115
sg64
(lp4122
g57
(g66
g59
NtRp4123
(dp4124
g62
(dp4125
g70
I4
ssg71
Nsg64
(lp4126
g57
(g73
g59
NtRp4127
(dp4128
g62
(dp4129
sg71
g4123
sg64
(lp4130
g57
(g78
g59
NtRp4131
(dp4132
g62
(dp4133
sg71
g4127
sg64
(lp4134
g57
(g58
g59
NtRp4135
(dp4136
g62
(dp4137
g70
I4
ssg71
g4131
sg64
(lp4138
S'*'
asbasbasbasbasbasbasbag57
(g73
g59
NtRp4139
(dp4140
g62
(dp4141
sg71
g3771
sg64
(lp4142
g57
(g78
g59
NtRp4143
(dp4144
g62
(dp4145
g82
g83
ssg71
g4139
sg64
(lp4146
S'google_analytics_id'
p4147
asbag57
(g78
g59
NtRp4148
(dp4149
g62
(dp4150
g89
g90
ssg71
g4139
sg64
(lp4151
S':'
asbag57
(g78
g59
NtRp4152
(dp4153
g62
(dp4154
sg71
g4139
sg64
(lp4155
g57
(g58
g59
NtRp4156
(dp4157
g62
(dp4158
g70
I5
ssg71
g4152
sg64
(lp4159
S'None'
p4160
asbasbasbag57
(g73
g59
NtRp4161
(dp4162
g62
(dp4163
sg71
g3771
sg64
(lp4164
g57
(g78
g59
NtRp4165
(dp4166
g62
(dp4167
g82
g83
ssg71
g4161
sg64
(lp4168
S'headers'
p4169
asbag57
(g78
g59
NtRp4170
(dp4171
g62
(dp4172
g89
g90
ssg71
g4161
sg64
(lp4173
S':'
asbag57
(g78
g59
NtRp4174
(dp4175
g62
(dp4176
sg71
g4161
sg64
(lp4177
g57
(g58
g59
NtRp4178
(dp4179
g62
(dp4180
g70
I5
ssg71
g4174
sg64
(lp4181
g57
(g66
g59
NtRp4182
(dp4183
g62
(dp4184
g70
I4
ssg71
Nsg64
(lp4185
g57
(g73
g59
NtRp4186
(dp4187
g62
(dp4188
sg71
g4182
sg64
(lp4189
g57
(g78
g59
NtRp4190
(dp4191
g62
(dp4192
g82
g83
ssg71
g4186
sg64
(lp4193
S'X-Powered-By'
p4194
asbag57
(g78
g59
NtRp4195
(dp4196
g62
(dp4197
g89
g90
ssg71
g4186
sg64
(lp4198
S':'
asbag57
(g78
g59
NtRp4199
(dp4200
g62
(dp4201
sg71
g4186
sg64
(lp4202
g57
(g58
g59
NtRp4203
(dp4204
g62
(dp4205
g70
I4
ssg71
g4199
sg64
(lp4206
S'web2py'
p4207
asbasbasbasbasbasbasbag57
(g73
g59
NtRp4208
(dp4209
g62
(dp4210
sg71
g3771
sg64
(lp4211
g57
(g78
g59
NtRp4212
(dp4213
g62
(dp4214
g82
g83
ssg71
g4208
sg64
(lp4215
S'logo'
p4216
asbag57
(g78
g59
NtRp4217
(dp4218
g62
(dp4219
g89
g90
ssg71
g4208
sg64
(lp4220
S':'
asbag57
(g78
g59
NtRp4221
(dp4222
g62
(dp4223
sg71
g4208
sg64
(lp4224
g57
(g58
g59
NtRp4225
(dp4226
g62
(dp4227
g70
I5
ssg71
g4221
sg64
(lp4228
g57
(cgluon.html
A
p4229
g59
NtRp4230
(dp4231
g62
(dp4232
S'_class'
p4233
S'brand'
p4234
sS'_href'
p4235
S'http://www.web2py.com/'
p4236
ssg71
Nsg64
(lp4237
g57
(cgluon.html
B
p4238
g59
NtRp4239
(dp4240
g62
(dp4241
sg71
g4230
sg64
(lp4242
S'web'
p4243
ag57
(cgluon.html
SPAN
p4244
g59
NtRp4245
(dp4246
g62
(dp4247
sg71
g4239
sg64
(lp4248
I2
asbaS'py'
p4249
asbacgluon.html
XML_unpickle
p4250
(S's\r\x00\x00\x00&trade;&nbsp;'
tRp4251
asbasbasbasbag57
(g73
g59
NtRp4252
(dp4253
g62
(dp4254
sg71
g3771
sg64
(lp4255
g57
(g78
g59
NtRp4256
(dp4257
g62
(dp4258
g82
g83
ssg71
g4252
sg64
(lp4259
S'menu'
p4260
asbag57
(g78
g59
NtRp4261
(dp4262
g62
(dp4263
g89
g90
ssg71
g4252
sg64
(lp4264
S':'
asbag57
(g78
g59
NtRp4265
(dp4266
g62
(dp4267
sg71
g4252
sg64
(lp4268
g57
(g58
g59
NtRp4269
(dp4270
g62
(dp4271
g70
I5
ssg71
g4265
sg64
(lp4272
g57
(g66
g59
NtRp4273
(dp4274
g62
(dp4275
g70
I4
ssg71
Nsg64
(lp4276
g57
(g73
g59
NtRp4277
(dp4278
g62
(dp4279
sg71
g4273
sg64
(lp4280
g57
(g78
g59
NtRp4281
(dp4282
g62
(dp4283
sg71
g4277
sg64
(lp4284
g57
(g58
g59
NtRp4285
(dp4286
g62
(dp4287
g70
I4
ssg71
g4281
sg64
(lp4288
g57
(g66
g59
NtRp4289
(dp4290
g62
(dp4291
g70
I3
ssg71
Nsg64
(lp4292
g57
(g73
g59
NtRp4293
(dp4294
g62
(dp4295
sg71
g4289
sg64
(lp4296
g57
(g78
g59
NtRp4297
(dp4298
g62
(dp4299
sg71
g4293
sg64
(lp4300
g57
(g58
g59
NtRp4301
(dp4302
g62
(dp4303
g70
I3
ssg71
g4297
sg64
(lp4304
cgluon.languages
lazyT_unpickle
p4305
(S's\x04\x00\x00\x00Home'
tRp4306
asbasbasbag57
(g73
g59
NtRp4307
(dp4308
g62
(dp4309
sg71
g4289
sg64
(lp4310
g57
(g78
g59
NtRp4311
(dp4312
g62
(dp4313
sg71
g4307
sg64
(lp4314
g57
(g58
g59
NtRp4315
(dp4316
g62
(dp4317
g70
I3
ssg71
g4311
sg64
(lp4318
g100
asbasbasbag57
(g73
g59
NtRp4319
(dp4320
g62
(dp4321
sg71
g4289
sg64
(lp4322
g57
(g78
g59
NtRp4323
(dp4324
g62
(dp4325
sg71
g4319
sg64
(lp4326
g57
(g58
g59
NtRp4327
(dp4328
g62
(dp4329
g70
I3
ssg71
g4323
sg64
(lp4330
S'/SSAD/default/index'
p4331
asbasbasbag57
(g73
g59
NtRp4332
(dp4333
g62
(dp4334
sg71
g4289
sg64
(lp4335
g57
(g78
g59
NtRp4336
(dp4337
g62
(dp4338
sg71
g4332
sg64
(lp4339
g57
(g58
g59
NtRp4340
(dp4341
g62
(dp4342
g70
I3
ssg71
g4336
sg64
(lp4343
g57
(g66
g59
NtRp4344
(dp4345
g62
(dp4346
g70
I2
ssg71
Nsg64
(lp4347
sbasbasbasbasbasbasbasbag57
(g73
g59
NtRp4348
(dp4349
g62
(dp4350
sg71
g4273
sg64
(lp4351
g57
(g78
g59
NtRp4352
(dp4353
g62
(dp4354
sg71
g4348
sg64
(lp4355
g57
(g58
g59
NtRp4356
(dp4357
g62
(dp4358
g70
I4
ssg71
g4352
sg64
(lp4359
g57
(g66
g59
NtRp4360
(dp4361
g62
(dp4362
g70
I3
ssg71
Nsg64
(lp4363
g57
(g73
g59
NtRp4364
(dp4365
g62
(dp4366
sg71
g4360
sg64
(lp4367
g57
(g78
g59
NtRp4368
(dp4369
g62
(dp4370
sg71
g4364
sg64
(lp4371
g57
(g58
g59
NtRp4372
(dp4373
g62
(dp4374
g70
I3
ssg71
g4368
sg64
(lp4375
g57
(g4244
g59
NtRp4376
(dp4377
g62
(dp4378
g4233
S'highlighted'
p4379
ssg71
Nsg64
(lp4380
g4207
asbasbasbasbag57
(g73
g59
NtRp4381
(dp4382
g62
(dp4383
sg71
g4360
sg64
(lp4384
g57
(g78
g59
NtRp4385
(dp4386
g62
(dp4387
sg71
g4381
sg64
(lp4388
g57
(g58
g59
NtRp4389
(dp4390
g62
(dp4391
g70
I3
ssg71
g4385
sg64
(lp4392
g100
asbasbasbag57
(g73
g59
NtRp4393
(dp4394
g62
(dp4395
sg71
g4360
sg64
(lp4396
g57
(g78
g59
NtRp4397
(dp4398
g62
(dp4399
sg71
g4393
sg64
(lp4400
g57
(g58
g59
NtRp4401
(dp4402
g62
(dp4403
g70
I3
ssg71
g4397
sg64
(lp4404
S'http://web2py.com'
p4405
asbasbasbag57
(g73
g59
NtRp4406
(dp4407
g62
(dp4408
sg71
g4360
sg64
(lp4409
g57
(g78
g59
NtRp4410
(dp4411
g62
(dp4412
sg71
g4406
sg64
(lp4413
g57
(g58
g59
NtRp4414
(dp4415
g62
(dp4416
g70
I3
ssg71
g4410
sg64
(lp4417
g57
(g66
g59
NtRp4418
(dp4419
g62
(dp4420
g70
I2
ssg71
Nsg64
(lp4421
g57
(g73
g59
NtRp4422
(dp4423
g62
(dp4424
sg71
g4418
sg64
(lp4425
g57
(g78
g59
NtRp4426
(dp4427
g62
(dp4428
sg71
g4422
sg64
(lp4429
g57
(g58
g59
NtRp4430
(dp4431
g62
(dp4432
g70
I2
ssg71
g4426
sg64
(lp4433
g57
(g66
g59
NtRp4434
(dp4435
g62
(dp4436
g70
I1
ssg71
Nsg64
(lp4437
g57
(g73
g59
NtRp4438
(dp4439
g62
(dp4440
sg71
g4434
sg64
(lp4441
g57
(g78
g59
NtRp4442
(dp4443
g62
(dp4444
sg71
g4438
sg64
(lp4445
g57
(g58
g59
NtRp4446
(dp4447
g62
(dp4448
g70
I1
ssg71
g4442
sg64
(lp4449
g4305
(S's\x08\x00\x00\x00My Sites'
tRp4450
asbasbasbag57
(g73
g59
NtRp4451
(dp4452
g62
(dp4453
sg71
g4434
sg64
(lp4454
g57
(g78
g59
NtRp4455
(dp4456
g62
(dp4457
sg71
g4451
sg64
(lp4458
g57
(g58
g59
NtRp4459
(dp4460
g62
(dp4461
g70
I1
ssg71
g4455
sg64
(lp4462
I00
asbasbasbag57
(g73
g59
NtRp4463
(dp4464
g62
(dp4465
sg71
g4434
sg64
(lp4466
g57
(g78
g59
NtRp4467
(dp4468
g62
(dp4469
sg71
g4463
sg64
(lp4470
g57
(g58
g59
NtRp4471
(dp4472
g62
(dp4473
g70
I1
ssg71
g4467
sg64
(lp4474
S'/admin/default/site'
p4475
asbasbasbasbasbasbasbag57
(g73
g59
NtRp4476
(dp4477
g62
(dp4478
sg71
g4418
sg64
(lp4479
g57
(g78
g59
NtRp4480
(dp4481
g62
(dp4482
sg71
g4476
sg64
(lp4483
g57
(g58
g59
NtRp4484
(dp4485
g62
(dp4486
g70
I2
ssg71
g4480
sg64
(lp4487
g57
(g66
g59
NtRp4488
(dp4489
g62
(dp4490
g70
I1
ssg71
Nsg64
(lp4491
g57
(g73
g59
NtRp4492
(dp4493
g62
(dp4494
sg71
g4488
sg64
(lp4495
g57
(g78
g59
NtRp4496
(dp4497
g62
(dp4498
sg71
g4492
sg64
(lp4499
g57
(g58
g59
NtRp4500
(dp4501
g62
(dp4502
g70
I1
ssg71
g4496
sg64
(lp4503
g4305
(S's\x08\x00\x00\x00This App'
tRp4504
asbasbasbag57
(g73
g59
NtRp4505
(dp4506
g62
(dp4507
sg71
g4488
sg64
(lp4508
g57
(g78
g59
NtRp4509
(dp4510
g62
(dp4511
sg71
g4505
sg64
(lp4512
g57
(g58
g59
NtRp4513
(dp4514
g62
(dp4515
g70
I1
ssg71
g4509
sg64
(lp4516
I00
asbasbasbag57
(g73
g59
NtRp4517
(dp4518
g62
(dp4519
sg71
g4488
sg64
(lp4520
g57
(g78
g59
NtRp4521
(dp4522
g62
(dp4523
sg71
g4517
sg64
(lp4524
g57
(g58
g59
NtRp4525
(dp4526
g62
(dp4527
g70
I1
ssg71
g4521
sg64
(lp4528
S'/admin/default/design/SSAD'
p4529
asbasbasbag57
(g73
g59
NtRp4530
(dp4531
g62
(dp4532
sg71
g4488
sg64
(lp4533
g57
(g78
g59
NtRp4534
(dp4535
g62
(dp4536
sg71
g4530
sg64
(lp4537
g57
(g58
g59
NtRp4538
(dp4539
g62
(dp4540
g70
I1
ssg71
g4534
sg64
(lp4541
(lp4542
(g4305
(S's\n\x00\x00\x00Controller'
tRp4543
I00
S'/admin/default/edit/SSAD/controllers/default.py'
tp4544
a(g4305
(S's\x04\x00\x00\x00View'
tRp4545
I00
S'/admin/default/edit/SSAD/views/default/like.html'
tp4546
a(g4305
(S's\x06\x00\x00\x00Layout'
tRp4547
I00
S'/admin/default/edit/SSAD/views/layout.html'
tp4548
a(g4305
(S's\n\x00\x00\x00Stylesheet'
tRp4549
I00
S'/admin/default/edit/SSAD/static/css/web2py.css'
tp4550
a(g4305
(S's\x08\x00\x00\x00DB Model'
tRp4551
I00
S'/admin/default/edit/SSAD/models/db.py'
tp4552
a(g4305
(S's\n\x00\x00\x00Menu Model'
tRp4553
I00
S'/admin/default/edit/SSAD/models/menu.py'
tp4554
a(g4305
(S's\x08\x00\x00\x00Database'
tRp4555
I00
S'/SSAD/appadmin/index'
tp4556
a(g4305
(S's\x06\x00\x00\x00Errors'
tRp4557
I00
S'/admin/default/errors/SSAD'
tp4558
a(g4305
(S's\x05\x00\x00\x00About'
tRp4559
I00
S'/admin/default/about/SSAD'
tp4560
aasbasbasbasbasbasbasbag57
(g73
g59
NtRp4561
(dp4562
g62
(dp4563
sg71
g4418
sg64
(lp4564
g57
(g78
g59
NtRp4565
(dp4566
g62
(dp4567
sg71
g4561
sg64
(lp4568
g57
(g58
g59
NtRp4569
(dp4570
g62
(dp4571
g70
I2
ssg71
g4565
sg64
(lp4572
g57
(g66
g59
NtRp4573
(dp4574
g62
(dp4575
g70
I1
ssg71
Nsg64
(lp4576
g57
(g73
g59
NtRp4577
(dp4578
g62
(dp4579
sg71
g4573
sg64
(lp4580
g57
(g78
g59
NtRp4581
(dp4582
g62
(dp4583
sg71
g4577
sg64
(lp4584
g57
(g58
g59
NtRp4585
(dp4586
g62
(dp4587
g70
I1
ssg71
g4581
sg64
(lp4588
S'web2py.com'
p4589
asbasbasbag57
(g73
g59
NtRp4590
(dp4591
g62
(dp4592
sg71
g4573
sg64
(lp4593
g57
(g78
g59
NtRp4594
(dp4595
g62
(dp4596
sg71
g4590
sg64
(lp4597
g57
(g58
g59
NtRp4598
(dp4599
g62
(dp4600
g70
I1
ssg71
g4594
sg64
(lp4601
I00
asbasbasbag57
(g73
g59
NtRp4602
(dp4603
g62
(dp4604
sg71
g4573
sg64
(lp4605
g57
(g78
g59
NtRp4606
(dp4607
g62
(dp4608
sg71
g4602
sg64
(lp4609
g57
(g58
g59
NtRp4610
(dp4611
g62
(dp4612
g70
I1
ssg71
g4606
sg64
(lp4613
S'http://www.web2py.com'
p4614
asbasbasbag57
(g73
g59
NtRp4615
(dp4616
g62
(dp4617
sg71
g4573
sg64
(lp4618
g57
(g78
g59
NtRp4619
(dp4620
g62
(dp4621
sg71
g4615
sg64
(lp4622
g57
(g58
g59
NtRp4623
(dp4624
g62
(dp4625
g70
I1
ssg71
g4619
sg64
(lp4626
(lp4627
(g4305
(S's\x08\x00\x00\x00Download'
tRp4628
I00
S'http://www.web2py.com/examples/default/download'
p4629
tp4630
a(g4305
(S's\x07\x00\x00\x00Support'
tRp4631
I00
S'http://www.web2py.com/examples/default/support'
p4632
tp4633
a(g4305
(S's\x04\x00\x00\x00Demo'
tRp4634
I00
S'http://web2py.com/demo_admin'
p4635
tp4636
a(g4305
(S's\x0e\x00\x00\x00Quick Examples'
tRp4637
I00
S'http://web2py.com/examples/default/examples'
p4638
tp4639
a(g4305
(S's\x03\x00\x00\x00FAQ'
tRp4640
I00
S'http://web2py.com/AlterEgo'
p4641
tp4642
a(g4305
(S's\x06\x00\x00\x00Videos'
tRp4643
I00
S'http://www.web2py.com/examples/default/videos/'
p4644
tp4645
a(g4305
(S's\x11\x00\x00\x00Free Applications'
tRp4646
I00
S'http://web2py.com/appliances'
p4647
tp4648
a(g4305
(S's\x07\x00\x00\x00Plugins'
tRp4649
I00
S'http://web2py.com/plugins'
p4650
tp4651
a(g4305
(S's\x07\x00\x00\x00Layouts'
tRp4652
I00
S'http://web2py.com/layouts'
p4653
tp4654
a(g4305
(S's\x07\x00\x00\x00Recipes'
tRp4655
I00
S'http://web2pyslices.com/'
p4656
tp4657
a(g4305
(S's\x08\x00\x00\x00Semantic'
tRp4658
I00
S'http://web2py.com/semantic'
p4659
tp4660
aasbasbasbasbasbasbasbag57
(g73
g59
NtRp4661
(dp4662
g62
(dp4663
sg71
g4418
sg64
(lp4664
g57
(g78
g59
NtRp4665
(dp4666
g62
(dp4667
sg71
g4661
sg64
(lp4668
g57
(g58
g59
NtRp4669
(dp4670
g62
(dp4671
g70
I2
ssg71
g4665
sg64
(lp4672
g57
(g66
g59
NtRp4673
(dp4674
g62
(dp4675
g70
I1
ssg71
Nsg64
(lp4676
g57
(g73
g59
NtRp4677
(dp4678
g62
(dp4679
sg71
g4673
sg64
(lp4680
g57
(g78
g59
NtRp4681
(dp4682
g62
(dp4683
sg71
g4677
sg64
(lp4684
g57
(g58
g59
NtRp4685
(dp4686
g62
(dp4687
g70
I1
ssg71
g4681
sg64
(lp4688
g4305
(S's\r\x00\x00\x00Documentation'
tRp4689
asbasbasbag57
(g73
g59
NtRp4690
(dp4691
g62
(dp4692
sg71
g4673
sg64
(lp4693
g57
(g78
g59
NtRp4694
(dp4695
g62
(dp4696
sg71
g4690
sg64
(lp4697
g57
(g58
g59
NtRp4698
(dp4699
g62
(dp4700
g70
I1
ssg71
g4694
sg64
(lp4701
I00
asbasbasbag57
(g73
g59
NtRp4702
(dp4703
g62
(dp4704
sg71
g4673
sg64
(lp4705
g57
(g78
g59
NtRp4706
(dp4707
g62
(dp4708
sg71
g4702
sg64
(lp4709
g57
(g58
g59
NtRp4710
(dp4711
g62
(dp4712
g70
I1
ssg71
g4706
sg64
(lp4713
S'http://www.web2py.com/book'
p4714
asbasbasbag57
(g73
g59
NtRp4715
(dp4716
g62
(dp4717
sg71
g4673
sg64
(lp4718
g57
(g78
g59
NtRp4719
(dp4720
g62
(dp4721
sg71
g4715
sg64
(lp4722
g57
(g58
g59
NtRp4723
(dp4724
g62
(dp4725
g70
I1
ssg71
g4719
sg64
(lp4726
(lp4727
(g4305
(S's\x07\x00\x00\x00Preface'
tRp4728
I00
S'http://www.web2py.com/book/default/chapter/00'
p4729
tp4730
a(g4305
(S's\x0c\x00\x00\x00Introduction'
tRp4731
I00
S'http://www.web2py.com/book/default/chapter/01'
p4732
tp4733
a(g4305
(S's\x06\x00\x00\x00Python'
tRp4734
I00
S'http://www.web2py.com/book/default/chapter/02'
p4735
tp4736
a(g4305
(S's\x08\x00\x00\x00Overview'
tRp4737
I00
S'http://www.web2py.com/book/default/chapter/03'
p4738
tp4739
a(g4305
(S's\x08\x00\x00\x00The Core'
tRp4740
I00
S'http://www.web2py.com/book/default/chapter/04'
p4741
tp4742
a(g4305
(S's\t\x00\x00\x00The Views'
tRp4743
I00
S'http://www.web2py.com/book/default/chapter/05'
p4744
tp4745
a(g4305
(S's\x08\x00\x00\x00Database'
tRp4746
I00
S'http://www.web2py.com/book/default/chapter/06'
p4747
tp4748
a(g4305
(S's\x14\x00\x00\x00Forms and Validators'
tRp4749
I00
S'http://www.web2py.com/book/default/chapter/07'
p4750
tp4751
a(g4305
(S's\r\x00\x00\x00Email and SMS'
tRp4752
I00
S'http://www.web2py.com/book/default/chapter/08'
p4753
tp4754
a(g4305
(S's\x0e\x00\x00\x00Access Control'
tRp4755
I00
S'http://www.web2py.com/book/default/chapter/09'
p4756
tp4757
a(g4305
(S's\x08\x00\x00\x00Services'
tRp4758
I00
S'http://www.web2py.com/book/default/chapter/10'
p4759
tp4760
a(g4305
(S's\x0c\x00\x00\x00Ajax Recipes'
tRp4761
I00
S'http://www.web2py.com/book/default/chapter/11'
p4762
tp4763
a(g4305
(S's\x16\x00\x00\x00Components and Plugins'
tRp4764
I00
S'http://www.web2py.com/book/default/chapter/12'
p4765
tp4766
a(g4305
(S's\x12\x00\x00\x00Deployment Recipes'
tRp4767
I00
S'http://www.web2py.com/book/default/chapter/13'
p4768
tp4769
a(g4305
(S's\r\x00\x00\x00Other Recipes'
tRp4770
I00
S'http://www.web2py.com/book/default/chapter/14'
p4771
tp4772
a(g4305
(S's\r\x00\x00\x00Buy this book'
tRp4773
I00
S'http://stores.lulu.com/web2py'
p4774
tp4775
aasbasbasbasbasbasbasbag57
(g73
g59
NtRp4776
(dp4777
g62
(dp4778
sg71
g4418
sg64
(lp4779
g57
(g78
g59
NtRp4780
(dp4781
g62
(dp4782
sg71
g4776
sg64
(lp4783
g57
(g58
g59
NtRp4784
(dp4785
g62
(dp4786
g70
I2
ssg71
g4780
sg64
(lp4787
g57
(g66
g59
NtRp4788
(dp4789
g62
(dp4790
g70
I1
ssg71
Nsg64
(lp4791
g57
(g73
g59
NtRp4792
(dp4793
g62
(dp4794
sg71
g4788
sg64
(lp4795
g57
(g78
g59
NtRp4796
(dp4797
g62
(dp4798
sg71
g4792
sg64
(lp4799
g57
(g58
g59
NtRp4800
(dp4801
g62
(dp4802
g70
I1
ssg71
g4796
sg64
(lp4803
g4305
(S's\t\x00\x00\x00Community'
tRp4804
asbasbasbag57
(g73
g59
NtRp4805
(dp4806
g62
(dp4807
sg71
g4788
sg64
(lp4808
g57
(g78
g59
NtRp4809
(dp4810
g62
(dp4811
sg71
g4805
sg64
(lp4812
g57
(g58
g59
NtRp4813
(dp4814
g62
(dp4815
g70
I1
ssg71
g4809
sg64
(lp4816
I00
asbasbasbag57
(g73
g59
NtRp4817
(dp4818
g62
(dp4819
sg71
g4788
sg64
(lp4820
g57
(g78
g59
NtRp4821
(dp4822
g62
(dp4823
sg71
g4817
sg64
(lp4824
g57
(g58
g59
NtRp4825
(dp4826
g62
(dp4827
g70
I1
ssg71
g4821
sg64
(lp4828
Nasbasbasbag57
(g73
g59
NtRp4829
(dp4830
g62
(dp4831
sg71
g4788
sg64
(lp4832
g57
(g78
g59
NtRp4833
(dp4834
g62
(dp4835
sg71
g4829
sg64
(lp4836
g57
(g58
g59
NtRp4837
(dp4838
g62
(dp4839
g70
I1
ssg71
g4833
sg64
(lp4840
(lp4841
(g4305
(S's\x06\x00\x00\x00Groups'
tRp4842
I00
S'http://www.web2py.com/examples/default/usergroups'
p4843
tp4844
a(g4305
(S's\x07\x00\x00\x00Twitter'
tRp4845
I00
S'http://twitter.com/web2py'
p4846
tp4847
a(g4305
(S's\t\x00\x00\x00Live Chat'
tRp4848
I00
S'http://webchat.freenode.net/?channels=web2py'
p4849
tp4850
aasbasbasbasbasbasbasbag57
(g73
g59
NtRp4851
(dp4852
g62
(dp4853
sg71
g4418
sg64
(lp4854
g57
(g78
g59
NtRp4855
(dp4856
g62
(dp4857
sg71
g4851
sg64
(lp4858
g57
(g58
g59
NtRp4859
(dp4860
g62
(dp4861
g70
I2
ssg71
g4855
sg64
(lp4862
g57
(g66
g59
NtRp4863
(dp4864
g62
(dp4865
g70
I1
ssg71
Nsg64
(lp4866
g57
(g73
g59
NtRp4867
(dp4868
g62
(dp4869
sg71
g4863
sg64
(lp4870
g57
(g78
g59
NtRp4871
(dp4872
g62
(dp4873
sg71
g4867
sg64
(lp4874
g57
(g58
g59
NtRp4875
(dp4876
g62
(dp4877
g70
I1
ssg71
g4871
sg64
(lp4878
g4305
(S's\x07\x00\x00\x00Plugins'
tRp4879
asbasbasbag57
(g73
g59
NtRp4880
(dp4881
g62
(dp4882
sg71
g4863
sg64
(lp4883
g57
(g78
g59
NtRp4884
(dp4885
g62
(dp4886
sg71
g4880
sg64
(lp4887
g57
(g58
g59
NtRp4888
(dp4889
g62
(dp4890
g70
I1
ssg71
g4884
sg64
(lp4891
I00
asbasbasbag57
(g73
g59
NtRp4892
(dp4893
g62
(dp4894
sg71
g4863
sg64
(lp4895
g57
(g78
g59
NtRp4896
(dp4897
g62
(dp4898
sg71
g4892
sg64
(lp4899
g57
(g58
g59
NtRp4900
(dp4901
g62
(dp4902
g70
I1
ssg71
g4896
sg64
(lp4903
Nasbasbasbag57
(g73
g59
NtRp4904
(dp4905
g62
(dp4906
sg71
g4863
sg64
(lp4907
g57
(g78
g59
NtRp4908
(dp4909
g62
(dp4910
sg71
g4904
sg64
(lp4911
g57
(g58
g59
NtRp4912
(dp4913
g62
(dp4914
g70
I1
ssg71
g4908
sg64
(lp4915
(lp4916
(S'plugin_wiki'
p4917
I00
S'http://web2py.com/examples/default/download'
p4918
tp4919
a(g4305
(S's\r\x00\x00\x00Other Plugins'
tRp4920
I00
g4650
tp4921
a(g4305
(S's\x0e\x00\x00\x00Layout Plugins'
tRp4922
I00
g4653
tp4923
aasbasbasbasbasbasbasbasbasbasbasbasbasbasbasbasbasbasbasbag57
(g73
g59
NtRp4924
(dp4925
g62
(dp4926
sg71
g3771
sg64
(lp4927
g57
(g78
g59
NtRp4928
(dp4929
g62
(dp4930
g82
g83
ssg71
g4924
sg64
(lp4931
S'meta'
p4932
asbag57
(g78
g59
NtRp4933
(dp4934
g62
(dp4935
g89
g90
ssg71
g4924
sg64
(lp4936
S':'
asbag57
(g78
g59
NtRp4937
(dp4938
g62
(dp4939
sg71
g4924
sg64
(lp4940
g57
(g58
g59
NtRp4941
(dp4942
g62
(dp4943
g70
I5
ssg71
g4937
sg64
(lp4944
g57
(g66
g59
NtRp4945
(dp4946
g62
(dp4947
g70
I4
ssg71
Nsg64
(lp4948
g57
(g73
g59
NtRp4949
(dp4950
g62
(dp4951
sg71
g4945
sg64
(lp4952
g57
(g78
g59
NtRp4953
(dp4954
g62
(dp4955
g82
g83
ssg71
g4949
sg64
(lp4956
S'author'
p4957
asbag57
(g78
g59
NtRp4958
(dp4959
g62
(dp4960
g89
g90
ssg71
g4949
sg64
(lp4961
S':'
asbag57
(g78
g59
NtRp4962
(dp4963
g62
(dp4964
sg71
g4949
sg64
(lp4965
g57
(g58
g59
NtRp4966
(dp4967
g62
(dp4968
g70
I4
ssg71
g4962
sg64
(lp4969
S'Your Name <you@example.com>'
p4970
asbasbasbag57
(g73
g59
NtRp4971
(dp4972
g62
(dp4973
sg71
g4945
sg64
(lp4974
g57
(g78
g59
NtRp4975
(dp4976
g62
(dp4977
g82
g83
ssg71
g4971
sg64
(lp4978
S'description'
p4979
asbag57
(g78
g59
NtRp4980
(dp4981
g62
(dp4982
g89
g90
ssg71
g4971
sg64
(lp4983
S':'
asbag57
(g78
g59
NtRp4984
(dp4985
g62
(dp4986
sg71
g4971
sg64
(lp4987
g57
(g58
g59
NtRp4988
(dp4989
g62
(dp4990
g70
I4
ssg71
g4984
sg64
(lp4991
S'a cool new app'
p4992
asbasbasbag57
(g73
g59
NtRp4993
(dp4994
g62
(dp4995
sg71
g4945
sg64
(lp4996
g57
(g78
g59
NtRp4997
(dp4998
g62
(dp4999
g82
g83
ssg71
g4993
sg64
(lp5000
S'generator'
p5001
asbag57
(g78
g59
NtRp5002
(dp5003
g62
(dp5004
g89
g90
ssg71
g4993
sg64
(lp5005
S':'
asbag57
(g78
g59
NtRp5006
(dp5007
g62
(dp5008
sg71
g4993
sg64
(lp5009
g57
(g58
g59
NtRp5010
(dp5011
g62
(dp5012
g70
I4
ssg71
g5006
sg64
(lp5013
S'Web2py Web Framework'
p5014
asbasbasbag57
(g73
g59
NtRp5015
(dp5016
g62
(dp5017
sg71
g4945
sg64
(lp5018
g57
(g78
g59
NtRp5019
(dp5020
g62
(dp5021
g82
g83
ssg71
g5015
sg64
(lp5022
S'keywords'
p5023
asbag57
(g78
g59
NtRp5024
(dp5025
g62
(dp5026
g89
g90
ssg71
g5015
sg64
(lp5027
S':'
asbag57
(g78
g59
NtRp5028
(dp5029
g62
(dp5030
sg71
g5015
sg64
(lp5031
g57
(g58
g59
NtRp5032
(dp5033
g62
(dp5034
g70
I4
ssg71
g5028
sg64
(lp5035
S'web2py, python, framework'
p5036
asbasbasbasbasbasbasbag57
(g73
g59
NtRp5037
(dp5038
g62
(dp5039
sg71
g3771
sg64
(lp5040
g57
(g78
g59
NtRp5041
(dp5042
g62
(dp5043
g82
g83
ssg71
g5037
sg64
(lp5044
S'models_to_run'
p5045
asbag57
(g78
g59
NtRp5046
(dp5047
g62
(dp5048
g89
g90
ssg71
g5037
sg64
(lp5049
S':'
asbag57
(g78
g59
NtRp5050
(dp5051
g62
(dp5052
sg71
g5037
sg64
(lp5053
g57
(g58
g59
NtRp5054
(dp5055
g62
(dp5056
g70
I5
ssg71
g5050
sg64
(lp5057
g57
(g66
g59
NtRp5058
(dp5059
g62
(dp5060
g70
I4
ssg71
Nsg64
(lp5061
g57
(g73
g59
NtRp5062
(dp5063
g62
(dp5064
sg71
g5058
sg64
(lp5065
g57
(g78
g59
NtRp5066
(dp5067
g62
(dp5068
sg71
g5062
sg64
(lp5069
g57
(g58
g59
NtRp5070
(dp5071
g62
(dp5072
g70
I4
ssg71
g5066
sg64
(lp5073
S'^\\w+\\.py$'
p5074
asbasbasbag57
(g73
g59
NtRp5075
(dp5076
g62
(dp5077
sg71
g5058
sg64
(lp5078
g57
(g78
g59
NtRp5079
(dp5080
g62
(dp5081
sg71
g5075
sg64
(lp5082
g57
(g58
g59
NtRp5083
(dp5084
g62
(dp5085
g70
I4
ssg71
g5079
sg64
(lp5086
S'^default/\\w+\\.py$'
p5087
asbasbasbag57
(g73
g59
NtRp5088
(dp5089
g62
(dp5090
sg71
g5058
sg64
(lp5091
g57
(g78
g59
NtRp5092
(dp5093
g62
(dp5094
sg71
g5088
sg64
(lp5095
g57
(g58
g59
NtRp5096
(dp5097
g62
(dp5098
g70
I4
ssg71
g5092
sg64
(lp5099
S'^default/like/\\w+\\.py$'
p5100
asbasbasbasbasbasbasbag57
(g73
g59
NtRp5101
(dp5102
g62
(dp5103
sg71
g3771
sg64
(lp5104
g57
(g78
g59
NtRp5105
(dp5106
g62
(dp5107
g82
g83
ssg71
g5101
sg64
(lp5108
S'postprocessing'
p5109
asbag57
(g78
g59
NtRp5110
(dp5111
g62
(dp5112
g89
g90
ssg71
g5101
sg64
(lp5113
S':'
asbag57
(g78
g59
NtRp5114
(dp5115
g62
(dp5116
sg71
g5101
sg64
(lp5117
g57
(g58
g59
NtRp5118
(dp5119
g62
(dp5120
g70
I5
ssg71
g5114
sg64
(lp5121
g57
(g66
g59
NtRp5122
(dp5123
g62
(dp5124
g70
I4
ssg71
Nsg64
(lp5125
sbasbasbasbag57
(g73
g59
NtRp5126
(dp5127
g62
(dp5128
sg71
g3771
sg64
(lp5129
g57
(g78
g59
NtRp5130
(dp5131
g62
(dp5132
g82
g83
ssg71
g5126
sg64
(lp5133
S'session_cookie_expires'
p5134
asbag57
(g78
g59
NtRp5135
(dp5136
g62
(dp5137
g89
g90
ssg71
g5126
sg64
(lp5138
S':'
asbag57
(g78
g59
NtRp5139
(dp5140
g62
(dp5141
sg71
g5126
sg64
(lp5142
g57
(g58
g59
NtRp5143
(dp5144
g62
(dp5145
g70
I5
ssg71
g5139
sg64
(lp5146
S'None'
p5147
asbasbasbag57
(g73
g59
NtRp5148
(dp5149
g62
(dp5150
sg71
g3771
sg64
(lp5151
g57
(g78
g59
NtRp5152
(dp5153
g62
(dp5154
g82
g83
ssg71
g5148
sg64
(lp5155
S'session_data_name'
p5156
asbag57
(g78
g59
NtRp5157
(dp5158
g62
(dp5159
g89
g90
ssg71
g5148
sg64
(lp5160
S':'
asbag57
(g78
g59
NtRp5161
(dp5162
g62
(dp5163
sg71
g5148
sg64
(lp5164
g57
(g58
g59
NtRp5165
(dp5166
g62
(dp5167
g70
I5
ssg71
g5161
sg64
(lp5168
S'session_data_ssad'
p5169
asbasbasbag57
(g73
g59
NtRp5170
(dp5171
g62
(dp5172
sg71
g3771
sg64
(lp5173
g57
(g78
g59
NtRp5174
(dp5175
g62
(dp5176
g82
g83
ssg71
g5170
sg64
(lp5177
S'session_file'
p5178
asbag57
(g78
g59
NtRp5179
(dp5180
g62
(dp5181
g89
g90
ssg71
g5170
sg64
(lp5182
S':'
asbag57
(g78
g59
NtRp5183
(dp5184
g62
(dp5185
sg71
g5170
sg64
(lp5186
g57
(g58
g59
NtRp5187
(dp5188
g62
(dp5189
g70
I5
ssg71
g5183
sg64
(lp5190
S"<open file '/home/urvashi/Desktop/WEB2PY/web2py/applications/SSAD/sessions/127.0.0.1-c668ac90-883a-4163-916b-4b94201f7ce7', mode 'rb+' at 0x7fd96c0a1b70>"
p5191
asbasbasbag57
(g73
g59
NtRp5192
(dp5193
g62
(dp5194
sg71
g3771
sg64
(lp5195
g57
(g78
g59
NtRp5196
(dp5197
g62
(dp5198
g82
g83
ssg71
g5192
sg64
(lp5199
S'session_filename'
p5200
asbag57
(g78
g59
NtRp5201
(dp5202
g62
(dp5203
g89
g90
ssg71
g5192
sg64
(lp5204
S':'
asbag57
(g78
g59
NtRp5205
(dp5206
g62
(dp5207
sg71
g5192
sg64
(lp5208
g57
(g58
g59
NtRp5209
(dp5210
g62
(dp5211
g70
I5
ssg71
g5205
sg64
(lp5212
S'/home/urvashi/Desktop/WEB2PY/web2py/applications/SSAD/sessions/127.0.0.1-c668ac90-883a-4163-916b-4b94201f7ce7'
p5213
asbasbasbag57
(g73
g59
NtRp5214
(dp5215
g62
(dp5216
sg71
g3771
sg64
(lp5217
g57
(g78
g59
NtRp5218
(dp5219
g62
(dp5220
g82
g83
ssg71
g5214
sg64
(lp5221
S'session_id'
p5222
asbag57
(g78
g59
NtRp5223
(dp5224
g62
(dp5225
g89
g90
ssg71
g5214
sg64
(lp5226
S':'
asbag57
(g78
g59
NtRp5227
(dp5228
g62
(dp5229
sg71
g5214
sg64
(lp5230
g57
(g58
g59
NtRp5231
(dp5232
g62
(dp5233
g70
I5
ssg71
g5227
sg64
(lp5234
g475
asbasbasbag57
(g73
g59
NtRp5235
(dp5236
g62
(dp5237
sg71
g3771
sg64
(lp5238
g57
(g78
g59
NtRp5239
(dp5240
g62
(dp5241
g82
g83
ssg71
g5235
sg64
(lp5242
S'session_id_name'
p5243
asbag57
(g78
g59
NtRp5244
(dp5245
g62
(dp5246
g89
g90
ssg71
g5235
sg64
(lp5247
S':'
asbag57
(g78
g59
NtRp5248
(dp5249
g62
(dp5250
sg71
g5235
sg64
(lp5251
g57
(g58
g59
NtRp5252
(dp5253
g62
(dp5254
g70
I5
ssg71
g5248
sg64
(lp5255
g3828
asbasbasbag57
(g73
g59
NtRp5256
(dp5257
g62
(dp5258
sg71
g3771
sg64
(lp5259
g57
(g78
g59
NtRp5260
(dp5261
g62
(dp5262
g82
g83
ssg71
g5256
sg64
(lp5263
S'session_locked'
p5264
asbag57
(g78
g59
NtRp5265
(dp5266
g62
(dp5267
g89
g90
ssg71
g5256
sg64
(lp5268
S':'
asbag57
(g78
g59
NtRp5269
(dp5270
g62
(dp5271
sg71
g5256
sg64
(lp5272
g57
(g58
g59
NtRp5273
(dp5274
g62
(dp5275
g70
I5
ssg71
g5269
sg64
(lp5276
g1690
asbasbasbag57
(g73
g59
NtRp5277
(dp5278
g62
(dp5279
sg71
g3771
sg64
(lp5280
g57
(g78
g59
NtRp5281
(dp5282
g62
(dp5283
g82
g83
ssg71
g5277
sg64
(lp5284
S'session_new'
p5285
asbag57
(g78
g59
NtRp5286
(dp5287
g62
(dp5288
g89
g90
ssg71
g5277
sg64
(lp5289
S':'
asbag57
(g78
g59
NtRp5290
(dp5291
g62
(dp5292
sg71
g5277
sg64
(lp5293
g57
(g58
g59
NtRp5294
(dp5295
g62
(dp5296
g70
I5
ssg71
g5290
sg64
(lp5297
g100
asbasbasbag57
(g73
g59
NtRp5298
(dp5299
g62
(dp5300
sg71
g3771
sg64
(lp5301
g57
(g78
g59
NtRp5302
(dp5303
g62
(dp5304
g82
g83
ssg71
g5298
sg64
(lp5305
S'session_storage_type'
p5306
asbag57
(g78
g59
NtRp5307
(dp5308
g62
(dp5309
g89
g90
ssg71
g5298
sg64
(lp5310
S':'
asbag57
(g78
g59
NtRp5311
(dp5312
g62
(dp5313
sg71
g5298
sg64
(lp5314
g57
(g58
g59
NtRp5315
(dp5316
g62
(dp5317
g70
I5
ssg71
g5311
sg64
(lp5318
g3267
asbasbasbag57
(g73
g59
NtRp5319
(dp5320
g62
(dp5321
sg71
g3771
sg64
(lp5322
g57
(g78
g59
NtRp5323
(dp5324
g62
(dp5325
g82
g83
ssg71
g5319
sg64
(lp5326
S'status'
p5327
asbag57
(g78
g59
NtRp5328
(dp5329
g62
(dp5330
g89
g90
ssg71
g5319
sg64
(lp5331
S':'
asbag57
(g78
g59
NtRp5332
(dp5333
g62
(dp5334
sg71
g5319
sg64
(lp5335
g57
(g58
g59
NtRp5336
(dp5337
g62
(dp5338
g70
I5
ssg71
g5332
sg64
(lp5339
S'200'
p5340
asbasbasbag57
(g73
g59
NtRp5341
(dp5342
g62
(dp5343
sg71
g3771
sg64
(lp5344
g57
(g78
g59
NtRp5345
(dp5346
g62
(dp5347
g82
g83
ssg71
g5341
sg64
(lp5348
S'subtitle'
p5349
asbag57
(g78
g59
NtRp5350
(dp5351
g62
(dp5352
g89
g90
ssg71
g5341
sg64
(lp5353
S':'
asbag57
(g78
g59
NtRp5354
(dp5355
g62
(dp5356
sg71
g5341
sg64
(lp5357
g57
(g58
g59
NtRp5358
(dp5359
g62
(dp5360
g70
I5
ssg71
g5354
sg64
(lp5361
g4305
(S's\r\x00\x00\x00customize me!'
tRp5362
asbasbasbag57
(g73
g59
NtRp5363
(dp5364
g62
(dp5365
sg71
g3771
sg64
(lp5366
g57
(g78
g59
NtRp5367
(dp5368
g62
(dp5369
g82
g83
ssg71
g5363
sg64
(lp5370
S'title'
p5371
asbag57
(g78
g59
NtRp5372
(dp5373
g62
(dp5374
g89
g90
ssg71
g5363
sg64
(lp5375
S':'
asbag57
(g78
g59
NtRp5376
(dp5377
g62
(dp5378
sg71
g5363
sg64
(lp5379
g57
(g58
g59
NtRp5380
(dp5381
g62
(dp5382
g70
I5
ssg71
g5376
sg64
(lp5383
S'Ssad'
p5384
asbasbasbag57
(g73
g59
NtRp5385
(dp5386
g62
(dp5387
sg71
g3771
sg64
(lp5388
g57
(g78
g59
NtRp5389
(dp5390
g62
(dp5391
g82
g83
ssg71
g5385
sg64
(lp5392
S'view'
p5393
asbag57
(g78
g59
NtRp5394
(dp5395
g62
(dp5396
g89
g90
ssg71
g5385
sg64
(lp5397
S':'
asbag57
(g78
g59
NtRp5398
(dp5399
g62
(dp5400
sg71
g5385
sg64
(lp5401
g57
(g58
g59
NtRp5402
(dp5403
g62
(dp5404
g70
I5
ssg71
g5398
sg64
(lp5405
S'default/like.html'
p5406
asbasbasbasbasbsS'locals'
p5407
(dp5408
S'a'
S'3'
sS'users'
p5409
S'<Rows (0)>'
p5410
sS'i'
S"'12'"
p5411
sS'l'
S'1'
sS'lik'
p5412
S'<Rows (1)>'
p5413
sS'flag'
p5414
S'0'
sS'u'
S'<Rows (0)>'
p5415
sssS'traceback'
p5416
S'Traceback (most recent call last):\n  File "/home/urvashi/Desktop/WEB2PY/web2py/gluon/restricted.py", line 212, in restricted\n    exec ccode in environment\n  File "/home/urvashi/Desktop/WEB2PY/web2py/applications/SSAD/controllers/default.py", line 339, in <module>\n  File "/home/urvashi/Desktop/WEB2PY/web2py/gluon/globals.py", line 193, in <lambda>\n    self._caller = lambda f: f()\n  File "/home/urvashi/Desktop/WEB2PY/web2py/applications/SSAD/controllers/default.py", line 99, in like\n    p=int(db(db.links.id==i).select(\'links.points\'))\nTypeError: int() argument must be a string or a number, not \'Rows\'\n'
p5417
s.