(dp1
S'output'
p2
S"<class 'sqlite3.OperationalError'> no such column: db.auth_user.id"
p3
sS'layer'
p4
S'/home/urvashi/Desktop/WEB2PY/web2py/applications/SSAD/controllers/default.py'
p5
sS'code'
p6
S'# -*- coding: utf-8 -*-\n# this file is released under public domain and you can use without limitations\n\n#########################################################################\n## This is a samples controller\n## - index is the default action of any application\n## - user is required for authentication and authorization\n## - download is for downloading files uploaded in the db (does streaming)\n## - call exposes all registered services (none by default)\n#########################################################################\n\n@auth.requires_login()\ndef index():\n    """\n    example action using the internationalization operator T and flash\n    rendered by views/default/index.html or views/generic.html\n\n    if you need a simple wiki simple replace the two lines below with:\n    return auth.wiki()\n    """\n    \'auth\' in globals()\n    if auth.user:\n        if (auth.user.id)==1:\n            message = "WELCOME ADMIN IIITH !!"\n            redirect(URL(\'admin\'))\n        else:\n            message = "WELCOME TO MY REDDIT !!"\n  \n    else:\n        redirect(URL(\'user\'))\n    return dict(message=message)\n\n\ndef user():\n    """\n    exposes:\n    http://..../[app]/default/user/login\n    http://..../[app]/default/user/logout\n    http://..../[app]/default/user/register\n    http://..../[app]/default/user/profile\n    http://..../[app]/default/user/retrieve_password\n    http://..../[app]/default/user/change_password\n    use @auth.requires_login()\n        @auth.requires_membership(\'group name\')\n        @auth.requires_permission(\'read\',\'table name\',record_id)\n    to decorate functions that need access control\n    """\n    return dict(form=auth())\n\n\n@auth.requires_login()\ndef admin():\n    if auth.user:\n        if(auth.user.id)!=1:\n            redirect(URL(\'index\'))\n        else:\n            message="ADMIN HOME PAGE "\n        return dict(message=message)\n    else:\n        redirect(URL(\'user\'))\n    return locals()\n@auth.requires_login()\ndef add_category():\n    \'auth\' in globals()\n    if auth.user:\n        flag=1\n    else:\n        redirect(URL(\'index\'))\n    return locals()\ndef add_category_2():\n    cat_name=request.post_vars.cat_name\n    if cat_name==\'\':\n            redirect(URL(\'add_category\'))\n    list=db(db.categories.id>0).select()\n    if len(list) > 0:\n            records=[]\n            for i in range(len(list)):\n                records.append(list[i][\'categories.name\'])\n            print "records"\n            print records\n            flag=0\n            for i in range(len(records)):\n                if str(records[i])==str(cat_name):\n                    message="Category exists !!"\n                    flag=1\n            if flag==0:\n                db.categories.insert(name=cat_name)\n                message="New category added successfully !!"\n         \n    else:\n        db.categories.insert(name=cat_name)\n        message="New category added successfully !!"\n    return dict(message=message)\n@auth.requires_login()\ndef delete_user():\n        \'auth\' in globals()\n        if auth.user:\n            if auth.user.id==1:\n                form=SQLFORM.factory(\n                    db.Field(\'usrname\',db.auth_user,requires=IS_IN_DB(db,\'auth_user.id\',\'auth_user.email\'),required=True))\n                if form.accepts(request.vars,session):\n                    redirect(URL(r=request,f=\'delete_user_2?usrname=%s\'% str(form.vars.usrname)))\n                elif form.errors:\n                    response.flash=\'ERRORS!!!\'\n            else:\n                response.flash=\'access denied\'\n                redirect(URL(\'index\'))\n        else:\n            redirect(URL(\'user\'))\n        return dict(form=form)\ndef delete_user_2():\n        usrname=str(request.vars.usrname)\n        i=db(db.auth_user.email==usrname).select(\'db.auth_user.id\')\n        (db.auth_user.id==i).delete()\n        return locals()\n        \ndef delete_post():\n    return locals()\n    \ndef download():\n    """\n    allows downloading of uploaded files\n    http://..../[app]/default/download/[filename]\n    """\n    return response.download(request, db)            \ndef call():\n    """\n    exposes services. for example:\n    http://..../[app]/default/call/jsonrpc\n    decorate with @services.jsonrpc the functions to expose\n    supports xml, json, xmlrpc, jsonrpc, amfrpc, rss, csv\n    """\n    return service()\n\n\n@auth.requires_signature()\ndef data():\n    """\n    http://..../[app]/default/data/tables\n    http://..../[app]/default/data/create/[table]\n    http://..../[app]/default/data/read/[table]/[id]\n    http://..../[app]/default/data/update/[table]/[id]\n    http://..../[app]/default/data/delete/[table]/[id]\n    http://..../[app]/default/data/select/[table]\n    http://..../[app]/default/data/search/[table]\n    but URLs must be signed, i.e. linked with\n      A(\'table\',_href=URL(\'data/tables\',user_signature=True))\n    or with the signed load operator\n      LOAD(\'default\',\'data.load\',args=\'tables\',ajax=True,user_signature=True)\n    """\n    return dict(form=crud())\n\nresponse._vars=response._caller(delete_user_2)\n'
p7
sS'snapshot'
p8
(dp9
S'exception'
p10
(dp11
S'__module__'
p12
S"'sqlite3'"
p13
sS'__getslice__'
p14
S"<method-wrapper '__getslice__' of OperationalError object>"
p15
sS'__str__'
p16
S"<method-wrapper '__str__' of OperationalError object>"
p17
sS'__reduce__'
p18
S'<built-in method __reduce__ of OperationalError object>'
p19
sS'__dict__'
p20
S'{}'
p21
sS'__sizeof__'
p22
S'<built-in method __sizeof__ of OperationalError object>'
p23
sS'__weakref__'
p24
S'None'
p25
sS'__init__'
p26
S"<method-wrapper '__init__' of OperationalError object>"
p27
sS'__setattr__'
p28
S"<method-wrapper '__setattr__' of OperationalError object>"
p29
sS'__reduce_ex__'
p30
S'<built-in method __reduce_ex__ of OperationalError object>'
p31
sS'__new__'
p32
S'<built-in method __new__ of type object>'
p33
sS'__format__'
p34
S'<built-in method __format__ of OperationalError object>'
p35
sS'__class__'
p36
S"<class 'sqlite3.OperationalError'>"
p37
sS'__doc__'
p38
S'None'
p39
sS'__getitem__'
p40
S"<method-wrapper '__getitem__' of OperationalError object>"
p41
sS'__setstate__'
p42
S'<built-in method __setstate__ of OperationalError object>'
p43
sS'__getattribute__'
p44
S"<method-wrapper '__getattribute__' of OperationalError object>"
p45
sS'args'
p46
S"('no such column: db.auth_user.id',)"
p47
sS'__subclasshook__'
p48
S'<built-in method __subclasshook__ of type object>'
p49
sS'__unicode__'
p50
S'<built-in method __unicode__ of OperationalError object>'
p51
sS'__delattr__'
p52
S"<method-wrapper '__delattr__' of OperationalError object>"
p53
sS'__repr__'
p54
S"<method-wrapper '__repr__' of OperationalError object>"
p55
sS'__hash__'
p56
S"<method-wrapper '__hash__' of OperationalError object>"
p57
ssS'evalue'
p58
S'no such column: db.auth_user.id'
p59
sS'request'
p60
ccopy_reg
_reconstructor
p61
(cgluon.html
BEAUTIFY
p62
c__builtin__
object
p63
NtRp64
(dp65
S'attributes'
p66
(dp67
sS'components'
p68
(lp69
g61
(cgluon.html
TABLE
p70
g63
NtRp71
(dp72
g66
(dp73
S'level'
p74
I5
ssS'parent'
p75
Nsg68
(lp76
g61
(cgluon.html
TR
p77
g63
NtRp78
(dp79
g66
(dp80
sg75
g71
sg68
(lp81
g61
(cgluon.html
TD
p82
g63
NtRp83
(dp84
g66
(dp85
S'_style'
p86
S'font-weight:bold;vertical-align:top'
p87
ssg75
g78
sg68
(lp88
S'ajax'
p89
asbag61
(g82
g63
NtRp90
(dp91
g66
(dp92
S'_valign'
p93
S'top'
p94
ssg75
g78
sg68
(lp95
S':'
asbag61
(g82
g63
NtRp96
(dp97
g66
(dp98
sg75
g78
sg68
(lp99
g61
(g62
g63
NtRp100
(dp101
g66
(dp102
g74
I5
ssg75
g96
sg68
(lp103
S'False'
p104
asbasbasbag61
(g77
g63
NtRp105
(dp106
g66
(dp107
sg75
g71
sg68
(lp108
g61
(g82
g63
NtRp109
(dp110
g66
(dp111
g86
g87
ssg75
g105
sg68
(lp112
S'application'
p113
asbag61
(g82
g63
NtRp114
(dp115
g66
(dp116
g93
g94
ssg75
g105
sg68
(lp117
S':'
asbag61
(g82
g63
NtRp118
(dp119
g66
(dp120
sg75
g105
sg68
(lp121
g61
(g62
g63
NtRp122
(dp123
g66
(dp124
g74
I5
ssg75
g118
sg68
(lp125
S'SSAD'
p126
asbasbasbag61
(g77
g63
NtRp127
(dp128
g66
(dp129
sg75
g71
sg68
(lp130
g61
(g82
g63
NtRp131
(dp132
g66
(dp133
g86
g87
ssg75
g127
sg68
(lp134
g46
asbag61
(g82
g63
NtRp135
(dp136
g66
(dp137
g93
g94
ssg75
g127
sg68
(lp138
S':'
asbag61
(g82
g63
NtRp139
(dp140
g66
(dp141
sg75
g127
sg68
(lp142
g61
(g62
g63
NtRp143
(dp144
g66
(dp145
g74
I5
ssg75
g139
sg68
(lp146
g61
(g70
g63
NtRp147
(dp148
g66
(dp149
g74
I4
ssg75
Nsg68
(lp150
sbasbasbasbag61
(g77
g63
NtRp151
(dp152
g66
(dp153
sg75
g71
sg68
(lp154
g61
(g82
g63
NtRp155
(dp156
g66
(dp157
g86
g87
ssg75
g151
sg68
(lp158
S'body'
p159
asbag61
(g82
g63
NtRp160
(dp161
g66
(dp162
g93
g94
ssg75
g151
sg68
(lp163
S':'
asbag61
(g82
g63
NtRp164
(dp165
g66
(dp166
sg75
g151
sg68
(lp167
g61
(g62
g63
NtRp168
(dp169
g66
(dp170
g74
I5
ssg75
g164
sg68
(lp171
S'<cStringIO.StringO object at 0x7f9f3c074298>'
p172
asbasbasbag61
(g77
g63
NtRp173
(dp174
g66
(dp175
sg75
g71
sg68
(lp176
g61
(g82
g63
NtRp177
(dp178
g66
(dp179
g86
g87
ssg75
g173
sg68
(lp180
S'cid'
p181
asbag61
(g82
g63
NtRp182
(dp183
g66
(dp184
g93
g94
ssg75
g173
sg68
(lp185
S':'
asbag61
(g82
g63
NtRp186
(dp187
g66
(dp188
sg75
g173
sg68
(lp189
g61
(g62
g63
NtRp190
(dp191
g66
(dp192
g74
I5
ssg75
g186
sg68
(lp193
S'None'
p194
asbasbasbag61
(g77
g63
NtRp195
(dp196
g66
(dp197
sg75
g71
sg68
(lp198
g61
(g82
g63
NtRp199
(dp200
g66
(dp201
g86
g87
ssg75
g195
sg68
(lp202
S'client'
p203
asbag61
(g82
g63
NtRp204
(dp205
g66
(dp206
g93
g94
ssg75
g195
sg68
(lp207
S':'
asbag61
(g82
g63
NtRp208
(dp209
g66
(dp210
sg75
g195
sg68
(lp211
g61
(g62
g63
NtRp212
(dp213
g66
(dp214
g74
I5
ssg75
g208
sg68
(lp215
S'127.0.0.1'
p216
asbasbasbag61
(g77
g63
NtRp217
(dp218
g66
(dp219
sg75
g71
sg68
(lp220
g61
(g82
g63
NtRp221
(dp222
g66
(dp223
g86
g87
ssg75
g217
sg68
(lp224
S'controller'
p225
asbag61
(g82
g63
NtRp226
(dp227
g66
(dp228
g93
g94
ssg75
g217
sg68
(lp229
S':'
asbag61
(g82
g63
NtRp230
(dp231
g66
(dp232
sg75
g217
sg68
(lp233
g61
(g62
g63
NtRp234
(dp235
g66
(dp236
g74
I5
ssg75
g230
sg68
(lp237
S'default'
p238
asbasbasbag61
(g77
g63
NtRp239
(dp240
g66
(dp241
sg75
g71
sg68
(lp242
g61
(g82
g63
NtRp243
(dp244
g66
(dp245
g86
g87
ssg75
g239
sg68
(lp246
S'cookies'
p247
asbag61
(g82
g63
NtRp248
(dp249
g66
(dp250
g93
g94
ssg75
g239
sg68
(lp251
S':'
asbag61
(g82
g63
NtRp252
(dp253
g66
(dp254
sg75
g239
sg68
(lp255
g61
(g62
g63
NtRp256
(dp257
g66
(dp258
g74
I5
ssg75
g252
sg68
(lp259
g61
(g70
g63
NtRp260
(dp261
g66
(dp262
g74
I4
ssg75
Nsg68
(lp263
g61
(g77
g63
NtRp264
(dp265
g66
(dp266
sg75
g260
sg68
(lp267
g61
(g82
g63
NtRp268
(dp269
g66
(dp270
g86
g87
ssg75
g264
sg68
(lp271
S'session_id_admin'
p272
asbag61
(g82
g63
NtRp273
(dp274
g66
(dp275
g93
g94
ssg75
g264
sg68
(lp276
S':'
asbag61
(g82
g63
NtRp277
(dp278
g66
(dp279
sg75
g264
sg68
(lp280
g61
(g62
g63
NtRp281
(dp282
g66
(dp283
g74
I4
ssg75
g277
sg68
(lp284
S'127.0.0.1-5083e7c3-8a51-4296-80f8-514c399375cc'
p285
ag61
(g70
g63
NtRp286
(dp287
g66
(dp288
g74
I3
ssg75
Nsg68
(lp289
g61
(g77
g63
NtRp290
(dp291
g66
(dp292
sg75
g286
sg68
(lp293
g61
(g82
g63
NtRp294
(dp295
g66
(dp296
g86
g87
ssg75
g290
sg68
(lp297
S'comment'
p298
asbag61
(g82
g63
NtRp299
(dp300
g66
(dp301
g93
g94
ssg75
g290
sg68
(lp302
S':'
asbag61
(g82
g63
NtRp303
(dp304
g66
(dp305
sg75
g290
sg68
(lp306
g61
(g62
g63
NtRp307
(dp308
g66
(dp309
g74
I3
ssg75
g303
sg68
(lp310
S''
asbasbasbag61
(g77
g63
NtRp311
(dp312
g66
(dp313
sg75
g286
sg68
(lp314
g61
(g82
g63
NtRp315
(dp316
g66
(dp317
g86
g87
ssg75
g311
sg68
(lp318
S'domain'
p319
asbag61
(g82
g63
NtRp320
(dp321
g66
(dp322
g93
g94
ssg75
g311
sg68
(lp323
S':'
asbag61
(g82
g63
NtRp324
(dp325
g66
(dp326
sg75
g311
sg68
(lp327
g61
(g62
g63
NtRp328
(dp329
g66
(dp330
g74
I3
ssg75
g324
sg68
(lp331
S''
asbasbasbag61
(g77
g63
NtRp332
(dp333
g66
(dp334
sg75
g286
sg68
(lp335
g61
(g82
g63
NtRp336
(dp337
g66
(dp338
g86
g87
ssg75
g332
sg68
(lp339
S'expires'
p340
asbag61
(g82
g63
NtRp341
(dp342
g66
(dp343
g93
g94
ssg75
g332
sg68
(lp344
S':'
asbag61
(g82
g63
NtRp345
(dp346
g66
(dp347
sg75
g332
sg68
(lp348
g61
(g62
g63
NtRp349
(dp350
g66
(dp351
g74
I3
ssg75
g345
sg68
(lp352
S''
asbasbasbag61
(g77
g63
NtRp353
(dp354
g66
(dp355
sg75
g286
sg68
(lp356
g61
(g82
g63
NtRp357
(dp358
g66
(dp359
g86
g87
ssg75
g353
sg68
(lp360
S'httponly'
p361
asbag61
(g82
g63
NtRp362
(dp363
g66
(dp364
g93
g94
ssg75
g353
sg68
(lp365
S':'
asbag61
(g82
g63
NtRp366
(dp367
g66
(dp368
sg75
g353
sg68
(lp369
g61
(g62
g63
NtRp370
(dp371
g66
(dp372
g74
I3
ssg75
g366
sg68
(lp373
S''
asbasbasbag61
(g77
g63
NtRp374
(dp375
g66
(dp376
sg75
g286
sg68
(lp377
g61
(g82
g63
NtRp378
(dp379
g66
(dp380
g86
g87
ssg75
g374
sg68
(lp381
S'max-age'
p382
asbag61
(g82
g63
NtRp383
(dp384
g66
(dp385
g93
g94
ssg75
g374
sg68
(lp386
S':'
asbag61
(g82
g63
NtRp387
(dp388
g66
(dp389
sg75
g374
sg68
(lp390
g61
(g62
g63
NtRp391
(dp392
g66
(dp393
g74
I3
ssg75
g387
sg68
(lp394
S''
asbasbasbag61
(g77
g63
NtRp395
(dp396
g66
(dp397
sg75
g286
sg68
(lp398
g61
(g82
g63
NtRp399
(dp400
g66
(dp401
g86
g87
ssg75
g395
sg68
(lp402
S'path'
p403
asbag61
(g82
g63
NtRp404
(dp405
g66
(dp406
g93
g94
ssg75
g395
sg68
(lp407
S':'
asbag61
(g82
g63
NtRp408
(dp409
g66
(dp410
sg75
g395
sg68
(lp411
g61
(g62
g63
NtRp412
(dp413
g66
(dp414
g74
I3
ssg75
g408
sg68
(lp415
S''
asbasbasbag61
(g77
g63
NtRp416
(dp417
g66
(dp418
sg75
g286
sg68
(lp419
g61
(g82
g63
NtRp420
(dp421
g66
(dp422
g86
g87
ssg75
g416
sg68
(lp423
S'secure'
p424
asbag61
(g82
g63
NtRp425
(dp426
g66
(dp427
g93
g94
ssg75
g416
sg68
(lp428
S':'
asbag61
(g82
g63
NtRp429
(dp430
g66
(dp431
sg75
g416
sg68
(lp432
g61
(g62
g63
NtRp433
(dp434
g66
(dp435
g74
I3
ssg75
g429
sg68
(lp436
S''
asbasbasbag61
(g77
g63
NtRp437
(dp438
g66
(dp439
sg75
g286
sg68
(lp440
g61
(g82
g63
NtRp441
(dp442
g66
(dp443
g86
g87
ssg75
g437
sg68
(lp444
S'version'
p445
asbag61
(g82
g63
NtRp446
(dp447
g66
(dp448
g93
g94
ssg75
g437
sg68
(lp449
S':'
asbag61
(g82
g63
NtRp450
(dp451
g66
(dp452
sg75
g437
sg68
(lp453
g61
(g62
g63
NtRp454
(dp455
g66
(dp456
g74
I3
ssg75
g450
sg68
(lp457
S''
asbasbasbasbasbasbasbag61
(g77
g63
NtRp458
(dp459
g66
(dp460
sg75
g260
sg68
(lp461
g61
(g82
g63
NtRp462
(dp463
g66
(dp464
g86
g87
ssg75
g458
sg68
(lp465
S'session_id_isas_portal'
p466
asbag61
(g82
g63
NtRp467
(dp468
g66
(dp469
g93
g94
ssg75
g458
sg68
(lp470
S':'
asbag61
(g82
g63
NtRp471
(dp472
g66
(dp473
sg75
g458
sg68
(lp474
g61
(g62
g63
NtRp475
(dp476
g66
(dp477
g74
I4
ssg75
g471
sg68
(lp478
S'127.0.0.1-34819d4e-510b-4573-85b4-19fec05e1966'
p479
ag61
(g70
g63
NtRp480
(dp481
g66
(dp482
g74
I3
ssg75
Nsg68
(lp483
g61
(g77
g63
NtRp484
(dp485
g66
(dp486
sg75
g480
sg68
(lp487
g61
(g82
g63
NtRp488
(dp489
g66
(dp490
g86
g87
ssg75
g484
sg68
(lp491
g298
asbag61
(g82
g63
NtRp492
(dp493
g66
(dp494
g93
g94
ssg75
g484
sg68
(lp495
S':'
asbag61
(g82
g63
NtRp496
(dp497
g66
(dp498
sg75
g484
sg68
(lp499
g61
(g62
g63
NtRp500
(dp501
g66
(dp502
g74
I3
ssg75
g496
sg68
(lp503
S''
asbasbasbag61
(g77
g63
NtRp504
(dp505
g66
(dp506
sg75
g480
sg68
(lp507
g61
(g82
g63
NtRp508
(dp509
g66
(dp510
g86
g87
ssg75
g504
sg68
(lp511
g319
asbag61
(g82
g63
NtRp512
(dp513
g66
(dp514
g93
g94
ssg75
g504
sg68
(lp515
S':'
asbag61
(g82
g63
NtRp516
(dp517
g66
(dp518
sg75
g504
sg68
(lp519
g61
(g62
g63
NtRp520
(dp521
g66
(dp522
g74
I3
ssg75
g516
sg68
(lp523
S''
asbasbasbag61
(g77
g63
NtRp524
(dp525
g66
(dp526
sg75
g480
sg68
(lp527
g61
(g82
g63
NtRp528
(dp529
g66
(dp530
g86
g87
ssg75
g524
sg68
(lp531
g340
asbag61
(g82
g63
NtRp532
(dp533
g66
(dp534
g93
g94
ssg75
g524
sg68
(lp535
S':'
asbag61
(g82
g63
NtRp536
(dp537
g66
(dp538
sg75
g524
sg68
(lp539
g61
(g62
g63
NtRp540
(dp541
g66
(dp542
g74
I3
ssg75
g536
sg68
(lp543
S''
asbasbasbag61
(g77
g63
NtRp544
(dp545
g66
(dp546
sg75
g480
sg68
(lp547
g61
(g82
g63
NtRp548
(dp549
g66
(dp550
g86
g87
ssg75
g544
sg68
(lp551
g361
asbag61
(g82
g63
NtRp552
(dp553
g66
(dp554
g93
g94
ssg75
g544
sg68
(lp555
S':'
asbag61
(g82
g63
NtRp556
(dp557
g66
(dp558
sg75
g544
sg68
(lp559
g61
(g62
g63
NtRp560
(dp561
g66
(dp562
g74
I3
ssg75
g556
sg68
(lp563
S''
asbasbasbag61
(g77
g63
NtRp564
(dp565
g66
(dp566
sg75
g480
sg68
(lp567
g61
(g82
g63
NtRp568
(dp569
g66
(dp570
g86
g87
ssg75
g564
sg68
(lp571
g382
asbag61
(g82
g63
NtRp572
(dp573
g66
(dp574
g93
g94
ssg75
g564
sg68
(lp575
S':'
asbag61
(g82
g63
NtRp576
(dp577
g66
(dp578
sg75
g564
sg68
(lp579
g61
(g62
g63
NtRp580
(dp581
g66
(dp582
g74
I3
ssg75
g576
sg68
(lp583
S''
asbasbasbag61
(g77
g63
NtRp584
(dp585
g66
(dp586
sg75
g480
sg68
(lp587
g61
(g82
g63
NtRp588
(dp589
g66
(dp590
g86
g87
ssg75
g584
sg68
(lp591
g403
asbag61
(g82
g63
NtRp592
(dp593
g66
(dp594
g93
g94
ssg75
g584
sg68
(lp595
S':'
asbag61
(g82
g63
NtRp596
(dp597
g66
(dp598
sg75
g584
sg68
(lp599
g61
(g62
g63
NtRp600
(dp601
g66
(dp602
g74
I3
ssg75
g596
sg68
(lp603
S''
asbasbasbag61
(g77
g63
NtRp604
(dp605
g66
(dp606
sg75
g480
sg68
(lp607
g61
(g82
g63
NtRp608
(dp609
g66
(dp610
g86
g87
ssg75
g604
sg68
(lp611
g424
asbag61
(g82
g63
NtRp612
(dp613
g66
(dp614
g93
g94
ssg75
g604
sg68
(lp615
S':'
asbag61
(g82
g63
NtRp616
(dp617
g66
(dp618
sg75
g604
sg68
(lp619
g61
(g62
g63
NtRp620
(dp621
g66
(dp622
g74
I3
ssg75
g616
sg68
(lp623
S''
asbasbasbag61
(g77
g63
NtRp624
(dp625
g66
(dp626
sg75
g480
sg68
(lp627
g61
(g82
g63
NtRp628
(dp629
g66
(dp630
g86
g87
ssg75
g624
sg68
(lp631
g445
asbag61
(g82
g63
NtRp632
(dp633
g66
(dp634
g93
g94
ssg75
g624
sg68
(lp635
S':'
asbag61
(g82
g63
NtRp636
(dp637
g66
(dp638
sg75
g624
sg68
(lp639
g61
(g62
g63
NtRp640
(dp641
g66
(dp642
g74
I3
ssg75
g636
sg68
(lp643
S''
asbasbasbasbasbasbasbag61
(g77
g63
NtRp644
(dp645
g66
(dp646
sg75
g260
sg68
(lp647
g61
(g82
g63
NtRp648
(dp649
g66
(dp650
g86
g87
ssg75
g644
sg68
(lp651
S'session_id_ssad'
p652
asbag61
(g82
g63
NtRp653
(dp654
g66
(dp655
g93
g94
ssg75
g644
sg68
(lp656
S':'
asbag61
(g82
g63
NtRp657
(dp658
g66
(dp659
sg75
g644
sg68
(lp660
g61
(g62
g63
NtRp661
(dp662
g66
(dp663
g74
I4
ssg75
g657
sg68
(lp664
S'127.0.0.1-83e42192-e5b1-45f6-a2c4-ccc32a5e5e70'
p665
ag61
(g70
g63
NtRp666
(dp667
g66
(dp668
g74
I3
ssg75
Nsg68
(lp669
g61
(g77
g63
NtRp670
(dp671
g66
(dp672
sg75
g666
sg68
(lp673
g61
(g82
g63
NtRp674
(dp675
g66
(dp676
g86
g87
ssg75
g670
sg68
(lp677
g298
asbag61
(g82
g63
NtRp678
(dp679
g66
(dp680
g93
g94
ssg75
g670
sg68
(lp681
S':'
asbag61
(g82
g63
NtRp682
(dp683
g66
(dp684
sg75
g670
sg68
(lp685
g61
(g62
g63
NtRp686
(dp687
g66
(dp688
g74
I3
ssg75
g682
sg68
(lp689
S''
asbasbasbag61
(g77
g63
NtRp690
(dp691
g66
(dp692
sg75
g666
sg68
(lp693
g61
(g82
g63
NtRp694
(dp695
g66
(dp696
g86
g87
ssg75
g690
sg68
(lp697
g319
asbag61
(g82
g63
NtRp698
(dp699
g66
(dp700
g93
g94
ssg75
g690
sg68
(lp701
S':'
asbag61
(g82
g63
NtRp702
(dp703
g66
(dp704
sg75
g690
sg68
(lp705
g61
(g62
g63
NtRp706
(dp707
g66
(dp708
g74
I3
ssg75
g702
sg68
(lp709
S''
asbasbasbag61
(g77
g63
NtRp710
(dp711
g66
(dp712
sg75
g666
sg68
(lp713
g61
(g82
g63
NtRp714
(dp715
g66
(dp716
g86
g87
ssg75
g710
sg68
(lp717
g340
asbag61
(g82
g63
NtRp718
(dp719
g66
(dp720
g93
g94
ssg75
g710
sg68
(lp721
S':'
asbag61
(g82
g63
NtRp722
(dp723
g66
(dp724
sg75
g710
sg68
(lp725
g61
(g62
g63
NtRp726
(dp727
g66
(dp728
g74
I3
ssg75
g722
sg68
(lp729
S''
asbasbasbag61
(g77
g63
NtRp730
(dp731
g66
(dp732
sg75
g666
sg68
(lp733
g61
(g82
g63
NtRp734
(dp735
g66
(dp736
g86
g87
ssg75
g730
sg68
(lp737
g361
asbag61
(g82
g63
NtRp738
(dp739
g66
(dp740
g93
g94
ssg75
g730
sg68
(lp741
S':'
asbag61
(g82
g63
NtRp742
(dp743
g66
(dp744
sg75
g730
sg68
(lp745
g61
(g62
g63
NtRp746
(dp747
g66
(dp748
g74
I3
ssg75
g742
sg68
(lp749
S''
asbasbasbag61
(g77
g63
NtRp750
(dp751
g66
(dp752
sg75
g666
sg68
(lp753
g61
(g82
g63
NtRp754
(dp755
g66
(dp756
g86
g87
ssg75
g750
sg68
(lp757
g382
asbag61
(g82
g63
NtRp758
(dp759
g66
(dp760
g93
g94
ssg75
g750
sg68
(lp761
S':'
asbag61
(g82
g63
NtRp762
(dp763
g66
(dp764
sg75
g750
sg68
(lp765
g61
(g62
g63
NtRp766
(dp767
g66
(dp768
g74
I3
ssg75
g762
sg68
(lp769
S''
asbasbasbag61
(g77
g63
NtRp770
(dp771
g66
(dp772
sg75
g666
sg68
(lp773
g61
(g82
g63
NtRp774
(dp775
g66
(dp776
g86
g87
ssg75
g770
sg68
(lp777
g403
asbag61
(g82
g63
NtRp778
(dp779
g66
(dp780
g93
g94
ssg75
g770
sg68
(lp781
S':'
asbag61
(g82
g63
NtRp782
(dp783
g66
(dp784
sg75
g770
sg68
(lp785
g61
(g62
g63
NtRp786
(dp787
g66
(dp788
g74
I3
ssg75
g782
sg68
(lp789
S''
asbasbasbag61
(g77
g63
NtRp790
(dp791
g66
(dp792
sg75
g666
sg68
(lp793
g61
(g82
g63
NtRp794
(dp795
g66
(dp796
g86
g87
ssg75
g790
sg68
(lp797
g424
asbag61
(g82
g63
NtRp798
(dp799
g66
(dp800
g93
g94
ssg75
g790
sg68
(lp801
S':'
asbag61
(g82
g63
NtRp802
(dp803
g66
(dp804
sg75
g790
sg68
(lp805
g61
(g62
g63
NtRp806
(dp807
g66
(dp808
g74
I3
ssg75
g802
sg68
(lp809
S''
asbasbasbag61
(g77
g63
NtRp810
(dp811
g66
(dp812
sg75
g666
sg68
(lp813
g61
(g82
g63
NtRp814
(dp815
g66
(dp816
g86
g87
ssg75
g810
sg68
(lp817
g445
asbag61
(g82
g63
NtRp818
(dp819
g66
(dp820
g93
g94
ssg75
g810
sg68
(lp821
S':'
asbag61
(g82
g63
NtRp822
(dp823
g66
(dp824
sg75
g810
sg68
(lp825
g61
(g62
g63
NtRp826
(dp827
g66
(dp828
g74
I3
ssg75
g822
sg68
(lp829
S''
asbasbasbasbasbasbasbag61
(g77
g63
NtRp830
(dp831
g66
(dp832
sg75
g260
sg68
(lp833
g61
(g82
g63
NtRp834
(dp835
g66
(dp836
g86
g87
ssg75
g830
sg68
(lp837
S'session_id_welcome'
p838
asbag61
(g82
g63
NtRp839
(dp840
g66
(dp841
g93
g94
ssg75
g830
sg68
(lp842
S':'
asbag61
(g82
g63
NtRp843
(dp844
g66
(dp845
sg75
g830
sg68
(lp846
g61
(g62
g63
NtRp847
(dp848
g66
(dp849
g74
I4
ssg75
g843
sg68
(lp850
S'127.0.0.1-ae45e695-e937-420f-801a-73df7553f64a'
p851
ag61
(g70
g63
NtRp852
(dp853
g66
(dp854
g74
I3
ssg75
Nsg68
(lp855
g61
(g77
g63
NtRp856
(dp857
g66
(dp858
sg75
g852
sg68
(lp859
g61
(g82
g63
NtRp860
(dp861
g66
(dp862
g86
g87
ssg75
g856
sg68
(lp863
g298
asbag61
(g82
g63
NtRp864
(dp865
g66
(dp866
g93
g94
ssg75
g856
sg68
(lp867
S':'
asbag61
(g82
g63
NtRp868
(dp869
g66
(dp870
sg75
g856
sg68
(lp871
g61
(g62
g63
NtRp872
(dp873
g66
(dp874
g74
I3
ssg75
g868
sg68
(lp875
S''
asbasbasbag61
(g77
g63
NtRp876
(dp877
g66
(dp878
sg75
g852
sg68
(lp879
g61
(g82
g63
NtRp880
(dp881
g66
(dp882
g86
g87
ssg75
g876
sg68
(lp883
g319
asbag61
(g82
g63
NtRp884
(dp885
g66
(dp886
g93
g94
ssg75
g876
sg68
(lp887
S':'
asbag61
(g82
g63
NtRp888
(dp889
g66
(dp890
sg75
g876
sg68
(lp891
g61
(g62
g63
NtRp892
(dp893
g66
(dp894
g74
I3
ssg75
g888
sg68
(lp895
S''
asbasbasbag61
(g77
g63
NtRp896
(dp897
g66
(dp898
sg75
g852
sg68
(lp899
g61
(g82
g63
NtRp900
(dp901
g66
(dp902
g86
g87
ssg75
g896
sg68
(lp903
g340
asbag61
(g82
g63
NtRp904
(dp905
g66
(dp906
g93
g94
ssg75
g896
sg68
(lp907
S':'
asbag61
(g82
g63
NtRp908
(dp909
g66
(dp910
sg75
g896
sg68
(lp911
g61
(g62
g63
NtRp912
(dp913
g66
(dp914
g74
I3
ssg75
g908
sg68
(lp915
S''
asbasbasbag61
(g77
g63
NtRp916
(dp917
g66
(dp918
sg75
g852
sg68
(lp919
g61
(g82
g63
NtRp920
(dp921
g66
(dp922
g86
g87
ssg75
g916
sg68
(lp923
g361
asbag61
(g82
g63
NtRp924
(dp925
g66
(dp926
g93
g94
ssg75
g916
sg68
(lp927
S':'
asbag61
(g82
g63
NtRp928
(dp929
g66
(dp930
sg75
g916
sg68
(lp931
g61
(g62
g63
NtRp932
(dp933
g66
(dp934
g74
I3
ssg75
g928
sg68
(lp935
S''
asbasbasbag61
(g77
g63
NtRp936
(dp937
g66
(dp938
sg75
g852
sg68
(lp939
g61
(g82
g63
NtRp940
(dp941
g66
(dp942
g86
g87
ssg75
g936
sg68
(lp943
g382
asbag61
(g82
g63
NtRp944
(dp945
g66
(dp946
g93
g94
ssg75
g936
sg68
(lp947
S':'
asbag61
(g82
g63
NtRp948
(dp949
g66
(dp950
sg75
g936
sg68
(lp951
g61
(g62
g63
NtRp952
(dp953
g66
(dp954
g74
I3
ssg75
g948
sg68
(lp955
S''
asbasbasbag61
(g77
g63
NtRp956
(dp957
g66
(dp958
sg75
g852
sg68
(lp959
g61
(g82
g63
NtRp960
(dp961
g66
(dp962
g86
g87
ssg75
g956
sg68
(lp963
g403
asbag61
(g82
g63
NtRp964
(dp965
g66
(dp966
g93
g94
ssg75
g956
sg68
(lp967
S':'
asbag61
(g82
g63
NtRp968
(dp969
g66
(dp970
sg75
g956
sg68
(lp971
g61
(g62
g63
NtRp972
(dp973
g66
(dp974
g74
I3
ssg75
g968
sg68
(lp975
S''
asbasbasbag61
(g77
g63
NtRp976
(dp977
g66
(dp978
sg75
g852
sg68
(lp979
g61
(g82
g63
NtRp980
(dp981
g66
(dp982
g86
g87
ssg75
g976
sg68
(lp983
g424
asbag61
(g82
g63
NtRp984
(dp985
g66
(dp986
g93
g94
ssg75
g976
sg68
(lp987
S':'
asbag61
(g82
g63
NtRp988
(dp989
g66
(dp990
sg75
g976
sg68
(lp991
g61
(g62
g63
NtRp992
(dp993
g66
(dp994
g74
I3
ssg75
g988
sg68
(lp995
S''
asbasbasbag61
(g77
g63
NtRp996
(dp997
g66
(dp998
sg75
g852
sg68
(lp999
g61
(g82
g63
NtRp1000
(dp1001
g66
(dp1002
g86
g87
ssg75
g996
sg68
(lp1003
g445
asbag61
(g82
g63
NtRp1004
(dp1005
g66
(dp1006
g93
g94
ssg75
g996
sg68
(lp1007
S':'
asbag61
(g82
g63
NtRp1008
(dp1009
g66
(dp1010
sg75
g996
sg68
(lp1011
g61
(g62
g63
NtRp1012
(dp1013
g66
(dp1014
g74
I3
ssg75
g1008
sg68
(lp1015
S''
asbasbasbasbasbasbasbasbasbasbasbag61
(g77
g63
NtRp1016
(dp1017
g66
(dp1018
sg75
g71
sg68
(lp1019
g61
(g82
g63
NtRp1020
(dp1021
g66
(dp1022
g86
g87
ssg75
g1016
sg68
(lp1023
S'env'
p1024
asbag61
(g82
g63
NtRp1025
(dp1026
g66
(dp1027
g93
g94
ssg75
g1016
sg68
(lp1028
S':'
asbag61
(g82
g63
NtRp1029
(dp1030
g66
(dp1031
sg75
g1016
sg68
(lp1032
g61
(g62
g63
NtRp1033
(dp1034
g66
(dp1035
g74
I5
ssg75
g1029
sg68
(lp1036
g61
(g70
g63
NtRp1037
(dp1038
g66
(dp1039
g74
I4
ssg75
Nsg68
(lp1040
g61
(g77
g63
NtRp1041
(dp1042
g66
(dp1043
sg75
g1037
sg68
(lp1044
g61
(g82
g63
NtRp1045
(dp1046
g66
(dp1047
g86
g87
ssg75
g1041
sg68
(lp1048
S'app_folders'
p1049
asbag61
(g82
g63
NtRp1050
(dp1051
g66
(dp1052
g93
g94
ssg75
g1041
sg68
(lp1053
S':'
asbag61
(g82
g63
NtRp1054
(dp1055
g66
(dp1056
sg75
g1041
sg68
(lp1057
g61
(g62
g63
NtRp1058
(dp1059
g66
(dp1060
g74
I4
ssg75
g1054
sg68
(lp1061
S"set(['/home/urvashi/Desktop/WEB2PY/web2py/applications/admin/', '/home/urvashi/Desktop/WEB2PY/web2py/applications/welcome/', '/home/urvashi/Desktop/WEB2PY/web2py/applications/ISAS_PORTAL/', '/home/urvashi/Desktop/WEB2PY/web2py/applications/SSAD/'])"
p1062
asbasbasbag61
(g77
g63
NtRp1063
(dp1064
g66
(dp1065
sg75
g1037
sg68
(lp1066
g61
(g82
g63
NtRp1067
(dp1068
g66
(dp1069
g86
g87
ssg75
g1063
sg68
(lp1070
S'applications_parent'
p1071
asbag61
(g82
g63
NtRp1072
(dp1073
g66
(dp1074
g93
g94
ssg75
g1063
sg68
(lp1075
S':'
asbag61
(g82
g63
NtRp1076
(dp1077
g66
(dp1078
sg75
g1063
sg68
(lp1079
g61
(g62
g63
NtRp1080
(dp1081
g66
(dp1082
g74
I4
ssg75
g1076
sg68
(lp1083
S'/home/urvashi/Desktop/WEB2PY/web2py'
p1084
asbasbasbag61
(g77
g63
NtRp1085
(dp1086
g66
(dp1087
sg75
g1037
sg68
(lp1088
g61
(g82
g63
NtRp1089
(dp1090
g66
(dp1091
g86
g87
ssg75
g1085
sg68
(lp1092
S'cmd_args'
p1093
asbag61
(g82
g63
NtRp1094
(dp1095
g66
(dp1096
g93
g94
ssg75
g1085
sg68
(lp1097
S':'
asbag61
(g82
g63
NtRp1098
(dp1099
g66
(dp1100
sg75
g1085
sg68
(lp1101
g61
(g62
g63
NtRp1102
(dp1103
g66
(dp1104
g74
I4
ssg75
g1098
sg68
(lp1105
g61
(g70
g63
NtRp1106
(dp1107
g66
(dp1108
g74
I3
ssg75
Nsg68
(lp1109
sbasbasbasbag61
(g77
g63
NtRp1110
(dp1111
g66
(dp1112
sg75
g1037
sg68
(lp1113
g61
(g82
g63
NtRp1114
(dp1115
g66
(dp1116
g86
g87
ssg75
g1110
sg68
(lp1117
S'cmd_options'
p1118
asbag61
(g82
g63
NtRp1119
(dp1120
g66
(dp1121
g93
g94
ssg75
g1110
sg68
(lp1122
S':'
asbag61
(g82
g63
NtRp1123
(dp1124
g66
(dp1125
sg75
g1110
sg68
(lp1126
g61
(g62
g63
NtRp1127
(dp1128
g66
(dp1129
g74
I4
ssg75
g1123
sg68
(lp1130
S"<Values at 0x21b1518: {'verbose': False, 'ip': '127.0.0.1', 'with_scheduler': False, 'ips': [], 'shutdown_timeout': 5, 'taskbar': False, 'port': 8000, 'maxthreads': None, 'softcron': False, 'server_name': 'urvashi-VPCEH35EN', 'bpython': False, 'nogui': False, 'pid_filename': 'httpserver.pid', 'extcron': False, 'runcron': False, 'run_system_tests': False, 'test': None, 'folder': '/home/urvashi/Desktop/WEB2PY/web2py', 'config': '', 'minthreads': None, 'winservice': '', 'shell': None, 'run': '', 'log_filename': 'httpserver.log', 'debuglevel': 30, 'args': [''], 'socket_timeout': 5, 'ssl_ca_certificate': None, 'scheduler': None, 'profiler_filename': None, 'ssl_private_key': '', 'scheduler_groups': None, 'password': '123', 'request_queue_size': 5, 'ssl_certificate': '', 'cronjob': False, 'numthreads': None, 'quiet': False, 'interfaces': None, 'import_models': False, 'timeout': 10, 'plain': False, 'nobanner': False}>"
p1131
asbasbasbag61
(g77
g63
NtRp1132
(dp1133
g66
(dp1134
sg75
g1037
sg68
(lp1135
g61
(g82
g63
NtRp1136
(dp1137
g66
(dp1138
g86
g87
ssg75
g1132
sg68
(lp1139
S'db_sessions'
p1140
asbag61
(g82
g63
NtRp1141
(dp1142
g66
(dp1143
g93
g94
ssg75
g1132
sg68
(lp1144
S':'
asbag61
(g82
g63
NtRp1145
(dp1146
g66
(dp1147
sg75
g1132
sg68
(lp1148
g61
(g62
g63
NtRp1149
(dp1150
g66
(dp1151
g74
I4
ssg75
g1145
sg68
(lp1152
S'set([])'
p1153
asbasbasbag61
(g77
g63
NtRp1154
(dp1155
g66
(dp1156
sg75
g1037
sg68
(lp1157
g61
(g82
g63
NtRp1158
(dp1159
g66
(dp1160
g86
g87
ssg75
g1154
sg68
(lp1161
S'debugging'
p1162
asbag61
(g82
g63
NtRp1163
(dp1164
g66
(dp1165
g93
g94
ssg75
g1154
sg68
(lp1166
S':'
asbag61
(g82
g63
NtRp1167
(dp1168
g66
(dp1169
sg75
g1154
sg68
(lp1170
g61
(g62
g63
NtRp1171
(dp1172
g66
(dp1173
g74
I4
ssg75
g1167
sg68
(lp1174
g104
asbasbasbag61
(g77
g63
NtRp1175
(dp1176
g66
(dp1177
sg75
g1037
sg68
(lp1178
g61
(g82
g63
NtRp1179
(dp1180
g66
(dp1181
g86
g87
ssg75
g1175
sg68
(lp1182
S'gluon_parent'
p1183
asbag61
(g82
g63
NtRp1184
(dp1185
g66
(dp1186
g93
g94
ssg75
g1175
sg68
(lp1187
S':'
asbag61
(g82
g63
NtRp1188
(dp1189
g66
(dp1190
sg75
g1175
sg68
(lp1191
g61
(g62
g63
NtRp1192
(dp1193
g66
(dp1194
g74
I4
ssg75
g1188
sg68
(lp1195
S'/home/urvashi/Desktop/WEB2PY/web2py'
p1196
asbasbasbag61
(g77
g63
NtRp1197
(dp1198
g66
(dp1199
sg75
g1037
sg68
(lp1200
g61
(g82
g63
NtRp1201
(dp1202
g66
(dp1203
g86
g87
ssg75
g1197
sg68
(lp1204
S'http_accept'
p1205
asbag61
(g82
g63
NtRp1206
(dp1207
g66
(dp1208
g93
g94
ssg75
g1197
sg68
(lp1209
S':'
asbag61
(g82
g63
NtRp1210
(dp1211
g66
(dp1212
sg75
g1197
sg68
(lp1213
g61
(g62
g63
NtRp1214
(dp1215
g66
(dp1216
g74
I4
ssg75
g1210
sg68
(lp1217
S'text/html,application/xhtml+xml,application/xml;q=0.9,*/*;q=0.8'
p1218
asbasbasbag61
(g77
g63
NtRp1219
(dp1220
g66
(dp1221
sg75
g1037
sg68
(lp1222
g61
(g82
g63
NtRp1223
(dp1224
g66
(dp1225
g86
g87
ssg75
g1219
sg68
(lp1226
S'http_accept_encoding'
p1227
asbag61
(g82
g63
NtRp1228
(dp1229
g66
(dp1230
g93
g94
ssg75
g1219
sg68
(lp1231
S':'
asbag61
(g82
g63
NtRp1232
(dp1233
g66
(dp1234
sg75
g1219
sg68
(lp1235
g61
(g62
g63
NtRp1236
(dp1237
g66
(dp1238
g74
I4
ssg75
g1232
sg68
(lp1239
S'gzip, deflate'
p1240
asbasbasbag61
(g77
g63
NtRp1241
(dp1242
g66
(dp1243
sg75
g1037
sg68
(lp1244
g61
(g82
g63
NtRp1245
(dp1246
g66
(dp1247
g86
g87
ssg75
g1241
sg68
(lp1248
S'http_accept_language'
p1249
asbag61
(g82
g63
NtRp1250
(dp1251
g66
(dp1252
g93
g94
ssg75
g1241
sg68
(lp1253
S':'
asbag61
(g82
g63
NtRp1254
(dp1255
g66
(dp1256
sg75
g1241
sg68
(lp1257
g61
(g62
g63
NtRp1258
(dp1259
g66
(dp1260
g74
I4
ssg75
g1254
sg68
(lp1261
S'en-us,en;q=0.5'
p1262
asbasbasbag61
(g77
g63
NtRp1263
(dp1264
g66
(dp1265
sg75
g1037
sg68
(lp1266
g61
(g82
g63
NtRp1267
(dp1268
g66
(dp1269
g86
g87
ssg75
g1263
sg68
(lp1270
S'http_connection'
p1271
asbag61
(g82
g63
NtRp1272
(dp1273
g66
(dp1274
g93
g94
ssg75
g1263
sg68
(lp1275
S':'
asbag61
(g82
g63
NtRp1276
(dp1277
g66
(dp1278
sg75
g1263
sg68
(lp1279
g61
(g62
g63
NtRp1280
(dp1281
g66
(dp1282
g74
I4
ssg75
g1276
sg68
(lp1283
S'keep-alive'
p1284
asbasbasbag61
(g77
g63
NtRp1285
(dp1286
g66
(dp1287
sg75
g1037
sg68
(lp1288
g61
(g82
g63
NtRp1289
(dp1290
g66
(dp1291
g86
g87
ssg75
g1285
sg68
(lp1292
S'http_cookie'
p1293
asbag61
(g82
g63
NtRp1294
(dp1295
g66
(dp1296
g93
g94
ssg75
g1285
sg68
(lp1297
S':'
asbag61
(g82
g63
NtRp1298
(dp1299
g66
(dp1300
sg75
g1285
sg68
(lp1301
g61
(g62
g63
NtRp1302
(dp1303
g66
(dp1304
g74
I4
ssg75
g1298
sg68
(lp1305
S'session_id_welcome=127.0.0.1-ae45e695-e937-420f-801a-73df7553f64a; session_id_admin=127.0.0.1-5083e7c3-8a51-4296-80f8-514c399375cc; session_id_ssad=127.0.0.1-83e42192-e5b1-45f6-a2c4-ccc32a5e5e70; session_id_isas_portal=127.0.0.1-34819d4e-510b-4573-85b4-19fec05e1966'
p1306
asbasbasbag61
(g77
g63
NtRp1307
(dp1308
g66
(dp1309
sg75
g1037
sg68
(lp1310
g61
(g82
g63
NtRp1311
(dp1312
g66
(dp1313
g86
g87
ssg75
g1307
sg68
(lp1314
S'http_host'
p1315
asbag61
(g82
g63
NtRp1316
(dp1317
g66
(dp1318
g93
g94
ssg75
g1307
sg68
(lp1319
S':'
asbag61
(g82
g63
NtRp1320
(dp1321
g66
(dp1322
sg75
g1307
sg68
(lp1323
g61
(g62
g63
NtRp1324
(dp1325
g66
(dp1326
g74
I4
ssg75
g1320
sg68
(lp1327
S'127.0.0.1:8000'
p1328
asbasbasbag61
(g77
g63
NtRp1329
(dp1330
g66
(dp1331
sg75
g1037
sg68
(lp1332
g61
(g82
g63
NtRp1333
(dp1334
g66
(dp1335
g86
g87
ssg75
g1329
sg68
(lp1336
S'http_referer'
p1337
asbag61
(g82
g63
NtRp1338
(dp1339
g66
(dp1340
g93
g94
ssg75
g1329
sg68
(lp1341
S':'
asbag61
(g82
g63
NtRp1342
(dp1343
g66
(dp1344
sg75
g1329
sg68
(lp1345
g61
(g62
g63
NtRp1346
(dp1347
g66
(dp1348
g74
I4
ssg75
g1342
sg68
(lp1349
S'http://127.0.0.1:8000/SSAD/default/delete_user'
p1350
asbasbasbag61
(g77
g63
NtRp1351
(dp1352
g66
(dp1353
sg75
g1037
sg68
(lp1354
g61
(g82
g63
NtRp1355
(dp1356
g66
(dp1357
g86
g87
ssg75
g1351
sg68
(lp1358
S'http_user_agent'
p1359
asbag61
(g82
g63
NtRp1360
(dp1361
g66
(dp1362
g93
g94
ssg75
g1351
sg68
(lp1363
S':'
asbag61
(g82
g63
NtRp1364
(dp1365
g66
(dp1366
sg75
g1351
sg68
(lp1367
g61
(g62
g63
NtRp1368
(dp1369
g66
(dp1370
g74
I4
ssg75
g1364
sg68
(lp1371
S'Mozilla/5.0 (X11; Ubuntu; Linux x86_64; rv:11.0) Gecko/20100101 Firefox/11.0'
p1372
asbasbasbag61
(g77
g63
NtRp1373
(dp1374
g66
(dp1375
sg75
g1037
sg68
(lp1376
g61
(g82
g63
NtRp1377
(dp1378
g66
(dp1379
g86
g87
ssg75
g1373
sg68
(lp1380
S'is_jython'
p1381
asbag61
(g82
g63
NtRp1382
(dp1383
g66
(dp1384
g93
g94
ssg75
g1373
sg68
(lp1385
S':'
asbag61
(g82
g63
NtRp1386
(dp1387
g66
(dp1388
sg75
g1373
sg68
(lp1389
g61
(g62
g63
NtRp1390
(dp1391
g66
(dp1392
g74
I4
ssg75
g1386
sg68
(lp1393
g104
asbasbasbag61
(g77
g63
NtRp1394
(dp1395
g66
(dp1396
sg75
g1037
sg68
(lp1397
g61
(g82
g63
NtRp1398
(dp1399
g66
(dp1400
g86
g87
ssg75
g1394
sg68
(lp1401
S'is_pypy'
p1402
asbag61
(g82
g63
NtRp1403
(dp1404
g66
(dp1405
g93
g94
ssg75
g1394
sg68
(lp1406
S':'
asbag61
(g82
g63
NtRp1407
(dp1408
g66
(dp1409
sg75
g1394
sg68
(lp1410
g61
(g62
g63
NtRp1411
(dp1412
g66
(dp1413
g74
I4
ssg75
g1407
sg68
(lp1414
g104
asbasbasbag61
(g77
g63
NtRp1415
(dp1416
g66
(dp1417
sg75
g1037
sg68
(lp1418
g61
(g82
g63
NtRp1419
(dp1420
g66
(dp1421
g86
g87
ssg75
g1415
sg68
(lp1422
S'local_hosts'
p1423
asbag61
(g82
g63
NtRp1424
(dp1425
g66
(dp1426
g93
g94
ssg75
g1415
sg68
(lp1427
S':'
asbag61
(g82
g63
NtRp1428
(dp1429
g66
(dp1430
sg75
g1415
sg68
(lp1431
g61
(g62
g63
NtRp1432
(dp1433
g66
(dp1434
g74
I4
ssg75
g1428
sg68
(lp1435
g61
(g70
g63
NtRp1436
(dp1437
g66
(dp1438
g74
I3
ssg75
Nsg68
(lp1439
g61
(g77
g63
NtRp1440
(dp1441
g66
(dp1442
sg75
g1436
sg68
(lp1443
g61
(g82
g63
NtRp1444
(dp1445
g66
(dp1446
sg75
g1440
sg68
(lp1447
g61
(g62
g63
NtRp1448
(dp1449
g66
(dp1450
g74
I3
ssg75
g1444
sg68
(lp1451
S'::1'
p1452
asbasbasbag61
(g77
g63
NtRp1453
(dp1454
g66
(dp1455
sg75
g1436
sg68
(lp1456
g61
(g82
g63
NtRp1457
(dp1458
g66
(dp1459
sg75
g1453
sg68
(lp1460
g61
(g62
g63
NtRp1461
(dp1462
g66
(dp1463
g74
I3
ssg75
g1457
sg68
(lp1464
S'127.0.1.1'
p1465
asbasbasbag61
(g77
g63
NtRp1466
(dp1467
g66
(dp1468
sg75
g1436
sg68
(lp1469
g61
(g82
g63
NtRp1470
(dp1471
g66
(dp1472
sg75
g1466
sg68
(lp1473
g61
(g62
g63
NtRp1474
(dp1475
g66
(dp1476
g74
I3
ssg75
g1470
sg68
(lp1477
S'::ffff:127.0.0.1'
p1478
asbasbasbag61
(g77
g63
NtRp1479
(dp1480
g66
(dp1481
sg75
g1436
sg68
(lp1482
g61
(g82
g63
NtRp1483
(dp1484
g66
(dp1485
sg75
g1479
sg68
(lp1486
g61
(g62
g63
NtRp1487
(dp1488
g66
(dp1489
g74
I3
ssg75
g1483
sg68
(lp1490
S'127.0.0.1'
p1491
asbasbasbag61
(g77
g63
NtRp1492
(dp1493
g66
(dp1494
sg75
g1436
sg68
(lp1495
g61
(g82
g63
NtRp1496
(dp1497
g66
(dp1498
sg75
g1492
sg68
(lp1499
g61
(g62
g63
NtRp1500
(dp1501
g66
(dp1502
g74
I3
ssg75
g1496
sg68
(lp1503
S'urvashi-VPCEH35EN'
p1504
asbasbasbasbasbasbasbag61
(g77
g63
NtRp1505
(dp1506
g66
(dp1507
sg75
g1037
sg68
(lp1508
g61
(g82
g63
NtRp1509
(dp1510
g66
(dp1511
g86
g87
ssg75
g1505
sg68
(lp1512
S'path_info'
p1513
asbag61
(g82
g63
NtRp1514
(dp1515
g66
(dp1516
g93
g94
ssg75
g1505
sg68
(lp1517
S':'
asbag61
(g82
g63
NtRp1518
(dp1519
g66
(dp1520
sg75
g1505
sg68
(lp1521
g61
(g62
g63
NtRp1522
(dp1523
g66
(dp1524
g74
I4
ssg75
g1518
sg68
(lp1525
S'/SSAD/default/delete_user_2'
p1526
asbasbasbag61
(g77
g63
NtRp1527
(dp1528
g66
(dp1529
sg75
g1037
sg68
(lp1530
g61
(g82
g63
NtRp1531
(dp1532
g66
(dp1533
g86
g87
ssg75
g1527
sg68
(lp1534
S'query_string'
p1535
asbag61
(g82
g63
NtRp1536
(dp1537
g66
(dp1538
g93
g94
ssg75
g1527
sg68
(lp1539
S':'
asbag61
(g82
g63
NtRp1540
(dp1541
g66
(dp1542
sg75
g1527
sg68
(lp1543
g61
(g62
g63
NtRp1544
(dp1545
g66
(dp1546
g74
I4
ssg75
g1540
sg68
(lp1547
S'usrname=2'
p1548
asbasbasbag61
(g77
g63
NtRp1549
(dp1550
g66
(dp1551
sg75
g1037
sg68
(lp1552
g61
(g82
g63
NtRp1553
(dp1554
g66
(dp1555
g86
g87
ssg75
g1549
sg68
(lp1556
S'remote_addr'
p1557
asbag61
(g82
g63
NtRp1558
(dp1559
g66
(dp1560
g93
g94
ssg75
g1549
sg68
(lp1561
S':'
asbag61
(g82
g63
NtRp1562
(dp1563
g66
(dp1564
sg75
g1549
sg68
(lp1565
g61
(g62
g63
NtRp1566
(dp1567
g66
(dp1568
g74
I4
ssg75
g1562
sg68
(lp1569
g216
asbasbasbag61
(g77
g63
NtRp1570
(dp1571
g66
(dp1572
sg75
g1037
sg68
(lp1573
g61
(g82
g63
NtRp1574
(dp1575
g66
(dp1576
g86
g87
ssg75
g1570
sg68
(lp1577
S'remote_port'
p1578
asbag61
(g82
g63
NtRp1579
(dp1580
g66
(dp1581
g93
g94
ssg75
g1570
sg68
(lp1582
S':'
asbag61
(g82
g63
NtRp1583
(dp1584
g66
(dp1585
sg75
g1570
sg68
(lp1586
g61
(g62
g63
NtRp1587
(dp1588
g66
(dp1589
g74
I4
ssg75
g1583
sg68
(lp1590
S'36674'
p1591
asbasbasbag61
(g77
g63
NtRp1592
(dp1593
g66
(dp1594
sg75
g1037
sg68
(lp1595
g61
(g82
g63
NtRp1596
(dp1597
g66
(dp1598
g86
g87
ssg75
g1592
sg68
(lp1599
S'request_method'
p1600
asbag61
(g82
g63
NtRp1601
(dp1602
g66
(dp1603
g93
g94
ssg75
g1592
sg68
(lp1604
S':'
asbag61
(g82
g63
NtRp1605
(dp1606
g66
(dp1607
sg75
g1592
sg68
(lp1608
g61
(g62
g63
NtRp1609
(dp1610
g66
(dp1611
g74
I4
ssg75
g1605
sg68
(lp1612
S'GET'
p1613
asbasbasbag61
(g77
g63
NtRp1614
(dp1615
g66
(dp1616
sg75
g1037
sg68
(lp1617
g61
(g82
g63
NtRp1618
(dp1619
g66
(dp1620
g86
g87
ssg75
g1614
sg68
(lp1621
S'request_uri'
p1622
asbag61
(g82
g63
NtRp1623
(dp1624
g66
(dp1625
g93
g94
ssg75
g1614
sg68
(lp1626
S':'
asbag61
(g82
g63
NtRp1627
(dp1628
g66
(dp1629
sg75
g1614
sg68
(lp1630
g61
(g62
g63
NtRp1631
(dp1632
g66
(dp1633
g74
I4
ssg75
g1627
sg68
(lp1634
S'/SSAD/default/delete_user_2?usrname=2'
p1635
asbasbasbag61
(g77
g63
NtRp1636
(dp1637
g66
(dp1638
sg75
g1037
sg68
(lp1639
g61
(g82
g63
NtRp1640
(dp1641
g66
(dp1642
g86
g87
ssg75
g1636
sg68
(lp1643
S'script_name'
p1644
asbag61
(g82
g63
NtRp1645
(dp1646
g66
(dp1647
g93
g94
ssg75
g1636
sg68
(lp1648
S':'
asbag61
(g82
g63
NtRp1649
(dp1650
g66
(dp1651
sg75
g1636
sg68
(lp1652
g61
(g62
g63
NtRp1653
(dp1654
g66
(dp1655
g74
I4
ssg75
g1649
sg68
(lp1656
S''
asbasbasbag61
(g77
g63
NtRp1657
(dp1658
g66
(dp1659
sg75
g1037
sg68
(lp1660
g61
(g82
g63
NtRp1661
(dp1662
g66
(dp1663
g86
g87
ssg75
g1657
sg68
(lp1664
S'server_name'
p1665
asbag61
(g82
g63
NtRp1666
(dp1667
g66
(dp1668
g93
g94
ssg75
g1657
sg68
(lp1669
S':'
asbag61
(g82
g63
NtRp1670
(dp1671
g66
(dp1672
sg75
g1657
sg68
(lp1673
g61
(g62
g63
NtRp1674
(dp1675
g66
(dp1676
g74
I4
ssg75
g1670
sg68
(lp1677
S'urvashi-VPCEH35EN'
p1678
asbasbasbag61
(g77
g63
NtRp1679
(dp1680
g66
(dp1681
sg75
g1037
sg68
(lp1682
g61
(g82
g63
NtRp1683
(dp1684
g66
(dp1685
g86
g87
ssg75
g1679
sg68
(lp1686
S'server_port'
p1687
asbag61
(g82
g63
NtRp1688
(dp1689
g66
(dp1690
g93
g94
ssg75
g1679
sg68
(lp1691
S':'
asbag61
(g82
g63
NtRp1692
(dp1693
g66
(dp1694
sg75
g1679
sg68
(lp1695
g61
(g62
g63
NtRp1696
(dp1697
g66
(dp1698
g74
I4
ssg75
g1692
sg68
(lp1699
S'8000'
p1700
asbasbasbag61
(g77
g63
NtRp1701
(dp1702
g66
(dp1703
sg75
g1037
sg68
(lp1704
g61
(g82
g63
NtRp1705
(dp1706
g66
(dp1707
g86
g87
ssg75
g1701
sg68
(lp1708
S'server_protocol'
p1709
asbag61
(g82
g63
NtRp1710
(dp1711
g66
(dp1712
g93
g94
ssg75
g1701
sg68
(lp1713
S':'
asbag61
(g82
g63
NtRp1714
(dp1715
g66
(dp1716
sg75
g1701
sg68
(lp1717
g61
(g62
g63
NtRp1718
(dp1719
g66
(dp1720
g74
I4
ssg75
g1714
sg68
(lp1721
S'HTTP/1.1'
p1722
asbasbasbag61
(g77
g63
NtRp1723
(dp1724
g66
(dp1725
sg75
g1037
sg68
(lp1726
g61
(g82
g63
NtRp1727
(dp1728
g66
(dp1729
g86
g87
ssg75
g1723
sg68
(lp1730
S'server_software'
p1731
asbag61
(g82
g63
NtRp1732
(dp1733
g66
(dp1734
g93
g94
ssg75
g1723
sg68
(lp1735
S':'
asbag61
(g82
g63
NtRp1736
(dp1737
g66
(dp1738
sg75
g1723
sg68
(lp1739
g61
(g62
g63
NtRp1740
(dp1741
g66
(dp1742
g74
I4
ssg75
g1736
sg68
(lp1743
S'Rocket 1.2.6'
p1744
asbasbasbag61
(g77
g63
NtRp1745
(dp1746
g66
(dp1747
sg75
g1037
sg68
(lp1748
g61
(g82
g63
NtRp1749
(dp1750
g66
(dp1751
g86
g87
ssg75
g1745
sg68
(lp1752
S'web2py_path'
p1753
asbag61
(g82
g63
NtRp1754
(dp1755
g66
(dp1756
g93
g94
ssg75
g1745
sg68
(lp1757
S':'
asbag61
(g82
g63
NtRp1758
(dp1759
g66
(dp1760
sg75
g1745
sg68
(lp1761
g61
(g62
g63
NtRp1762
(dp1763
g66
(dp1764
g74
I4
ssg75
g1758
sg68
(lp1765
g1084
asbasbasbag61
(g77
g63
NtRp1766
(dp1767
g66
(dp1768
sg75
g1037
sg68
(lp1769
g61
(g82
g63
NtRp1770
(dp1771
g66
(dp1772
g86
g87
ssg75
g1766
sg68
(lp1773
S'web2py_version'
p1774
asbag61
(g82
g63
NtRp1775
(dp1776
g66
(dp1777
g93
g94
ssg75
g1766
sg68
(lp1778
S':'
asbag61
(g82
g63
NtRp1779
(dp1780
g66
(dp1781
sg75
g1766
sg68
(lp1782
g61
(g62
g63
NtRp1783
(dp1784
g66
(dp1785
g74
I4
ssg75
g1779
sg68
(lp1786
g61
(g70
g63
NtRp1787
(dp1788
g66
(dp1789
g74
I3
ssg75
Nsg68
(lp1790
g61
(g77
g63
NtRp1791
(dp1792
g66
(dp1793
sg75
g1787
sg68
(lp1794
g61
(g82
g63
NtRp1795
(dp1796
g66
(dp1797
sg75
g1791
sg68
(lp1798
g61
(g62
g63
NtRp1799
(dp1800
g66
(dp1801
g74
I3
ssg75
g1795
sg68
(lp1802
S'2'
asbasbasbag61
(g77
g63
NtRp1803
(dp1804
g66
(dp1805
sg75
g1787
sg68
(lp1806
g61
(g82
g63
NtRp1807
(dp1808
g66
(dp1809
sg75
g1803
sg68
(lp1810
g61
(g62
g63
NtRp1811
(dp1812
g66
(dp1813
g74
I3
ssg75
g1807
sg68
(lp1814
S'3'
asbasbasbag61
(g77
g63
NtRp1815
(dp1816
g66
(dp1817
sg75
g1787
sg68
(lp1818
g61
(g82
g63
NtRp1819
(dp1820
g66
(dp1821
sg75
g1815
sg68
(lp1822
g61
(g62
g63
NtRp1823
(dp1824
g66
(dp1825
g74
I3
ssg75
g1819
sg68
(lp1826
S'2'
asbasbasbag61
(g77
g63
NtRp1827
(dp1828
g66
(dp1829
sg75
g1787
sg68
(lp1830
g61
(g82
g63
NtRp1831
(dp1832
g66
(dp1833
sg75
g1827
sg68
(lp1834
g61
(g62
g63
NtRp1835
(dp1836
g66
(dp1837
g74
I3
ssg75
g1831
sg68
(lp1838
S'datetime.datetime(2012, 12, 17, 15, 3, 30)'
p1839
asbasbasbag61
(g77
g63
NtRp1840
(dp1841
g66
(dp1842
sg75
g1787
sg68
(lp1843
g61
(g82
g63
NtRp1844
(dp1845
g66
(dp1846
sg75
g1840
sg68
(lp1847
g61
(g62
g63
NtRp1848
(dp1849
g66
(dp1850
g74
I3
ssg75
g1844
sg68
(lp1851
S'stable'
p1852
asbasbasbasbasbasbasbag61
(g77
g63
NtRp1853
(dp1854
g66
(dp1855
sg75
g1037
sg68
(lp1856
g61
(g82
g63
NtRp1857
(dp1858
g66
(dp1859
g86
g87
ssg75
g1853
sg68
(lp1860
S'wsgi_errors'
p1861
asbag61
(g82
g63
NtRp1862
(dp1863
g66
(dp1864
g93
g94
ssg75
g1853
sg68
(lp1865
S':'
asbag61
(g82
g63
NtRp1866
(dp1867
g66
(dp1868
sg75
g1853
sg68
(lp1869
g61
(g62
g63
NtRp1870
(dp1871
g66
(dp1872
g74
I4
ssg75
g1866
sg68
(lp1873
S"<open file '<stderr>', mode 'w' at 0x7f9f5e06a270>"
p1874
asbasbasbag61
(g77
g63
NtRp1875
(dp1876
g66
(dp1877
sg75
g1037
sg68
(lp1878
g61
(g82
g63
NtRp1879
(dp1880
g66
(dp1881
g86
g87
ssg75
g1875
sg68
(lp1882
S'wsgi_file_wrapper'
p1883
asbag61
(g82
g63
NtRp1884
(dp1885
g66
(dp1886
g93
g94
ssg75
g1875
sg68
(lp1887
S':'
asbag61
(g82
g63
NtRp1888
(dp1889
g66
(dp1890
sg75
g1875
sg68
(lp1891
g61
(g62
g63
NtRp1892
(dp1893
g66
(dp1894
g74
I4
ssg75
g1888
sg68
(lp1895
S'<class wsgiref.util.FileWrapper at 0x1d858d8>'
p1896
asbasbasbag61
(g77
g63
NtRp1897
(dp1898
g66
(dp1899
sg75
g1037
sg68
(lp1900
g61
(g82
g63
NtRp1901
(dp1902
g66
(dp1903
g86
g87
ssg75
g1897
sg68
(lp1904
S'wsgi_input'
p1905
asbag61
(g82
g63
NtRp1906
(dp1907
g66
(dp1908
g93
g94
ssg75
g1897
sg68
(lp1909
S':'
asbag61
(g82
g63
NtRp1910
(dp1911
g66
(dp1912
sg75
g1897
sg68
(lp1913
g61
(g62
g63
NtRp1914
(dp1915
g66
(dp1916
g74
I4
ssg75
g1910
sg68
(lp1917
S'<socket._fileobject object at 0x7f9f500635d0>'
p1918
asbasbasbag61
(g77
g63
NtRp1919
(dp1920
g66
(dp1921
sg75
g1037
sg68
(lp1922
g61
(g82
g63
NtRp1923
(dp1924
g66
(dp1925
g86
g87
ssg75
g1919
sg68
(lp1926
S'wsgi_multiprocess'
p1927
asbag61
(g82
g63
NtRp1928
(dp1929
g66
(dp1930
g93
g94
ssg75
g1919
sg68
(lp1931
S':'
asbag61
(g82
g63
NtRp1932
(dp1933
g66
(dp1934
sg75
g1919
sg68
(lp1935
g61
(g62
g63
NtRp1936
(dp1937
g66
(dp1938
g74
I4
ssg75
g1932
sg68
(lp1939
g104
asbasbasbag61
(g77
g63
NtRp1940
(dp1941
g66
(dp1942
sg75
g1037
sg68
(lp1943
g61
(g82
g63
NtRp1944
(dp1945
g66
(dp1946
g86
g87
ssg75
g1940
sg68
(lp1947
S'wsgi_multithread'
p1948
asbag61
(g82
g63
NtRp1949
(dp1950
g66
(dp1951
g93
g94
ssg75
g1940
sg68
(lp1952
S':'
asbag61
(g82
g63
NtRp1953
(dp1954
g66
(dp1955
sg75
g1940
sg68
(lp1956
g61
(g62
g63
NtRp1957
(dp1958
g66
(dp1959
g74
I4
ssg75
g1953
sg68
(lp1960
S'True'
p1961
asbasbasbag61
(g77
g63
NtRp1962
(dp1963
g66
(dp1964
sg75
g1037
sg68
(lp1965
g61
(g82
g63
NtRp1966
(dp1967
g66
(dp1968
g86
g87
ssg75
g1962
sg68
(lp1969
S'wsgi_run_once'
p1970
asbag61
(g82
g63
NtRp1971
(dp1972
g66
(dp1973
g93
g94
ssg75
g1962
sg68
(lp1974
S':'
asbag61
(g82
g63
NtRp1975
(dp1976
g66
(dp1977
sg75
g1962
sg68
(lp1978
g61
(g62
g63
NtRp1979
(dp1980
g66
(dp1981
g74
I4
ssg75
g1975
sg68
(lp1982
g104
asbasbasbag61
(g77
g63
NtRp1983
(dp1984
g66
(dp1985
sg75
g1037
sg68
(lp1986
g61
(g82
g63
NtRp1987
(dp1988
g66
(dp1989
g86
g87
ssg75
g1983
sg68
(lp1990
S'wsgi_url_scheme'
p1991
asbag61
(g82
g63
NtRp1992
(dp1993
g66
(dp1994
g93
g94
ssg75
g1983
sg68
(lp1995
S':'
asbag61
(g82
g63
NtRp1996
(dp1997
g66
(dp1998
sg75
g1983
sg68
(lp1999
g61
(g62
g63
NtRp2000
(dp2001
g66
(dp2002
g74
I4
ssg75
g1996
sg68
(lp2003
S'http'
p2004
asbasbasbag61
(g77
g63
NtRp2005
(dp2006
g66
(dp2007
sg75
g1037
sg68
(lp2008
g61
(g82
g63
NtRp2009
(dp2010
g66
(dp2011
g86
g87
ssg75
g2005
sg68
(lp2012
S'wsgi_version'
p2013
asbag61
(g82
g63
NtRp2014
(dp2015
g66
(dp2016
g93
g94
ssg75
g2005
sg68
(lp2017
S':'
asbag61
(g82
g63
NtRp2018
(dp2019
g66
(dp2020
sg75
g2005
sg68
(lp2021
g61
(g62
g63
NtRp2022
(dp2023
g66
(dp2024
g74
I4
ssg75
g2018
sg68
(lp2025
g61
(g70
g63
NtRp2026
(dp2027
g66
(dp2028
g74
I3
ssg75
Nsg68
(lp2029
g61
(g77
g63
NtRp2030
(dp2031
g66
(dp2032
sg75
g2026
sg68
(lp2033
g61
(g82
g63
NtRp2034
(dp2035
g66
(dp2036
sg75
g2030
sg68
(lp2037
g61
(g62
g63
NtRp2038
(dp2039
g66
(dp2040
g74
I3
ssg75
g2034
sg68
(lp2041
S'1'
asbasbasbag61
(g77
g63
NtRp2042
(dp2043
g66
(dp2044
sg75
g2026
sg68
(lp2045
g61
(g82
g63
NtRp2046
(dp2047
g66
(dp2048
sg75
g2042
sg68
(lp2049
g61
(g62
g63
NtRp2050
(dp2051
g66
(dp2052
g74
I3
ssg75
g2046
sg68
(lp2053
S'0'
asbasbasbasbasbasbasbasbasbasbasbag61
(g77
g63
NtRp2054
(dp2055
g66
(dp2056
sg75
g71
sg68
(lp2057
g61
(g82
g63
NtRp2058
(dp2059
g66
(dp2060
g86
g87
ssg75
g2054
sg68
(lp2061
S'extension'
p2062
asbag61
(g82
g63
NtRp2063
(dp2064
g66
(dp2065
g93
g94
ssg75
g2054
sg68
(lp2066
S':'
asbag61
(g82
g63
NtRp2067
(dp2068
g66
(dp2069
sg75
g2054
sg68
(lp2070
g61
(g62
g63
NtRp2071
(dp2072
g66
(dp2073
g74
I5
ssg75
g2067
sg68
(lp2074
S'html'
p2075
asbasbasbag61
(g77
g63
NtRp2076
(dp2077
g66
(dp2078
sg75
g71
sg68
(lp2079
g61
(g82
g63
NtRp2080
(dp2081
g66
(dp2082
g86
g87
ssg75
g2076
sg68
(lp2083
S'folder'
p2084
asbag61
(g82
g63
NtRp2085
(dp2086
g66
(dp2087
g93
g94
ssg75
g2076
sg68
(lp2088
S':'
asbag61
(g82
g63
NtRp2089
(dp2090
g66
(dp2091
sg75
g2076
sg68
(lp2092
g61
(g62
g63
NtRp2093
(dp2094
g66
(dp2095
g74
I5
ssg75
g2089
sg68
(lp2096
S'/home/urvashi/Desktop/WEB2PY/web2py/applications/SSAD/'
p2097
asbasbasbag61
(g77
g63
NtRp2098
(dp2099
g66
(dp2100
sg75
g71
sg68
(lp2101
g61
(g82
g63
NtRp2102
(dp2103
g66
(dp2104
g86
g87
ssg75
g2098
sg68
(lp2105
S'function'
p2106
asbag61
(g82
g63
NtRp2107
(dp2108
g66
(dp2109
g93
g94
ssg75
g2098
sg68
(lp2110
S':'
asbag61
(g82
g63
NtRp2111
(dp2112
g66
(dp2113
sg75
g2098
sg68
(lp2114
g61
(g62
g63
NtRp2115
(dp2116
g66
(dp2117
g74
I5
ssg75
g2111
sg68
(lp2118
S'delete_user_2'
p2119
asbasbasbag61
(g77
g63
NtRp2120
(dp2121
g66
(dp2122
sg75
g71
sg68
(lp2123
g61
(g82
g63
NtRp2124
(dp2125
g66
(dp2126
g86
g87
ssg75
g2120
sg68
(lp2127
S'get_vars'
p2128
asbag61
(g82
g63
NtRp2129
(dp2130
g66
(dp2131
g93
g94
ssg75
g2120
sg68
(lp2132
S':'
asbag61
(g82
g63
NtRp2133
(dp2134
g66
(dp2135
sg75
g2120
sg68
(lp2136
g61
(g62
g63
NtRp2137
(dp2138
g66
(dp2139
g74
I5
ssg75
g2133
sg68
(lp2140
g61
(g70
g63
NtRp2141
(dp2142
g66
(dp2143
g74
I4
ssg75
Nsg68
(lp2144
g61
(g77
g63
NtRp2145
(dp2146
g66
(dp2147
sg75
g2141
sg68
(lp2148
g61
(g82
g63
NtRp2149
(dp2150
g66
(dp2151
g86
g87
ssg75
g2145
sg68
(lp2152
S'usrname'
p2153
asbag61
(g82
g63
NtRp2154
(dp2155
g66
(dp2156
g93
g94
ssg75
g2145
sg68
(lp2157
S':'
asbag61
(g82
g63
NtRp2158
(dp2159
g66
(dp2160
sg75
g2145
sg68
(lp2161
g61
(g62
g63
NtRp2162
(dp2163
g66
(dp2164
g74
I4
ssg75
g2158
sg68
(lp2165
S'2'
asbasbasbasbasbasbasbag61
(g77
g63
NtRp2166
(dp2167
g66
(dp2168
sg75
g71
sg68
(lp2169
g61
(g82
g63
NtRp2170
(dp2171
g66
(dp2172
g86
g87
ssg75
g2166
sg68
(lp2173
S'global_settings'
p2174
asbag61
(g82
g63
NtRp2175
(dp2176
g66
(dp2177
g93
g94
ssg75
g2166
sg68
(lp2178
S':'
asbag61
(g82
g63
NtRp2179
(dp2180
g66
(dp2181
sg75
g2166
sg68
(lp2182
g61
(g62
g63
NtRp2183
(dp2184
g66
(dp2185
g74
I5
ssg75
g2179
sg68
(lp2186
g61
(g70
g63
NtRp2187
(dp2188
g66
(dp2189
g74
I4
ssg75
Nsg68
(lp2190
g61
(g77
g63
NtRp2191
(dp2192
g66
(dp2193
sg75
g2187
sg68
(lp2194
g61
(g82
g63
NtRp2195
(dp2196
g66
(dp2197
g86
g87
ssg75
g2191
sg68
(lp2198
g1049
asbag61
(g82
g63
NtRp2199
(dp2200
g66
(dp2201
g93
g94
ssg75
g2191
sg68
(lp2202
S':'
asbag61
(g82
g63
NtRp2203
(dp2204
g66
(dp2205
sg75
g2191
sg68
(lp2206
g61
(g62
g63
NtRp2207
(dp2208
g66
(dp2209
g74
I4
ssg75
g2203
sg68
(lp2210
S"set(['/home/urvashi/Desktop/WEB2PY/web2py/applications/admin/', '/home/urvashi/Desktop/WEB2PY/web2py/applications/welcome/', '/home/urvashi/Desktop/WEB2PY/web2py/applications/ISAS_PORTAL/', '/home/urvashi/Desktop/WEB2PY/web2py/applications/SSAD/'])"
p2211
asbasbasbag61
(g77
g63
NtRp2212
(dp2213
g66
(dp2214
sg75
g2187
sg68
(lp2215
g61
(g82
g63
NtRp2216
(dp2217
g66
(dp2218
g86
g87
ssg75
g2212
sg68
(lp2219
g1071
asbag61
(g82
g63
NtRp2220
(dp2221
g66
(dp2222
g93
g94
ssg75
g2212
sg68
(lp2223
S':'
asbag61
(g82
g63
NtRp2224
(dp2225
g66
(dp2226
sg75
g2212
sg68
(lp2227
g61
(g62
g63
NtRp2228
(dp2229
g66
(dp2230
g74
I4
ssg75
g2224
sg68
(lp2231
g1084
asbasbasbag61
(g77
g63
NtRp2232
(dp2233
g66
(dp2234
sg75
g2187
sg68
(lp2235
g61
(g82
g63
NtRp2236
(dp2237
g66
(dp2238
g86
g87
ssg75
g2232
sg68
(lp2239
g1093
asbag61
(g82
g63
NtRp2240
(dp2241
g66
(dp2242
g93
g94
ssg75
g2232
sg68
(lp2243
S':'
asbag61
(g82
g63
NtRp2244
(dp2245
g66
(dp2246
sg75
g2232
sg68
(lp2247
g61
(g62
g63
NtRp2248
(dp2249
g66
(dp2250
g74
I4
ssg75
g2244
sg68
(lp2251
g61
(g70
g63
NtRp2252
(dp2253
g66
(dp2254
g74
I3
ssg75
Nsg68
(lp2255
sbasbasbasbag61
(g77
g63
NtRp2256
(dp2257
g66
(dp2258
sg75
g2187
sg68
(lp2259
g61
(g82
g63
NtRp2260
(dp2261
g66
(dp2262
g86
g87
ssg75
g2256
sg68
(lp2263
g1118
asbag61
(g82
g63
NtRp2264
(dp2265
g66
(dp2266
g93
g94
ssg75
g2256
sg68
(lp2267
S':'
asbag61
(g82
g63
NtRp2268
(dp2269
g66
(dp2270
sg75
g2256
sg68
(lp2271
g61
(g62
g63
NtRp2272
(dp2273
g66
(dp2274
g74
I4
ssg75
g2268
sg68
(lp2275
S"<Values at 0x21b1518: {'verbose': False, 'ip': '127.0.0.1', 'with_scheduler': False, 'ips': [], 'shutdown_timeout': 5, 'taskbar': False, 'port': 8000, 'maxthreads': None, 'softcron': False, 'server_name': 'urvashi-VPCEH35EN', 'bpython': False, 'nogui': False, 'pid_filename': 'httpserver.pid', 'extcron': False, 'runcron': False, 'run_system_tests': False, 'test': None, 'folder': '/home/urvashi/Desktop/WEB2PY/web2py', 'config': '', 'minthreads': None, 'winservice': '', 'shell': None, 'run': '', 'log_filename': 'httpserver.log', 'debuglevel': 30, 'args': [''], 'socket_timeout': 5, 'ssl_ca_certificate': None, 'scheduler': None, 'profiler_filename': None, 'ssl_private_key': '', 'scheduler_groups': None, 'password': '123', 'request_queue_size': 5, 'ssl_certificate': '', 'cronjob': False, 'numthreads': None, 'quiet': False, 'interfaces': None, 'import_models': False, 'timeout': 10, 'plain': False, 'nobanner': False}>"
p2276
asbasbasbag61
(g77
g63
NtRp2277
(dp2278
g66
(dp2279
sg75
g2187
sg68
(lp2280
g61
(g82
g63
NtRp2281
(dp2282
g66
(dp2283
g86
g87
ssg75
g2277
sg68
(lp2284
g1140
asbag61
(g82
g63
NtRp2285
(dp2286
g66
(dp2287
g93
g94
ssg75
g2277
sg68
(lp2288
S':'
asbag61
(g82
g63
NtRp2289
(dp2290
g66
(dp2291
sg75
g2277
sg68
(lp2292
g61
(g62
g63
NtRp2293
(dp2294
g66
(dp2295
g74
I4
ssg75
g2289
sg68
(lp2296
S'set([])'
p2297
asbasbasbag61
(g77
g63
NtRp2298
(dp2299
g66
(dp2300
sg75
g2187
sg68
(lp2301
g61
(g82
g63
NtRp2302
(dp2303
g66
(dp2304
g86
g87
ssg75
g2298
sg68
(lp2305
g1162
asbag61
(g82
g63
NtRp2306
(dp2307
g66
(dp2308
g93
g94
ssg75
g2298
sg68
(lp2309
S':'
asbag61
(g82
g63
NtRp2310
(dp2311
g66
(dp2312
sg75
g2298
sg68
(lp2313
g61
(g62
g63
NtRp2314
(dp2315
g66
(dp2316
g74
I4
ssg75
g2310
sg68
(lp2317
g104
asbasbasbag61
(g77
g63
NtRp2318
(dp2319
g66
(dp2320
sg75
g2187
sg68
(lp2321
g61
(g82
g63
NtRp2322
(dp2323
g66
(dp2324
g86
g87
ssg75
g2318
sg68
(lp2325
g1183
asbag61
(g82
g63
NtRp2326
(dp2327
g66
(dp2328
g93
g94
ssg75
g2318
sg68
(lp2329
S':'
asbag61
(g82
g63
NtRp2330
(dp2331
g66
(dp2332
sg75
g2318
sg68
(lp2333
g61
(g62
g63
NtRp2334
(dp2335
g66
(dp2336
g74
I4
ssg75
g2330
sg68
(lp2337
g1196
asbasbasbag61
(g77
g63
NtRp2338
(dp2339
g66
(dp2340
sg75
g2187
sg68
(lp2341
g61
(g82
g63
NtRp2342
(dp2343
g66
(dp2344
g86
g87
ssg75
g2338
sg68
(lp2345
g1381
asbag61
(g82
g63
NtRp2346
(dp2347
g66
(dp2348
g93
g94
ssg75
g2338
sg68
(lp2349
S':'
asbag61
(g82
g63
NtRp2350
(dp2351
g66
(dp2352
sg75
g2338
sg68
(lp2353
g61
(g62
g63
NtRp2354
(dp2355
g66
(dp2356
g74
I4
ssg75
g2350
sg68
(lp2357
g104
asbasbasbag61
(g77
g63
NtRp2358
(dp2359
g66
(dp2360
sg75
g2187
sg68
(lp2361
g61
(g82
g63
NtRp2362
(dp2363
g66
(dp2364
g86
g87
ssg75
g2358
sg68
(lp2365
g1402
asbag61
(g82
g63
NtRp2366
(dp2367
g66
(dp2368
g93
g94
ssg75
g2358
sg68
(lp2369
S':'
asbag61
(g82
g63
NtRp2370
(dp2371
g66
(dp2372
sg75
g2358
sg68
(lp2373
g61
(g62
g63
NtRp2374
(dp2375
g66
(dp2376
g74
I4
ssg75
g2370
sg68
(lp2377
g104
asbasbasbag61
(g77
g63
NtRp2378
(dp2379
g66
(dp2380
sg75
g2187
sg68
(lp2381
g61
(g82
g63
NtRp2382
(dp2383
g66
(dp2384
g86
g87
ssg75
g2378
sg68
(lp2385
g1423
asbag61
(g82
g63
NtRp2386
(dp2387
g66
(dp2388
g93
g94
ssg75
g2378
sg68
(lp2389
S':'
asbag61
(g82
g63
NtRp2390
(dp2391
g66
(dp2392
sg75
g2378
sg68
(lp2393
g61
(g62
g63
NtRp2394
(dp2395
g66
(dp2396
g74
I4
ssg75
g2390
sg68
(lp2397
g61
(g70
g63
NtRp2398
(dp2399
g66
(dp2400
g74
I3
ssg75
Nsg68
(lp2401
g61
(g77
g63
NtRp2402
(dp2403
g66
(dp2404
sg75
g2398
sg68
(lp2405
g61
(g82
g63
NtRp2406
(dp2407
g66
(dp2408
sg75
g2402
sg68
(lp2409
g61
(g62
g63
NtRp2410
(dp2411
g66
(dp2412
g74
I3
ssg75
g2406
sg68
(lp2413
g1452
asbasbasbag61
(g77
g63
NtRp2414
(dp2415
g66
(dp2416
sg75
g2398
sg68
(lp2417
g61
(g82
g63
NtRp2418
(dp2419
g66
(dp2420
sg75
g2414
sg68
(lp2421
g61
(g62
g63
NtRp2422
(dp2423
g66
(dp2424
g74
I3
ssg75
g2418
sg68
(lp2425
g1465
asbasbasbag61
(g77
g63
NtRp2426
(dp2427
g66
(dp2428
sg75
g2398
sg68
(lp2429
g61
(g82
g63
NtRp2430
(dp2431
g66
(dp2432
sg75
g2426
sg68
(lp2433
g61
(g62
g63
NtRp2434
(dp2435
g66
(dp2436
g74
I3
ssg75
g2430
sg68
(lp2437
g1478
asbasbasbag61
(g77
g63
NtRp2438
(dp2439
g66
(dp2440
sg75
g2398
sg68
(lp2441
g61
(g82
g63
NtRp2442
(dp2443
g66
(dp2444
sg75
g2438
sg68
(lp2445
g61
(g62
g63
NtRp2446
(dp2447
g66
(dp2448
g74
I3
ssg75
g2442
sg68
(lp2449
g1491
asbasbasbag61
(g77
g63
NtRp2450
(dp2451
g66
(dp2452
sg75
g2398
sg68
(lp2453
g61
(g82
g63
NtRp2454
(dp2455
g66
(dp2456
sg75
g2450
sg68
(lp2457
g61
(g62
g63
NtRp2458
(dp2459
g66
(dp2460
g74
I3
ssg75
g2454
sg68
(lp2461
g1504
asbasbasbasbasbasbasbag61
(g77
g63
NtRp2462
(dp2463
g66
(dp2464
sg75
g2187
sg68
(lp2465
g61
(g82
g63
NtRp2466
(dp2467
g66
(dp2468
g86
g87
ssg75
g2462
sg68
(lp2469
g1774
asbag61
(g82
g63
NtRp2470
(dp2471
g66
(dp2472
g93
g94
ssg75
g2462
sg68
(lp2473
S':'
asbag61
(g82
g63
NtRp2474
(dp2475
g66
(dp2476
sg75
g2462
sg68
(lp2477
g61
(g62
g63
NtRp2478
(dp2479
g66
(dp2480
g74
I4
ssg75
g2474
sg68
(lp2481
g61
(g70
g63
NtRp2482
(dp2483
g66
(dp2484
g74
I3
ssg75
Nsg68
(lp2485
g61
(g77
g63
NtRp2486
(dp2487
g66
(dp2488
sg75
g2482
sg68
(lp2489
g61
(g82
g63
NtRp2490
(dp2491
g66
(dp2492
sg75
g2486
sg68
(lp2493
g61
(g62
g63
NtRp2494
(dp2495
g66
(dp2496
g74
I3
ssg75
g2490
sg68
(lp2497
S'2'
asbasbasbag61
(g77
g63
NtRp2498
(dp2499
g66
(dp2500
sg75
g2482
sg68
(lp2501
g61
(g82
g63
NtRp2502
(dp2503
g66
(dp2504
sg75
g2498
sg68
(lp2505
g61
(g62
g63
NtRp2506
(dp2507
g66
(dp2508
g74
I3
ssg75
g2502
sg68
(lp2509
S'3'
asbasbasbag61
(g77
g63
NtRp2510
(dp2511
g66
(dp2512
sg75
g2482
sg68
(lp2513
g61
(g82
g63
NtRp2514
(dp2515
g66
(dp2516
sg75
g2510
sg68
(lp2517
g61
(g62
g63
NtRp2518
(dp2519
g66
(dp2520
g74
I3
ssg75
g2514
sg68
(lp2521
S'2'
asbasbasbag61
(g77
g63
NtRp2522
(dp2523
g66
(dp2524
sg75
g2482
sg68
(lp2525
g61
(g82
g63
NtRp2526
(dp2527
g66
(dp2528
sg75
g2522
sg68
(lp2529
g61
(g62
g63
NtRp2530
(dp2531
g66
(dp2532
g74
I3
ssg75
g2526
sg68
(lp2533
S'datetime.datetime(2012, 12, 17, 15, 3, 30)'
p2534
asbasbasbag61
(g77
g63
NtRp2535
(dp2536
g66
(dp2537
sg75
g2482
sg68
(lp2538
g61
(g82
g63
NtRp2539
(dp2540
g66
(dp2541
sg75
g2535
sg68
(lp2542
g61
(g62
g63
NtRp2543
(dp2544
g66
(dp2545
g74
I3
ssg75
g2539
sg68
(lp2546
g1852
asbasbasbasbasbasbasbasbasbasbasbag61
(g77
g63
NtRp2547
(dp2548
g66
(dp2549
sg75
g71
sg68
(lp2550
g61
(g82
g63
NtRp2551
(dp2552
g66
(dp2553
g86
g87
ssg75
g2547
sg68
(lp2554
S'is_https'
p2555
asbag61
(g82
g63
NtRp2556
(dp2557
g66
(dp2558
g93
g94
ssg75
g2547
sg68
(lp2559
S':'
asbag61
(g82
g63
NtRp2560
(dp2561
g66
(dp2562
sg75
g2547
sg68
(lp2563
g61
(g62
g63
NtRp2564
(dp2565
g66
(dp2566
g74
I5
ssg75
g2560
sg68
(lp2567
g104
asbasbasbag61
(g77
g63
NtRp2568
(dp2569
g66
(dp2570
sg75
g71
sg68
(lp2571
g61
(g82
g63
NtRp2572
(dp2573
g66
(dp2574
g86
g87
ssg75
g2568
sg68
(lp2575
S'is_local'
p2576
asbag61
(g82
g63
NtRp2577
(dp2578
g66
(dp2579
g93
g94
ssg75
g2568
sg68
(lp2580
S':'
asbag61
(g82
g63
NtRp2581
(dp2582
g66
(dp2583
sg75
g2568
sg68
(lp2584
g61
(g62
g63
NtRp2585
(dp2586
g66
(dp2587
g74
I5
ssg75
g2581
sg68
(lp2588
g1961
asbasbasbag61
(g77
g63
NtRp2589
(dp2590
g66
(dp2591
sg75
g71
sg68
(lp2592
g61
(g82
g63
NtRp2593
(dp2594
g66
(dp2595
g86
g87
ssg75
g2589
sg68
(lp2596
S'is_restful'
p2597
asbag61
(g82
g63
NtRp2598
(dp2599
g66
(dp2600
g93
g94
ssg75
g2589
sg68
(lp2601
S':'
asbag61
(g82
g63
NtRp2602
(dp2603
g66
(dp2604
sg75
g2589
sg68
(lp2605
g61
(g62
g63
NtRp2606
(dp2607
g66
(dp2608
g74
I5
ssg75
g2602
sg68
(lp2609
g104
asbasbasbag61
(g77
g63
NtRp2610
(dp2611
g66
(dp2612
sg75
g71
sg68
(lp2613
g61
(g82
g63
NtRp2614
(dp2615
g66
(dp2616
g86
g87
ssg75
g2610
sg68
(lp2617
S'now'
p2618
asbag61
(g82
g63
NtRp2619
(dp2620
g66
(dp2621
g93
g94
ssg75
g2610
sg68
(lp2622
S':'
asbag61
(g82
g63
NtRp2623
(dp2624
g66
(dp2625
sg75
g2610
sg68
(lp2626
g61
(g62
g63
NtRp2627
(dp2628
g66
(dp2629
g74
I5
ssg75
g2623
sg68
(lp2630
S'datetime.datetime(2013, 8, 26, 20, 18, 35, 506064)'
p2631
asbasbasbag61
(g77
g63
NtRp2632
(dp2633
g66
(dp2634
sg75
g71
sg68
(lp2635
g61
(g82
g63
NtRp2636
(dp2637
g66
(dp2638
g86
g87
ssg75
g2632
sg68
(lp2639
S'post_vars'
p2640
asbag61
(g82
g63
NtRp2641
(dp2642
g66
(dp2643
g93
g94
ssg75
g2632
sg68
(lp2644
S':'
asbag61
(g82
g63
NtRp2645
(dp2646
g66
(dp2647
sg75
g2632
sg68
(lp2648
g61
(g62
g63
NtRp2649
(dp2650
g66
(dp2651
g74
I5
ssg75
g2645
sg68
(lp2652
g61
(g70
g63
NtRp2653
(dp2654
g66
(dp2655
g74
I4
ssg75
Nsg68
(lp2656
sbasbasbasbag61
(g77
g63
NtRp2657
(dp2658
g66
(dp2659
sg75
g71
sg68
(lp2660
g61
(g82
g63
NtRp2661
(dp2662
g66
(dp2663
g86
g87
ssg75
g2657
sg68
(lp2664
S'raw_args'
p2665
asbag61
(g82
g63
NtRp2666
(dp2667
g66
(dp2668
g93
g94
ssg75
g2657
sg68
(lp2669
S':'
asbag61
(g82
g63
NtRp2670
(dp2671
g66
(dp2672
sg75
g2657
sg68
(lp2673
g61
(g62
g63
NtRp2674
(dp2675
g66
(dp2676
g74
I5
ssg75
g2670
sg68
(lp2677
S''
asbasbasbag61
(g77
g63
NtRp2678
(dp2679
g66
(dp2680
sg75
g71
sg68
(lp2681
g61
(g82
g63
NtRp2682
(dp2683
g66
(dp2684
g86
g87
ssg75
g2678
sg68
(lp2685
S'raw_extension'
p2686
asbag61
(g82
g63
NtRp2687
(dp2688
g66
(dp2689
g93
g94
ssg75
g2678
sg68
(lp2690
S':'
asbag61
(g82
g63
NtRp2691
(dp2692
g66
(dp2693
sg75
g2678
sg68
(lp2694
g61
(g62
g63
NtRp2695
(dp2696
g66
(dp2697
g74
I5
ssg75
g2691
sg68
(lp2698
S'None'
p2699
asbasbasbag61
(g77
g63
NtRp2700
(dp2701
g66
(dp2702
sg75
g71
sg68
(lp2703
g61
(g82
g63
NtRp2704
(dp2705
g66
(dp2706
g86
g87
ssg75
g2700
sg68
(lp2707
S'url'
p2708
asbag61
(g82
g63
NtRp2709
(dp2710
g66
(dp2711
g93
g94
ssg75
g2700
sg68
(lp2712
S':'
asbag61
(g82
g63
NtRp2713
(dp2714
g66
(dp2715
sg75
g2700
sg68
(lp2716
g61
(g62
g63
NtRp2717
(dp2718
g66
(dp2719
g74
I5
ssg75
g2713
sg68
(lp2720
g1526
asbasbasbag61
(g77
g63
NtRp2721
(dp2722
g66
(dp2723
sg75
g71
sg68
(lp2724
g61
(g82
g63
NtRp2725
(dp2726
g66
(dp2727
g86
g87
ssg75
g2721
sg68
(lp2728
S'utcnow'
p2729
asbag61
(g82
g63
NtRp2730
(dp2731
g66
(dp2732
g93
g94
ssg75
g2721
sg68
(lp2733
S':'
asbag61
(g82
g63
NtRp2734
(dp2735
g66
(dp2736
sg75
g2721
sg68
(lp2737
g61
(g62
g63
NtRp2738
(dp2739
g66
(dp2740
g74
I5
ssg75
g2734
sg68
(lp2741
S'datetime.datetime(2013, 8, 26, 14, 48, 35, 506080)'
p2742
asbasbasbag61
(g77
g63
NtRp2743
(dp2744
g66
(dp2745
sg75
g71
sg68
(lp2746
g61
(g82
g63
NtRp2747
(dp2748
g66
(dp2749
g86
g87
ssg75
g2743
sg68
(lp2750
S'uuid'
p2751
asbag61
(g82
g63
NtRp2752
(dp2753
g66
(dp2754
g93
g94
ssg75
g2743
sg68
(lp2755
S':'
asbag61
(g82
g63
NtRp2756
(dp2757
g66
(dp2758
sg75
g2743
sg68
(lp2759
g61
(g62
g63
NtRp2760
(dp2761
g66
(dp2762
g74
I5
ssg75
g2756
sg68
(lp2763
S'SSAD/127.0.0.1.2013-08-26.20-18-35.28fd320f-044e-43a5-880c-edc9c4c3f7fe'
p2764
asbasbasbag61
(g77
g63
NtRp2765
(dp2766
g66
(dp2767
sg75
g71
sg68
(lp2768
g61
(g82
g63
NtRp2769
(dp2770
g66
(dp2771
g86
g87
ssg75
g2765
sg68
(lp2772
S'vars'
p2773
asbag61
(g82
g63
NtRp2774
(dp2775
g66
(dp2776
g93
g94
ssg75
g2765
sg68
(lp2777
S':'
asbag61
(g82
g63
NtRp2778
(dp2779
g66
(dp2780
sg75
g2765
sg68
(lp2781
g61
(g62
g63
NtRp2782
(dp2783
g66
(dp2784
g74
I5
ssg75
g2778
sg68
(lp2785
g61
(g70
g63
NtRp2786
(dp2787
g66
(dp2788
g74
I4
ssg75
Nsg68
(lp2789
g61
(g77
g63
NtRp2790
(dp2791
g66
(dp2792
sg75
g2786
sg68
(lp2793
g61
(g82
g63
NtRp2794
(dp2795
g66
(dp2796
g86
g87
ssg75
g2790
sg68
(lp2797
g2153
asbag61
(g82
g63
NtRp2798
(dp2799
g66
(dp2800
g93
g94
ssg75
g2790
sg68
(lp2801
S':'
asbag61
(g82
g63
NtRp2802
(dp2803
g66
(dp2804
sg75
g2790
sg68
(lp2805
g61
(g62
g63
NtRp2806
(dp2807
g66
(dp2808
g74
I4
ssg75
g2802
sg68
(lp2809
S'2'
asbasbasbasbasbasbasbag61
(g77
g63
NtRp2810
(dp2811
g66
(dp2812
sg75
g71
sg68
(lp2813
g61
(g82
g63
NtRp2814
(dp2815
g66
(dp2816
g86
g87
ssg75
g2810
sg68
(lp2817
S'wsgi'
p2818
asbag61
(g82
g63
NtRp2819
(dp2820
g66
(dp2821
g93
g94
ssg75
g2810
sg68
(lp2822
S':'
asbag61
(g82
g63
NtRp2823
(dp2824
g66
(dp2825
sg75
g2810
sg68
(lp2826
g61
(g62
g63
NtRp2827
(dp2828
g66
(dp2829
g74
I5
ssg75
g2823
sg68
(lp2830
g61
(g70
g63
NtRp2831
(dp2832
g66
(dp2833
g74
I4
ssg75
Nsg68
(lp2834
g61
(g77
g63
NtRp2835
(dp2836
g66
(dp2837
sg75
g2831
sg68
(lp2838
g61
(g82
g63
NtRp2839
(dp2840
g66
(dp2841
g86
g87
ssg75
g2835
sg68
(lp2842
S'environ'
p2843
asbag61
(g82
g63
NtRp2844
(dp2845
g66
(dp2846
g93
g94
ssg75
g2835
sg68
(lp2847
S':'
asbag61
(g82
g63
NtRp2848
(dp2849
g66
(dp2850
sg75
g2835
sg68
(lp2851
g61
(g62
g63
NtRp2852
(dp2853
g66
(dp2854
g74
I4
ssg75
g2848
sg68
(lp2855
g61
(g70
g63
NtRp2856
(dp2857
g66
(dp2858
g74
I3
ssg75
Nsg68
(lp2859
g61
(g77
g63
NtRp2860
(dp2861
g66
(dp2862
sg75
g2856
sg68
(lp2863
g61
(g82
g63
NtRp2864
(dp2865
g66
(dp2866
g86
g87
ssg75
g2860
sg68
(lp2867
S'HTTP_ACCEPT'
p2868
asbag61
(g82
g63
NtRp2869
(dp2870
g66
(dp2871
g93
g94
ssg75
g2860
sg68
(lp2872
S':'
asbag61
(g82
g63
NtRp2873
(dp2874
g66
(dp2875
sg75
g2860
sg68
(lp2876
g61
(g62
g63
NtRp2877
(dp2878
g66
(dp2879
g74
I3
ssg75
g2873
sg68
(lp2880
g1218
asbasbasbag61
(g77
g63
NtRp2881
(dp2882
g66
(dp2883
sg75
g2856
sg68
(lp2884
g61
(g82
g63
NtRp2885
(dp2886
g66
(dp2887
g86
g87
ssg75
g2881
sg68
(lp2888
S'HTTP_ACCEPT_ENCODING'
p2889
asbag61
(g82
g63
NtRp2890
(dp2891
g66
(dp2892
g93
g94
ssg75
g2881
sg68
(lp2893
S':'
asbag61
(g82
g63
NtRp2894
(dp2895
g66
(dp2896
sg75
g2881
sg68
(lp2897
g61
(g62
g63
NtRp2898
(dp2899
g66
(dp2900
g74
I3
ssg75
g2894
sg68
(lp2901
g1240
asbasbasbag61
(g77
g63
NtRp2902
(dp2903
g66
(dp2904
sg75
g2856
sg68
(lp2905
g61
(g82
g63
NtRp2906
(dp2907
g66
(dp2908
g86
g87
ssg75
g2902
sg68
(lp2909
S'HTTP_ACCEPT_LANGUAGE'
p2910
asbag61
(g82
g63
NtRp2911
(dp2912
g66
(dp2913
g93
g94
ssg75
g2902
sg68
(lp2914
S':'
asbag61
(g82
g63
NtRp2915
(dp2916
g66
(dp2917
sg75
g2902
sg68
(lp2918
g61
(g62
g63
NtRp2919
(dp2920
g66
(dp2921
g74
I3
ssg75
g2915
sg68
(lp2922
g1262
asbasbasbag61
(g77
g63
NtRp2923
(dp2924
g66
(dp2925
sg75
g2856
sg68
(lp2926
g61
(g82
g63
NtRp2927
(dp2928
g66
(dp2929
g86
g87
ssg75
g2923
sg68
(lp2930
S'HTTP_CONNECTION'
p2931
asbag61
(g82
g63
NtRp2932
(dp2933
g66
(dp2934
g93
g94
ssg75
g2923
sg68
(lp2935
S':'
asbag61
(g82
g63
NtRp2936
(dp2937
g66
(dp2938
sg75
g2923
sg68
(lp2939
g61
(g62
g63
NtRp2940
(dp2941
g66
(dp2942
g74
I3
ssg75
g2936
sg68
(lp2943
g1284
asbasbasbag61
(g77
g63
NtRp2944
(dp2945
g66
(dp2946
sg75
g2856
sg68
(lp2947
g61
(g82
g63
NtRp2948
(dp2949
g66
(dp2950
g86
g87
ssg75
g2944
sg68
(lp2951
S'HTTP_COOKIE'
p2952
asbag61
(g82
g63
NtRp2953
(dp2954
g66
(dp2955
g93
g94
ssg75
g2944
sg68
(lp2956
S':'
asbag61
(g82
g63
NtRp2957
(dp2958
g66
(dp2959
sg75
g2944
sg68
(lp2960
g61
(g62
g63
NtRp2961
(dp2962
g66
(dp2963
g74
I3
ssg75
g2957
sg68
(lp2964
g1306
asbasbasbag61
(g77
g63
NtRp2965
(dp2966
g66
(dp2967
sg75
g2856
sg68
(lp2968
g61
(g82
g63
NtRp2969
(dp2970
g66
(dp2971
g86
g87
ssg75
g2965
sg68
(lp2972
S'HTTP_HOST'
p2973
asbag61
(g82
g63
NtRp2974
(dp2975
g66
(dp2976
g93
g94
ssg75
g2965
sg68
(lp2977
S':'
asbag61
(g82
g63
NtRp2978
(dp2979
g66
(dp2980
sg75
g2965
sg68
(lp2981
g61
(g62
g63
NtRp2982
(dp2983
g66
(dp2984
g74
I3
ssg75
g2978
sg68
(lp2985
g1328
asbasbasbag61
(g77
g63
NtRp2986
(dp2987
g66
(dp2988
sg75
g2856
sg68
(lp2989
g61
(g82
g63
NtRp2990
(dp2991
g66
(dp2992
g86
g87
ssg75
g2986
sg68
(lp2993
S'HTTP_REFERER'
p2994
asbag61
(g82
g63
NtRp2995
(dp2996
g66
(dp2997
g93
g94
ssg75
g2986
sg68
(lp2998
S':'
asbag61
(g82
g63
NtRp2999
(dp3000
g66
(dp3001
sg75
g2986
sg68
(lp3002
g61
(g62
g63
NtRp3003
(dp3004
g66
(dp3005
g74
I3
ssg75
g2999
sg68
(lp3006
g1350
asbasbasbag61
(g77
g63
NtRp3007
(dp3008
g66
(dp3009
sg75
g2856
sg68
(lp3010
g61
(g82
g63
NtRp3011
(dp3012
g66
(dp3013
g86
g87
ssg75
g3007
sg68
(lp3014
S'HTTP_USER_AGENT'
p3015
asbag61
(g82
g63
NtRp3016
(dp3017
g66
(dp3018
g93
g94
ssg75
g3007
sg68
(lp3019
S':'
asbag61
(g82
g63
NtRp3020
(dp3021
g66
(dp3022
sg75
g3007
sg68
(lp3023
g61
(g62
g63
NtRp3024
(dp3025
g66
(dp3026
g74
I3
ssg75
g3020
sg68
(lp3027
g1372
asbasbasbag61
(g77
g63
NtRp3028
(dp3029
g66
(dp3030
sg75
g2856
sg68
(lp3031
g61
(g82
g63
NtRp3032
(dp3033
g66
(dp3034
g86
g87
ssg75
g3028
sg68
(lp3035
S'PATH_INFO'
p3036
asbag61
(g82
g63
NtRp3037
(dp3038
g66
(dp3039
g93
g94
ssg75
g3028
sg68
(lp3040
S':'
asbag61
(g82
g63
NtRp3041
(dp3042
g66
(dp3043
sg75
g3028
sg68
(lp3044
g61
(g62
g63
NtRp3045
(dp3046
g66
(dp3047
g74
I3
ssg75
g3041
sg68
(lp3048
g1526
asbasbasbag61
(g77
g63
NtRp3049
(dp3050
g66
(dp3051
sg75
g2856
sg68
(lp3052
g61
(g82
g63
NtRp3053
(dp3054
g66
(dp3055
g86
g87
ssg75
g3049
sg68
(lp3056
S'QUERY_STRING'
p3057
asbag61
(g82
g63
NtRp3058
(dp3059
g66
(dp3060
g93
g94
ssg75
g3049
sg68
(lp3061
S':'
asbag61
(g82
g63
NtRp3062
(dp3063
g66
(dp3064
sg75
g3049
sg68
(lp3065
g61
(g62
g63
NtRp3066
(dp3067
g66
(dp3068
g74
I3
ssg75
g3062
sg68
(lp3069
g1548
asbasbasbag61
(g77
g63
NtRp3070
(dp3071
g66
(dp3072
sg75
g2856
sg68
(lp3073
g61
(g82
g63
NtRp3074
(dp3075
g66
(dp3076
g86
g87
ssg75
g3070
sg68
(lp3077
S'REMOTE_ADDR'
p3078
asbag61
(g82
g63
NtRp3079
(dp3080
g66
(dp3081
g93
g94
ssg75
g3070
sg68
(lp3082
S':'
asbag61
(g82
g63
NtRp3083
(dp3084
g66
(dp3085
sg75
g3070
sg68
(lp3086
g61
(g62
g63
NtRp3087
(dp3088
g66
(dp3089
g74
I3
ssg75
g3083
sg68
(lp3090
g216
asbasbasbag61
(g77
g63
NtRp3091
(dp3092
g66
(dp3093
sg75
g2856
sg68
(lp3094
g61
(g82
g63
NtRp3095
(dp3096
g66
(dp3097
g86
g87
ssg75
g3091
sg68
(lp3098
S'REMOTE_PORT'
p3099
asbag61
(g82
g63
NtRp3100
(dp3101
g66
(dp3102
g93
g94
ssg75
g3091
sg68
(lp3103
S':'
asbag61
(g82
g63
NtRp3104
(dp3105
g66
(dp3106
sg75
g3091
sg68
(lp3107
g61
(g62
g63
NtRp3108
(dp3109
g66
(dp3110
g74
I3
ssg75
g3104
sg68
(lp3111
g1591
asbasbasbag61
(g77
g63
NtRp3112
(dp3113
g66
(dp3114
sg75
g2856
sg68
(lp3115
g61
(g82
g63
NtRp3116
(dp3117
g66
(dp3118
g86
g87
ssg75
g3112
sg68
(lp3119
S'REQUEST_METHOD'
p3120
asbag61
(g82
g63
NtRp3121
(dp3122
g66
(dp3123
g93
g94
ssg75
g3112
sg68
(lp3124
S':'
asbag61
(g82
g63
NtRp3125
(dp3126
g66
(dp3127
sg75
g3112
sg68
(lp3128
g61
(g62
g63
NtRp3129
(dp3130
g66
(dp3131
g74
I3
ssg75
g3125
sg68
(lp3132
g1613
asbasbasbag61
(g77
g63
NtRp3133
(dp3134
g66
(dp3135
sg75
g2856
sg68
(lp3136
g61
(g82
g63
NtRp3137
(dp3138
g66
(dp3139
g86
g87
ssg75
g3133
sg68
(lp3140
S'REQUEST_URI'
p3141
asbag61
(g82
g63
NtRp3142
(dp3143
g66
(dp3144
g93
g94
ssg75
g3133
sg68
(lp3145
S':'
asbag61
(g82
g63
NtRp3146
(dp3147
g66
(dp3148
sg75
g3133
sg68
(lp3149
g61
(g62
g63
NtRp3150
(dp3151
g66
(dp3152
g74
I3
ssg75
g3146
sg68
(lp3153
g1635
asbasbasbag61
(g77
g63
NtRp3154
(dp3155
g66
(dp3156
sg75
g2856
sg68
(lp3157
g61
(g82
g63
NtRp3158
(dp3159
g66
(dp3160
g86
g87
ssg75
g3154
sg68
(lp3161
S'SCRIPT_NAME'
p3162
asbag61
(g82
g63
NtRp3163
(dp3164
g66
(dp3165
g93
g94
ssg75
g3154
sg68
(lp3166
S':'
asbag61
(g82
g63
NtRp3167
(dp3168
g66
(dp3169
sg75
g3154
sg68
(lp3170
g61
(g62
g63
NtRp3171
(dp3172
g66
(dp3173
g74
I3
ssg75
g3167
sg68
(lp3174
S''
asbasbasbag61
(g77
g63
NtRp3175
(dp3176
g66
(dp3177
sg75
g2856
sg68
(lp3178
g61
(g82
g63
NtRp3179
(dp3180
g66
(dp3181
g86
g87
ssg75
g3175
sg68
(lp3182
S'SERVER_NAME'
p3183
asbag61
(g82
g63
NtRp3184
(dp3185
g66
(dp3186
g93
g94
ssg75
g3175
sg68
(lp3187
S':'
asbag61
(g82
g63
NtRp3188
(dp3189
g66
(dp3190
sg75
g3175
sg68
(lp3191
g61
(g62
g63
NtRp3192
(dp3193
g66
(dp3194
g74
I3
ssg75
g3188
sg68
(lp3195
g1678
asbasbasbag61
(g77
g63
NtRp3196
(dp3197
g66
(dp3198
sg75
g2856
sg68
(lp3199
g61
(g82
g63
NtRp3200
(dp3201
g66
(dp3202
g86
g87
ssg75
g3196
sg68
(lp3203
S'SERVER_PORT'
p3204
asbag61
(g82
g63
NtRp3205
(dp3206
g66
(dp3207
g93
g94
ssg75
g3196
sg68
(lp3208
S':'
asbag61
(g82
g63
NtRp3209
(dp3210
g66
(dp3211
sg75
g3196
sg68
(lp3212
g61
(g62
g63
NtRp3213
(dp3214
g66
(dp3215
g74
I3
ssg75
g3209
sg68
(lp3216
g1700
asbasbasbag61
(g77
g63
NtRp3217
(dp3218
g66
(dp3219
sg75
g2856
sg68
(lp3220
g61
(g82
g63
NtRp3221
(dp3222
g66
(dp3223
g86
g87
ssg75
g3217
sg68
(lp3224
S'SERVER_PROTOCOL'
p3225
asbag61
(g82
g63
NtRp3226
(dp3227
g66
(dp3228
g93
g94
ssg75
g3217
sg68
(lp3229
S':'
asbag61
(g82
g63
NtRp3230
(dp3231
g66
(dp3232
sg75
g3217
sg68
(lp3233
g61
(g62
g63
NtRp3234
(dp3235
g66
(dp3236
g74
I3
ssg75
g3230
sg68
(lp3237
g1722
asbasbasbag61
(g77
g63
NtRp3238
(dp3239
g66
(dp3240
sg75
g2856
sg68
(lp3241
g61
(g82
g63
NtRp3242
(dp3243
g66
(dp3244
g86
g87
ssg75
g3238
sg68
(lp3245
S'SERVER_SOFTWARE'
p3246
asbag61
(g82
g63
NtRp3247
(dp3248
g66
(dp3249
g93
g94
ssg75
g3238
sg68
(lp3250
S':'
asbag61
(g82
g63
NtRp3251
(dp3252
g66
(dp3253
sg75
g3238
sg68
(lp3254
g61
(g62
g63
NtRp3255
(dp3256
g66
(dp3257
g74
I3
ssg75
g3251
sg68
(lp3258
g1744
asbasbasbag61
(g77
g63
NtRp3259
(dp3260
g66
(dp3261
sg75
g2856
sg68
(lp3262
g61
(g82
g63
NtRp3263
(dp3264
g66
(dp3265
g86
g87
ssg75
g3259
sg68
(lp3266
S'wsgi.errors'
p3267
asbag61
(g82
g63
NtRp3268
(dp3269
g66
(dp3270
g93
g94
ssg75
g3259
sg68
(lp3271
S':'
asbag61
(g82
g63
NtRp3272
(dp3273
g66
(dp3274
sg75
g3259
sg68
(lp3275
g61
(g62
g63
NtRp3276
(dp3277
g66
(dp3278
g74
I3
ssg75
g3272
sg68
(lp3279
S"<open file '<stderr>', mode 'w' at 0x7f9f5e06a270>"
p3280
asbasbasbag61
(g77
g63
NtRp3281
(dp3282
g66
(dp3283
sg75
g2856
sg68
(lp3284
g61
(g82
g63
NtRp3285
(dp3286
g66
(dp3287
g86
g87
ssg75
g3281
sg68
(lp3288
S'wsgi.file_wrapper'
p3289
asbag61
(g82
g63
NtRp3290
(dp3291
g66
(dp3292
g93
g94
ssg75
g3281
sg68
(lp3293
S':'
asbag61
(g82
g63
NtRp3294
(dp3295
g66
(dp3296
sg75
g3281
sg68
(lp3297
g61
(g62
g63
NtRp3298
(dp3299
g66
(dp3300
g74
I3
ssg75
g3294
sg68
(lp3301
S'<class wsgiref.util.FileWrapper at 0x1d858d8>'
p3302
asbasbasbag61
(g77
g63
NtRp3303
(dp3304
g66
(dp3305
sg75
g2856
sg68
(lp3306
g61
(g82
g63
NtRp3307
(dp3308
g66
(dp3309
g86
g87
ssg75
g3303
sg68
(lp3310
S'wsgi.input'
p3311
asbag61
(g82
g63
NtRp3312
(dp3313
g66
(dp3314
g93
g94
ssg75
g3303
sg68
(lp3315
S':'
asbag61
(g82
g63
NtRp3316
(dp3317
g66
(dp3318
sg75
g3303
sg68
(lp3319
g61
(g62
g63
NtRp3320
(dp3321
g66
(dp3322
g74
I3
ssg75
g3316
sg68
(lp3323
S'<cStringIO.StringO object at 0x7f9f3c074298>'
p3324
asbasbasbag61
(g77
g63
NtRp3325
(dp3326
g66
(dp3327
sg75
g2856
sg68
(lp3328
g61
(g82
g63
NtRp3329
(dp3330
g66
(dp3331
g86
g87
ssg75
g3325
sg68
(lp3332
S'wsgi.multiprocess'
p3333
asbag61
(g82
g63
NtRp3334
(dp3335
g66
(dp3336
g93
g94
ssg75
g3325
sg68
(lp3337
S':'
asbag61
(g82
g63
NtRp3338
(dp3339
g66
(dp3340
sg75
g3325
sg68
(lp3341
g61
(g62
g63
NtRp3342
(dp3343
g66
(dp3344
g74
I3
ssg75
g3338
sg68
(lp3345
g104
asbasbasbag61
(g77
g63
NtRp3346
(dp3347
g66
(dp3348
sg75
g2856
sg68
(lp3349
g61
(g82
g63
NtRp3350
(dp3351
g66
(dp3352
g86
g87
ssg75
g3346
sg68
(lp3353
S'wsgi.multithread'
p3354
asbag61
(g82
g63
NtRp3355
(dp3356
g66
(dp3357
g93
g94
ssg75
g3346
sg68
(lp3358
S':'
asbag61
(g82
g63
NtRp3359
(dp3360
g66
(dp3361
sg75
g3346
sg68
(lp3362
g61
(g62
g63
NtRp3363
(dp3364
g66
(dp3365
g74
I3
ssg75
g3359
sg68
(lp3366
g1961
asbasbasbag61
(g77
g63
NtRp3367
(dp3368
g66
(dp3369
sg75
g2856
sg68
(lp3370
g61
(g82
g63
NtRp3371
(dp3372
g66
(dp3373
g86
g87
ssg75
g3367
sg68
(lp3374
S'wsgi.run_once'
p3375
asbag61
(g82
g63
NtRp3376
(dp3377
g66
(dp3378
g93
g94
ssg75
g3367
sg68
(lp3379
S':'
asbag61
(g82
g63
NtRp3380
(dp3381
g66
(dp3382
sg75
g3367
sg68
(lp3383
g61
(g62
g63
NtRp3384
(dp3385
g66
(dp3386
g74
I3
ssg75
g3380
sg68
(lp3387
g104
asbasbasbag61
(g77
g63
NtRp3388
(dp3389
g66
(dp3390
sg75
g2856
sg68
(lp3391
g61
(g82
g63
NtRp3392
(dp3393
g66
(dp3394
g86
g87
ssg75
g3388
sg68
(lp3395
S'wsgi.url_scheme'
p3396
asbag61
(g82
g63
NtRp3397
(dp3398
g66
(dp3399
g93
g94
ssg75
g3388
sg68
(lp3400
S':'
asbag61
(g82
g63
NtRp3401
(dp3402
g66
(dp3403
sg75
g3388
sg68
(lp3404
g61
(g62
g63
NtRp3405
(dp3406
g66
(dp3407
g74
I3
ssg75
g3401
sg68
(lp3408
g2004
asbasbasbag61
(g77
g63
NtRp3409
(dp3410
g66
(dp3411
sg75
g2856
sg68
(lp3412
g61
(g82
g63
NtRp3413
(dp3414
g66
(dp3415
g86
g87
ssg75
g3409
sg68
(lp3416
S'wsgi.version'
p3417
asbag61
(g82
g63
NtRp3418
(dp3419
g66
(dp3420
g93
g94
ssg75
g3409
sg68
(lp3421
S':'
asbag61
(g82
g63
NtRp3422
(dp3423
g66
(dp3424
sg75
g3409
sg68
(lp3425
g61
(g62
g63
NtRp3426
(dp3427
g66
(dp3428
g74
I3
ssg75
g3422
sg68
(lp3429
S'1'
asbasbasbasbasbasbasbasbasbasbasbasbasbsS'frames'
p3430
(lp3431
(dp3432
S'file'
p3433
S'/home/urvashi/Desktop/WEB2PY/web2py/gluon/restricted.py'
p3434
sS'dump'
p3435
(dp3436
S'environment'
p3437
S"{'A': <class 'gluon.html.A'>, 'Auth': <class 'gluon.tools.Auth'>, 'B': <class 'gluon.html.B'>, 'BEAUTIFY': <class 'gluon.html.BEAUTIFY'>, 'BODY': <class 'gluon.html.BODY'>, 'BR': <class 'gluon.html.BR'>, 'BUTTON': <class 'gluon.html.BUTTON'>, 'CAT': <class 'gluon.html.CAT'>, 'CENTER': <class 'gluon.html.CENTER'>, 'CLEANUP': <class 'gluon.validators.CLEANUP'>, ...}"
p3438
sS'ccode'
p3439
S'<code object <module> at 0x7f9f44191f30, file "/...plications/SSAD/controllers/default.py", line 12>'
p3440
ssS'lnum'
p3441
I212
sS'lines'
p3442
(dp3443
I207
S'    try:'
p3444
sI208
S'        if isinstance(code, types.CodeType):'
p3445
sI209
S'            ccode = code'
p3446
sI210
S'        else:'
p3447
sI211
S'            ccode = compile2(code, layer)'
p3448
sI212
S'        exec ccode in environment'
p3449
sI213
S'    except HTTP:'
p3450
sI214
S'        raise'
p3451
sI215
S'    except RestrictedError:'
p3452
sI216
S'        # do not encapsulate (obfuscate) the original RestrictedError'
p3453
ssS'call'
p3454
S"(code='# -*- coding: utf-8 -*-\\n# this file is released ...\\n\\nresponse._vars=response._caller(delete_user_2)\\n', environment={'A': <class 'gluon.html.A'>, 'Auth': <class 'gluon.tools.Auth'>, 'B': <class 'gluon.html.B'>, 'BEAUTIFY': <class 'gluon.html.BEAUTIFY'>, 'BODY': <class 'gluon.html.BODY'>, 'BR': <class 'gluon.html.BR'>, 'BUTTON': <class 'gluon.html.BUTTON'>, 'CAT': <class 'gluon.html.CAT'>, 'CENTER': <class 'gluon.html.CENTER'>, 'CLEANUP': <class 'gluon.validators.CLEANUP'>, ...}, layer='/home/urvashi/Desktop/WEB2PY/web2py/applications/SSAD/controllers/default.py')"
p3455
sS'func'
p3456
S'restricted'
p3457
sa(dp3458
g3433
S'/home/urvashi/Desktop/WEB2PY/web2py/applications/SSAD/controllers/default.py'
p3459
sg3435
(dp3460
sg3441
I153
sg3442
(dp3461
I142
S'    http://..../[app]/default/data/update/[table]/[id]'
p3462
sI143
S'    http://..../[app]/default/data/delete/[table]/[id]'
p3463
sI144
S'    http://..../[app]/default/data/select/[table]'
p3464
sI145
S'    http://..../[app]/default/data/search/[table]'
p3465
sI146
S'    but URLs must be signed, i.e. linked with'
p3466
sI147
S"      A('table',_href=URL('data/tables',user_signature=True))"
p3467
sI148
S'    or with the signed load operator'
p3468
sI149
S"      LOAD('default','data.load',args='tables',ajax=True,user_signature=True)"
p3469
sI150
S'    """'
p3470
sI151
S'    return dict(form=crud())'
p3471
ssg3454
S'()'
p3472
sg3456
S'<module>'
p3473
sa(dp3474
g3433
S'/home/urvashi/Desktop/WEB2PY/web2py/gluon/globals.py'
p3475
sg3435
(dp3476
S'self'
p3477
S'undefined'
p3478
sS'f'
S'<function delete_user_2>'
p3479
ssg3441
I193
sg3442
(dp3480
I192
S'        self._vars = None'
p3481
sI193
S'        self._caller = lambda f: f()'
p3482
sI194
S'        self._view_environment = None'
p3483
sI195
S'        self._custom_commit = None'
p3484
sI196
S'        self._custom_rollback = None'
p3485
sI197
S''
sI188
S'        self.menu = []             # used by the default view layout'
p3486
sI189
S'        self.files = []            # used by web2py_ajax.html'
p3487
sI190
S'        self.generic_patterns = []  # patterns to allow generic views'
p3488
sI191
S"        self.delimiters = ('{{', '}}')"
p3489
ssg3454
S'(f=<function delete_user_2>)'
p3490
sg3456
S'<lambda>'
p3491
sa(dp3492
g3433
S'/home/urvashi/Desktop/WEB2PY/web2py/applications/SSAD/controllers/default.py'
p3493
sg3435
(dp3494
S'db.auth_user.email'
p3495
S'<gluon.dal.Field object>'
p3496
sS'i'
g3478
sS').select'
p3497
g3478
sS'db.auth_user'
p3498
S'<Table auth_user (id,first_name,last_name,email,...stration_key,reset_password_key,registration_id)>'
p3499
sS'global db'
p3500
S'<DAL uri="sqlite://storage.sqlite">'
p3501
sS'usrname'
p3502
S"'2'"
p3503
ssg3441
I113
sg3442
(dp3504
I108
S'        else:'
p3505
sI109
S"            redirect(URL('user'))"
p3506
sI110
S'        return dict(form=form)'
p3507
sI111
S'def delete_user_2():'
p3508
sI112
S'        usrname=str(request.vars.usrname)'
p3509
sI113
S"        i=db(db.auth_user.email==usrname).select('db.auth_user.id')"
p3510
sI114
S'        (db.auth_user.id==i).delete()'
p3511
sI115
S'        return locals()'
p3512
sI116
S''
sI117
S'def delete_post():'
p3513
ssg3454
S'()'
p3514
sg3456
S'delete_user_2'
p3515
sa(dp3516
g3433
S'/home/urvashi/Desktop/WEB2PY/web2py/gluon/dal.py'
p3517
sg3435
(dp3518
S'self.query'
p3519
S"<Query (auth_user.email = '2')>"
p3520
sS'adapter.select'
p3521
S'<bound method SQLiteAdapter.select of <gluon.dal.SQLiteAdapter object>>'
p3522
sS'fields'
p3523
S'[<gluon.dal.Expression object>]'
p3524
sS'adapter'
p3525
S'<gluon.dal.SQLiteAdapter object>'
p3526
sS'attributes'
p3527
g21
sS'self'
p3528
S"<Set (auth_user.email = '2')>"
p3529
ssg3441
I8905
sg3442
(dp3530
I8900
S"                                    attributes.get('join',None),"
p3531
sI8901
S"                                    attributes.get('left',None),"
p3532
sI8902
S"                                    attributes.get('orderby',None),"
p3533
sI8903
S"                                    attributes.get('groupby',None))"
p3534
sI8904
S'        fields = adapter.expand_all(fields, tablenames)'
p3535
sI8905
S'        return adapter.select(self.query,fields,attributes)'
p3536
sI8906
S''
sI8907
S'    def nested_select(self,*fields,**attributes):'
p3537
sI8908
S'        return Expression(self.db,self._select(*fields,**attributes))'
p3538
sI8909
S''
ssg3454
S"(self=<Set (auth_user.email = '2')>, *fields=[<gluon.dal.Expression object>], **attributes={})"
p3539
sg3456
S'select'
p3540
sa(dp3541
g3433
S'/home/urvashi/Desktop/WEB2PY/web2py/gluon/dal.py'
p3542
sg3435
(dp3543
S'fields'
p3544
S'[<gluon.dal.Expression object>]'
p3545
sS'self'
p3546
S'<gluon.dal.SQLiteAdapter object>'
p3547
sS').select'
p3548
S'<bound method SQLiteAdapter.select of <gluon.dal.SQLiteAdapter object>>'
p3549
sS'attributes'
p3550
g21
sS'global SQLiteAdapter'
p3551
S"<class 'gluon.dal.SQLiteAdapter'>"
p3552
sS'query'
p3553
S"<Query (auth_user.email = '2')>"
p3554
sS'builtinsuper'
p3555
S"<type 'super'>"
p3556
ssg3441
I2146
sg3442
(dp3557
I2144
S"        if attributes.get('for_update', False) and not 'cache' in attributes:"
p3558
sI2145
S"            self.execute('BEGIN IMMEDIATE TRANSACTION;')"
p3559
sI2146
S'        return super(SQLiteAdapter, self).select(query, fields, attributes)'
p3560
sI2147
S''
sI2148
S'class SpatiaLiteAdapter(SQLiteAdapter):'
p3561
sI2149
S"    drivers = ('sqlite3','sqlite2')"
p3562
sI2150
S''
sI2141
S'        Note that the entire database, rather than one record, is locked'
p3563
sI2142
S'        (it will be locked eventually anyway by the following UPDATE).'
p3564
sI2143
S'        """'
p3565
ssg3454
S"(self=<gluon.dal.SQLiteAdapter object>, query=<Query (auth_user.email = '2')>, fields=[<gluon.dal.Expression object>], attributes={})"
p3566
sg3456
g3540
sa(dp3567
g3433
S'/home/urvashi/Desktop/WEB2PY/web2py/gluon/dal.py'
p3568
sg3435
(dp3569
S'fields'
p3570
S'[<gluon.dal.Expression object>]'
p3571
sS'self'
p3572
S'<gluon.dal.SQLiteAdapter object>'
p3573
sS'attributes'
p3574
g21
sS'self._select_aux'
p3575
S'<bound method SQLiteAdapter._select_aux of <gluon.dal.SQLiteAdapter object>>'
p3576
sS'sql'
p3577
S'"SELECT  db.auth_user.id FROM auth_user WHERE (auth_user.email = \'2\');"'
p3578
ssg3441
I1631
sg3442
(dp3579
I1632
S''
sI1633
S'    def _count(self, query, distinct=None):'
p3580
sI1634
S'        tablenames = self.tables(query)'
p3581
sI1635
S'        if query:'
p3582
sI1626
S'            return cache_model('
p3583
sI1627
S'                key,'
p3584
sI1628
S'                lambda self=self,args=args:self._select_aux(*args),'
p3585
sI1629
S'                time_expire)'
p3586
sI1630
S'        else:'
p3587
sI1631
S'            return self._select_aux(sql,fields,attributes)'
p3588
ssg3454
S"(self=<gluon.dal.SQLiteAdapter object>, query=<Query (auth_user.email = '2')>, fields=[<gluon.dal.Expression object>], attributes={})"
p3589
sg3456
g3540
sa(dp3590
g3433
S'/home/urvashi/Desktop/WEB2PY/web2py/gluon/dal.py'
p3591
sg3435
(dp3592
S'self'
p3593
S'<gluon.dal.SQLiteAdapter object>'
p3594
sS'self.execute'
p3595
S'<bound method SQLiteAdapter.execute of <gluon.dal.SQLiteAdapter object>>'
p3596
sS'sql'
p3597
S'"SELECT  db.auth_user.id FROM auth_user WHERE (auth_user.email = \'2\');"'
p3598
ssg3441
I1596
sg3442
(dp3599
I1600
S"            key = self.uri + '/' + sql + '/rows'"
p3600
sI1591
S''
sI1592
S'    def _select_aux(self,sql,fields,attributes):'
p3601
sI1593
S'        args_get = attributes.get'
p3602
sI1594
S"        cache = args_get('cache',None)"
p3603
sI1595
S'        if not cache:'
p3604
sI1596
S'            self.execute(sql)'
p3605
sI1597
S'            rows = self._fetchall()'
p3606
sI1598
S'        else:'
p3607
sI1599
S'            (cache_model, time_expire) = cache'
p3608
ssg3454
S'(self=<gluon.dal.SQLiteAdapter object>, sql="SELECT  db.auth_user.id FROM auth_user WHERE (auth_user.email = \'2\');", fields=[<gluon.dal.Expression object>], attributes={})'
p3609
sg3456
S'_select_aux'
p3610
sa(dp3611
g3433
S'/home/urvashi/Desktop/WEB2PY/web2py/gluon/dal.py'
p3612
sg3435
(dp3613
S'a'
S'("SELECT  db.auth_user.id FROM auth_user WHERE (auth_user.email = \'2\');",)'
p3614
sS'self'
p3615
S'<gluon.dal.SQLiteAdapter object>'
p3616
sS'b'
g21
sS'self.log_execute'
p3617
S'<bound method SQLiteAdapter.log_execute of <gluon.dal.SQLiteAdapter object>>'
p3618
ssg3441
I1709
sg3442
(dp3619
I1704
S'        self.db._timings.append((command,time.time()-t0))'
p3620
sI1705
S'        del self.db._timings[:-TIMINGSSIZE]'
p3621
sI1706
S'        return ret'
p3622
sI1707
S''
sI1708
S'    def execute(self, *a, **b):'
p3623
sI1709
S'        return self.log_execute(*a, **b)'
p3624
sI1710
S''
sI1711
S'    def represent(self, obj, fieldtype):'
p3625
sI1712
S'        field_is_type = fieldtype.startswith'
p3626
sI1713
S'        if isinstance(obj, CALLABLETYPES):'
p3627
ssg3454
S'(self=<gluon.dal.SQLiteAdapter object>, *a=("SELECT  db.auth_user.id FROM auth_user WHERE (auth_user.email = \'2\');",), **b={})'
p3628
sg3456
S'execute'
p3629
sa(dp3630
g3433
S'/home/urvashi/Desktop/WEB2PY/web2py/gluon/dal.py'
p3631
sg3435
(dp3632
S'a'
S'("SELECT  db.auth_user.id FROM auth_user WHERE (auth_user.email = \'2\');",)'
p3633
sS'b'
g21
sS'self'
p3634
S'<gluon.dal.SQLiteAdapter object>'
p3635
sS'ret'
p3636
g3478
sS'self.cursor'
p3637
S'<sqlite3.Cursor object>'
p3638
sS'self.cursor.execute'
p3639
S'<built-in method execute of sqlite3.Cursor object>'
p3640
ssg3441
I1703
sg3442
(dp3641
I1698
S'        command = a[0]'
p3642
sI1699
S'        if self.db._debug:'
p3643
sI1700
S"            LOGGER.debug('SQL: %s' % command)"
p3644
sI1701
S'        self.db._lastsql = command'
p3645
sI1702
S'        t0 = time.time()'
p3646
sI1703
S'        ret = self.cursor.execute(*a, **b)'
p3647
sI1704
S'        self.db._timings.append((command,time.time()-t0))'
p3648
sI1705
S'        del self.db._timings[:-TIMINGSSIZE]'
p3649
sI1706
S'        return ret'
p3650
sI1707
S''
ssg3454
S'(self=<gluon.dal.SQLiteAdapter object>, *a=("SELECT  db.auth_user.id FROM auth_user WHERE (auth_user.email = \'2\');",), **b={})'
p3651
sg3456
S'log_execute'
p3652
sasS'pyver'
p3653
S'Python 2.7.3: /usr/bin/python'
p3654
sS'session'
p3655
g61
(g62
g63
NtRp3656
(dp3657
g66
(dp3658
sg68
(lp3659
g61
(g70
g63
NtRp3660
(dp3661
g66
(dp3662
g74
I5
ssg75
Nsg68
(lp3663
g61
(g77
g63
NtRp3664
(dp3665
g66
(dp3666
sg75
g3660
sg68
(lp3667
g61
(g82
g63
NtRp3668
(dp3669
g66
(dp3670
g86
g87
ssg75
g3664
sg68
(lp3671
S'auth'
p3672
asbag61
(g82
g63
NtRp3673
(dp3674
g66
(dp3675
g93
g94
ssg75
g3664
sg68
(lp3676
S':'
asbag61
(g82
g63
NtRp3677
(dp3678
g66
(dp3679
sg75
g3664
sg68
(lp3680
g61
(g62
g63
NtRp3681
(dp3682
g66
(dp3683
g74
I5
ssg75
g3677
sg68
(lp3684
g61
(g70
g63
NtRp3685
(dp3686
g66
(dp3687
g74
I4
ssg75
Nsg68
(lp3688
g61
(g77
g63
NtRp3689
(dp3690
g66
(dp3691
sg75
g3685
sg68
(lp3692
g61
(g82
g63
NtRp3693
(dp3694
g66
(dp3695
g86
g87
ssg75
g3689
sg68
(lp3696
S'expiration'
p3697
asbag61
(g82
g63
NtRp3698
(dp3699
g66
(dp3700
g93
g94
ssg75
g3689
sg68
(lp3701
S':'
asbag61
(g82
g63
NtRp3702
(dp3703
g66
(dp3704
sg75
g3689
sg68
(lp3705
g61
(g62
g63
NtRp3706
(dp3707
g66
(dp3708
g74
I4
ssg75
g3702
sg68
(lp3709
S'3600'
p3710
asbasbasbag61
(g77
g63
NtRp3711
(dp3712
g66
(dp3713
sg75
g3685
sg68
(lp3714
g61
(g82
g63
NtRp3715
(dp3716
g66
(dp3717
g86
g87
ssg75
g3711
sg68
(lp3718
S'hmac_key'
p3719
asbag61
(g82
g63
NtRp3720
(dp3721
g66
(dp3722
g93
g94
ssg75
g3711
sg68
(lp3723
S':'
asbag61
(g82
g63
NtRp3724
(dp3725
g66
(dp3726
sg75
g3711
sg68
(lp3727
g61
(g62
g63
NtRp3728
(dp3729
g66
(dp3730
g74
I4
ssg75
g3724
sg68
(lp3731
S'42ba74bd-a4d7-4569-9712-bd81702af9a4'
p3732
asbasbasbag61
(g77
g63
NtRp3733
(dp3734
g66
(dp3735
sg75
g3685
sg68
(lp3736
g61
(g82
g63
NtRp3737
(dp3738
g66
(dp3739
g86
g87
ssg75
g3733
sg68
(lp3740
S'last_visit'
p3741
asbag61
(g82
g63
NtRp3742
(dp3743
g66
(dp3744
g93
g94
ssg75
g3733
sg68
(lp3745
S':'
asbag61
(g82
g63
NtRp3746
(dp3747
g66
(dp3748
sg75
g3733
sg68
(lp3749
g61
(g62
g63
NtRp3750
(dp3751
g66
(dp3752
g74
I4
ssg75
g3746
sg68
(lp3753
S'datetime.datetime(2013, 8, 26, 20, 17, 1, 211471)'
p3754
asbasbasbag61
(g77
g63
NtRp3755
(dp3756
g66
(dp3757
sg75
g3685
sg68
(lp3758
g61
(g82
g63
NtRp3759
(dp3760
g66
(dp3761
g86
g87
ssg75
g3755
sg68
(lp3762
S'remember'
p3763
asbag61
(g82
g63
NtRp3764
(dp3765
g66
(dp3766
g93
g94
ssg75
g3755
sg68
(lp3767
S':'
asbag61
(g82
g63
NtRp3768
(dp3769
g66
(dp3770
sg75
g3755
sg68
(lp3771
g61
(g62
g63
NtRp3772
(dp3773
g66
(dp3774
g74
I4
ssg75
g3768
sg68
(lp3775
g104
asbasbasbag61
(g77
g63
NtRp3776
(dp3777
g66
(dp3778
sg75
g3685
sg68
(lp3779
g61
(g82
g63
NtRp3780
(dp3781
g66
(dp3782
g86
g87
ssg75
g3776
sg68
(lp3783
S'user'
p3784
asbag61
(g82
g63
NtRp3785
(dp3786
g66
(dp3787
g93
g94
ssg75
g3776
sg68
(lp3788
S':'
asbag61
(g82
g63
NtRp3789
(dp3790
g66
(dp3791
sg75
g3776
sg68
(lp3792
g61
(g62
g63
NtRp3793
(dp3794
g66
(dp3795
g74
I4
ssg75
g3789
sg68
(lp3796
g61
(g70
g63
NtRp3797
(dp3798
g66
(dp3799
g74
I3
ssg75
Nsg68
(lp3800
g61
(g77
g63
NtRp3801
(dp3802
g66
(dp3803
sg75
g3797
sg68
(lp3804
g61
(g82
g63
NtRp3805
(dp3806
g66
(dp3807
g86
g87
ssg75
g3801
sg68
(lp3808
S'email'
p3809
asbag61
(g82
g63
NtRp3810
(dp3811
g66
(dp3812
g93
g94
ssg75
g3801
sg68
(lp3813
S':'
asbag61
(g82
g63
NtRp3814
(dp3815
g66
(dp3816
sg75
g3801
sg68
(lp3817
g61
(g62
g63
NtRp3818
(dp3819
g66
(dp3820
g74
I3
ssg75
g3814
sg68
(lp3821
S'admin@iiit.ac.in'
p3822
asbasbasbag61
(g77
g63
NtRp3823
(dp3824
g66
(dp3825
sg75
g3797
sg68
(lp3826
g61
(g82
g63
NtRp3827
(dp3828
g66
(dp3829
g86
g87
ssg75
g3823
sg68
(lp3830
S'first_name'
p3831
asbag61
(g82
g63
NtRp3832
(dp3833
g66
(dp3834
g93
g94
ssg75
g3823
sg68
(lp3835
S':'
asbag61
(g82
g63
NtRp3836
(dp3837
g66
(dp3838
sg75
g3823
sg68
(lp3839
g61
(g62
g63
NtRp3840
(dp3841
g66
(dp3842
g74
I3
ssg75
g3836
sg68
(lp3843
S'ADMIN'
p3844
asbasbasbag61
(g77
g63
NtRp3845
(dp3846
g66
(dp3847
sg75
g3797
sg68
(lp3848
g61
(g82
g63
NtRp3849
(dp3850
g66
(dp3851
g86
g87
ssg75
g3845
sg68
(lp3852
S'id'
p3853
asbag61
(g82
g63
NtRp3854
(dp3855
g66
(dp3856
g93
g94
ssg75
g3845
sg68
(lp3857
S':'
asbag61
(g82
g63
NtRp3858
(dp3859
g66
(dp3860
sg75
g3845
sg68
(lp3861
g61
(g62
g63
NtRp3862
(dp3863
g66
(dp3864
g74
I3
ssg75
g3858
sg68
(lp3865
S'1'
asbasbasbag61
(g77
g63
NtRp3866
(dp3867
g66
(dp3868
sg75
g3797
sg68
(lp3869
g61
(g82
g63
NtRp3870
(dp3871
g66
(dp3872
g86
g87
ssg75
g3866
sg68
(lp3873
S'last_name'
p3874
asbag61
(g82
g63
NtRp3875
(dp3876
g66
(dp3877
g93
g94
ssg75
g3866
sg68
(lp3878
S':'
asbag61
(g82
g63
NtRp3879
(dp3880
g66
(dp3881
sg75
g3866
sg68
(lp3882
g61
(g62
g63
NtRp3883
(dp3884
g66
(dp3885
g74
I3
ssg75
g3879
sg68
(lp3886
S'IIITH'
p3887
asbasbasbag61
(g77
g63
NtRp3888
(dp3889
g66
(dp3890
sg75
g3797
sg68
(lp3891
g61
(g82
g63
NtRp3892
(dp3893
g66
(dp3894
g86
g87
ssg75
g3888
sg68
(lp3895
S'registration_id'
p3896
asbag61
(g82
g63
NtRp3897
(dp3898
g66
(dp3899
g93
g94
ssg75
g3888
sg68
(lp3900
S':'
asbag61
(g82
g63
NtRp3901
(dp3902
g66
(dp3903
sg75
g3888
sg68
(lp3904
g61
(g62
g63
NtRp3905
(dp3906
g66
(dp3907
g74
I3
ssg75
g3901
sg68
(lp3908
S''
asbasbasbag61
(g77
g63
NtRp3909
(dp3910
g66
(dp3911
sg75
g3797
sg68
(lp3912
g61
(g82
g63
NtRp3913
(dp3914
g66
(dp3915
g86
g87
ssg75
g3909
sg68
(lp3916
S'registration_key'
p3917
asbag61
(g82
g63
NtRp3918
(dp3919
g66
(dp3920
g93
g94
ssg75
g3909
sg68
(lp3921
S':'
asbag61
(g82
g63
NtRp3922
(dp3923
g66
(dp3924
sg75
g3909
sg68
(lp3925
g61
(g62
g63
NtRp3926
(dp3927
g66
(dp3928
g74
I3
ssg75
g3922
sg68
(lp3929
S''
asbasbasbag61
(g77
g63
NtRp3930
(dp3931
g66
(dp3932
sg75
g3797
sg68
(lp3933
g61
(g82
g63
NtRp3934
(dp3935
g66
(dp3936
g86
g87
ssg75
g3930
sg68
(lp3937
S'reset_password_key'
p3938
asbag61
(g82
g63
NtRp3939
(dp3940
g66
(dp3941
g93
g94
ssg75
g3930
sg68
(lp3942
S':'
asbag61
(g82
g63
NtRp3943
(dp3944
g66
(dp3945
sg75
g3930
sg68
(lp3946
g61
(g62
g63
NtRp3947
(dp3948
g66
(dp3949
g74
I3
ssg75
g3943
sg68
(lp3950
S''
asbasbasbasbasbasbasbag61
(g77
g63
NtRp3951
(dp3952
g66
(dp3953
sg75
g3685
sg68
(lp3954
g61
(g82
g63
NtRp3955
(dp3956
g66
(dp3957
g86
g87
ssg75
g3951
sg68
(lp3958
S'user_groups'
p3959
asbag61
(g82
g63
NtRp3960
(dp3961
g66
(dp3962
g93
g94
ssg75
g3951
sg68
(lp3963
S':'
asbag61
(g82
g63
NtRp3964
(dp3965
g66
(dp3966
sg75
g3951
sg68
(lp3967
g61
(g62
g63
NtRp3968
(dp3969
g66
(dp3970
g74
I4
ssg75
g3964
sg68
(lp3971
g61
(g70
g63
NtRp3972
(dp3973
g66
(dp3974
g74
I3
ssg75
Nsg68
(lp3975
sbasbasbasbasbasbasbasbag61
(g77
g63
NtRp3976
(dp3977
g66
(dp3978
sg75
g3660
sg68
(lp3979
g61
(g82
g63
NtRp3980
(dp3981
g66
(dp3982
g86
g87
ssg75
g3976
sg68
(lp3983
S'flash'
p3984
asbag61
(g82
g63
NtRp3985
(dp3986
g66
(dp3987
g93
g94
ssg75
g3976
sg68
(lp3988
S':'
asbag61
(g82
g63
NtRp3989
(dp3990
g66
(dp3991
sg75
g3976
sg68
(lp3992
g61
(g62
g63
NtRp3993
(dp3994
g66
(dp3995
g74
I5
ssg75
g3989
sg68
(lp3996
S'None'
p3997
asbasbasbag61
(g77
g63
NtRp3998
(dp3999
g66
(dp4000
sg75
g3660
sg68
(lp4001
g61
(g82
g63
NtRp4002
(dp4003
g66
(dp4004
g86
g87
ssg75
g3998
sg68
(lp4005
S'last_orderby'
p4006
asbag61
(g82
g63
NtRp4007
(dp4008
g66
(dp4009
g93
g94
ssg75
g3998
sg68
(lp4010
S':'
asbag61
(g82
g63
NtRp4011
(dp4012
g66
(dp4013
sg75
g3998
sg68
(lp4014
g61
(g62
g63
NtRp4015
(dp4016
g66
(dp4017
g74
I5
ssg75
g4011
sg68
(lp4018
S'None'
p4019
asbasbasbag61
(g77
g63
NtRp4020
(dp4021
g66
(dp4022
sg75
g3660
sg68
(lp4023
g61
(g82
g63
NtRp4024
(dp4025
g66
(dp4026
g86
g87
ssg75
g4020
sg68
(lp4027
S'last_query'
p4028
asbag61
(g82
g63
NtRp4029
(dp4030
g66
(dp4031
g93
g94
ssg75
g4020
sg68
(lp4032
S':'
asbag61
(g82
g63
NtRp4033
(dp4034
g66
(dp4035
sg75
g4020
sg68
(lp4036
g61
(g62
g63
NtRp4037
(dp4038
g66
(dp4039
g74
I5
ssg75
g4033
sg68
(lp4040
S'db.auth_user.id>0'
p4041
asbasbasbasbasbsS'etype'
p4042
S"<class 'sqlite3.OperationalError'>"
p4043
sS'date'
p4044
S'Mon Aug 26 20:18:35 2013'
p4045
sS'response'
p4046
g61
(g62
g63
NtRp4047
(dp4048
g66
(dp4049
sg68
(lp4050
g61
(g70
g63
NtRp4051
(dp4052
g66
(dp4053
g74
I5
ssg75
Nsg68
(lp4054
g61
(g77
g63
NtRp4055
(dp4056
g66
(dp4057
sg75
g4051
sg68
(lp4058
g61
(g82
g63
NtRp4059
(dp4060
g66
(dp4061
g86
g87
ssg75
g4055
sg68
(lp4062
g159
asbag61
(g82
g63
NtRp4063
(dp4064
g66
(dp4065
g93
g94
ssg75
g4055
sg68
(lp4066
S':'
asbag61
(g82
g63
NtRp4067
(dp4068
g66
(dp4069
sg75
g4055
sg68
(lp4070
g61
(g62
g63
NtRp4071
(dp4072
g66
(dp4073
g74
I5
ssg75
g4067
sg68
(lp4074
S'<cStringIO.StringO object at 0x7f9f3c0834c8>'
p4075
asbasbasbag61
(g77
g63
NtRp4076
(dp4077
g66
(dp4078
sg75
g4051
sg68
(lp4079
g61
(g82
g63
NtRp4080
(dp4081
g66
(dp4082
g86
g87
ssg75
g4076
sg68
(lp4083
g247
asbag61
(g82
g63
NtRp4084
(dp4085
g66
(dp4086
g93
g94
ssg75
g4076
sg68
(lp4087
S':'
asbag61
(g82
g63
NtRp4088
(dp4089
g66
(dp4090
sg75
g4076
sg68
(lp4091
g61
(g62
g63
NtRp4092
(dp4093
g66
(dp4094
g74
I5
ssg75
g4088
sg68
(lp4095
g61
(g70
g63
NtRp4096
(dp4097
g66
(dp4098
g74
I4
ssg75
Nsg68
(lp4099
g61
(g77
g63
NtRp4100
(dp4101
g66
(dp4102
sg75
g4096
sg68
(lp4103
g61
(g82
g63
NtRp4104
(dp4105
g66
(dp4106
g86
g87
ssg75
g4100
sg68
(lp4107
S'session_id_ssad'
p4108
asbag61
(g82
g63
NtRp4109
(dp4110
g66
(dp4111
g93
g94
ssg75
g4100
sg68
(lp4112
S':'
asbag61
(g82
g63
NtRp4113
(dp4114
g66
(dp4115
sg75
g4100
sg68
(lp4116
g61
(g62
g63
NtRp4117
(dp4118
g66
(dp4119
g74
I4
ssg75
g4113
sg68
(lp4120
g665
ag61
(g70
g63
NtRp4121
(dp4122
g66
(dp4123
g74
I3
ssg75
Nsg68
(lp4124
g61
(g77
g63
NtRp4125
(dp4126
g66
(dp4127
sg75
g4121
sg68
(lp4128
g61
(g82
g63
NtRp4129
(dp4130
g66
(dp4131
g86
g87
ssg75
g4125
sg68
(lp4132
g298
asbag61
(g82
g63
NtRp4133
(dp4134
g66
(dp4135
g93
g94
ssg75
g4125
sg68
(lp4136
S':'
asbag61
(g82
g63
NtRp4137
(dp4138
g66
(dp4139
sg75
g4125
sg68
(lp4140
g61
(g62
g63
NtRp4141
(dp4142
g66
(dp4143
g74
I3
ssg75
g4137
sg68
(lp4144
S''
asbasbasbag61
(g77
g63
NtRp4145
(dp4146
g66
(dp4147
sg75
g4121
sg68
(lp4148
g61
(g82
g63
NtRp4149
(dp4150
g66
(dp4151
g86
g87
ssg75
g4145
sg68
(lp4152
g319
asbag61
(g82
g63
NtRp4153
(dp4154
g66
(dp4155
g93
g94
ssg75
g4145
sg68
(lp4156
S':'
asbag61
(g82
g63
NtRp4157
(dp4158
g66
(dp4159
sg75
g4145
sg68
(lp4160
g61
(g62
g63
NtRp4161
(dp4162
g66
(dp4163
g74
I3
ssg75
g4157
sg68
(lp4164
S''
asbasbasbag61
(g77
g63
NtRp4165
(dp4166
g66
(dp4167
sg75
g4121
sg68
(lp4168
g61
(g82
g63
NtRp4169
(dp4170
g66
(dp4171
g86
g87
ssg75
g4165
sg68
(lp4172
g340
asbag61
(g82
g63
NtRp4173
(dp4174
g66
(dp4175
g93
g94
ssg75
g4165
sg68
(lp4176
S':'
asbag61
(g82
g63
NtRp4177
(dp4178
g66
(dp4179
sg75
g4165
sg68
(lp4180
g61
(g62
g63
NtRp4181
(dp4182
g66
(dp4183
g74
I3
ssg75
g4177
sg68
(lp4184
S''
asbasbasbag61
(g77
g63
NtRp4185
(dp4186
g66
(dp4187
sg75
g4121
sg68
(lp4188
g61
(g82
g63
NtRp4189
(dp4190
g66
(dp4191
g86
g87
ssg75
g4185
sg68
(lp4192
g361
asbag61
(g82
g63
NtRp4193
(dp4194
g66
(dp4195
g93
g94
ssg75
g4185
sg68
(lp4196
S':'
asbag61
(g82
g63
NtRp4197
(dp4198
g66
(dp4199
sg75
g4185
sg68
(lp4200
g61
(g62
g63
NtRp4201
(dp4202
g66
(dp4203
g74
I3
ssg75
g4197
sg68
(lp4204
S''
asbasbasbag61
(g77
g63
NtRp4205
(dp4206
g66
(dp4207
sg75
g4121
sg68
(lp4208
g61
(g82
g63
NtRp4209
(dp4210
g66
(dp4211
g86
g87
ssg75
g4205
sg68
(lp4212
g382
asbag61
(g82
g63
NtRp4213
(dp4214
g66
(dp4215
g93
g94
ssg75
g4205
sg68
(lp4216
S':'
asbag61
(g82
g63
NtRp4217
(dp4218
g66
(dp4219
sg75
g4205
sg68
(lp4220
g61
(g62
g63
NtRp4221
(dp4222
g66
(dp4223
g74
I3
ssg75
g4217
sg68
(lp4224
S''
asbasbasbag61
(g77
g63
NtRp4225
(dp4226
g66
(dp4227
sg75
g4121
sg68
(lp4228
g61
(g82
g63
NtRp4229
(dp4230
g66
(dp4231
g86
g87
ssg75
g4225
sg68
(lp4232
g403
asbag61
(g82
g63
NtRp4233
(dp4234
g66
(dp4235
g93
g94
ssg75
g4225
sg68
(lp4236
S':'
asbag61
(g82
g63
NtRp4237
(dp4238
g66
(dp4239
sg75
g4225
sg68
(lp4240
g61
(g62
g63
NtRp4241
(dp4242
g66
(dp4243
g74
I3
ssg75
g4237
sg68
(lp4244
S'/'
asbasbasbag61
(g77
g63
NtRp4245
(dp4246
g66
(dp4247
sg75
g4121
sg68
(lp4248
g61
(g82
g63
NtRp4249
(dp4250
g66
(dp4251
g86
g87
ssg75
g4245
sg68
(lp4252
g424
asbag61
(g82
g63
NtRp4253
(dp4254
g66
(dp4255
g93
g94
ssg75
g4245
sg68
(lp4256
S':'
asbag61
(g82
g63
NtRp4257
(dp4258
g66
(dp4259
sg75
g4245
sg68
(lp4260
g61
(g62
g63
NtRp4261
(dp4262
g66
(dp4263
g74
I3
ssg75
g4257
sg68
(lp4264
S''
asbasbasbag61
(g77
g63
NtRp4265
(dp4266
g66
(dp4267
sg75
g4121
sg68
(lp4268
g61
(g82
g63
NtRp4269
(dp4270
g66
(dp4271
g86
g87
ssg75
g4265
sg68
(lp4272
g445
asbag61
(g82
g63
NtRp4273
(dp4274
g66
(dp4275
g93
g94
ssg75
g4265
sg68
(lp4276
S':'
asbag61
(g82
g63
NtRp4277
(dp4278
g66
(dp4279
sg75
g4265
sg68
(lp4280
g61
(g62
g63
NtRp4281
(dp4282
g66
(dp4283
g74
I3
ssg75
g4277
sg68
(lp4284
S''
asbasbasbasbasbasbasbasbasbasbasbag61
(g77
g63
NtRp4285
(dp4286
g66
(dp4287
sg75
g4051
sg68
(lp4288
g61
(g82
g63
NtRp4289
(dp4290
g66
(dp4291
g86
g87
ssg75
g4285
sg68
(lp4292
S'delimiters'
p4293
asbag61
(g82
g63
NtRp4294
(dp4295
g66
(dp4296
g93
g94
ssg75
g4285
sg68
(lp4297
S':'
asbag61
(g82
g63
NtRp4298
(dp4299
g66
(dp4300
sg75
g4285
sg68
(lp4301
g61
(g62
g63
NtRp4302
(dp4303
g66
(dp4304
g74
I5
ssg75
g4298
sg68
(lp4305
g61
(g70
g63
NtRp4306
(dp4307
g66
(dp4308
g74
I4
ssg75
Nsg68
(lp4309
g61
(g77
g63
NtRp4310
(dp4311
g66
(dp4312
sg75
g4306
sg68
(lp4313
g61
(g82
g63
NtRp4314
(dp4315
g66
(dp4316
sg75
g4310
sg68
(lp4317
g61
(g62
g63
NtRp4318
(dp4319
g66
(dp4320
g74
I4
ssg75
g4314
sg68
(lp4321
S'{{'
p4322
asbasbasbag61
(g77
g63
NtRp4323
(dp4324
g66
(dp4325
sg75
g4306
sg68
(lp4326
g61
(g82
g63
NtRp4327
(dp4328
g66
(dp4329
sg75
g4323
sg68
(lp4330
g61
(g62
g63
NtRp4331
(dp4332
g66
(dp4333
g74
I4
ssg75
g4327
sg68
(lp4334
S'}}'
p4335
asbasbasbasbasbasbasbag61
(g77
g63
NtRp4336
(dp4337
g66
(dp4338
sg75
g4051
sg68
(lp4339
g61
(g82
g63
NtRp4340
(dp4341
g66
(dp4342
g86
g87
ssg75
g4336
sg68
(lp4343
S'files'
p4344
asbag61
(g82
g63
NtRp4345
(dp4346
g66
(dp4347
g93
g94
ssg75
g4336
sg68
(lp4348
S':'
asbag61
(g82
g63
NtRp4349
(dp4350
g66
(dp4351
sg75
g4336
sg68
(lp4352
g61
(g62
g63
NtRp4353
(dp4354
g66
(dp4355
g74
I5
ssg75
g4349
sg68
(lp4356
g61
(g70
g63
NtRp4357
(dp4358
g66
(dp4359
g74
I4
ssg75
Nsg68
(lp4360
sbasbasbasbag61
(g77
g63
NtRp4361
(dp4362
g66
(dp4363
sg75
g4051
sg68
(lp4364
g61
(g82
g63
NtRp4365
(dp4366
g66
(dp4367
g86
g87
ssg75
g4361
sg68
(lp4368
S'flash'
p4369
asbag61
(g82
g63
NtRp4370
(dp4371
g66
(dp4372
g93
g94
ssg75
g4361
sg68
(lp4373
S':'
asbag61
(g82
g63
NtRp4374
(dp4375
g66
(dp4376
sg75
g4361
sg68
(lp4377
g61
(g62
g63
NtRp4378
(dp4379
g66
(dp4380
g74
I5
ssg75
g4374
sg68
(lp4381
S''
asbasbasbag61
(g77
g63
NtRp4382
(dp4383
g66
(dp4384
sg75
g4051
sg68
(lp4385
g61
(g82
g63
NtRp4386
(dp4387
g66
(dp4388
g86
g87
ssg75
g4382
sg68
(lp4389
S'generic_patterns'
p4390
asbag61
(g82
g63
NtRp4391
(dp4392
g66
(dp4393
g93
g94
ssg75
g4382
sg68
(lp4394
S':'
asbag61
(g82
g63
NtRp4395
(dp4396
g66
(dp4397
sg75
g4382
sg68
(lp4398
g61
(g62
g63
NtRp4399
(dp4400
g66
(dp4401
g74
I5
ssg75
g4395
sg68
(lp4402
g61
(g70
g63
NtRp4403
(dp4404
g66
(dp4405
g74
I4
ssg75
Nsg68
(lp4406
g61
(g77
g63
NtRp4407
(dp4408
g66
(dp4409
sg75
g4403
sg68
(lp4410
g61
(g82
g63
NtRp4411
(dp4412
g66
(dp4413
sg75
g4407
sg68
(lp4414
g61
(g62
g63
NtRp4415
(dp4416
g66
(dp4417
g74
I4
ssg75
g4411
sg68
(lp4418
S'*'
asbasbasbasbasbasbasbag61
(g77
g63
NtRp4419
(dp4420
g66
(dp4421
sg75
g4051
sg68
(lp4422
g61
(g82
g63
NtRp4423
(dp4424
g66
(dp4425
g86
g87
ssg75
g4419
sg68
(lp4426
S'google_analytics_id'
p4427
asbag61
(g82
g63
NtRp4428
(dp4429
g66
(dp4430
g93
g94
ssg75
g4419
sg68
(lp4431
S':'
asbag61
(g82
g63
NtRp4432
(dp4433
g66
(dp4434
sg75
g4419
sg68
(lp4435
g61
(g62
g63
NtRp4436
(dp4437
g66
(dp4438
g74
I5
ssg75
g4432
sg68
(lp4439
S'None'
p4440
asbasbasbag61
(g77
g63
NtRp4441
(dp4442
g66
(dp4443
sg75
g4051
sg68
(lp4444
g61
(g82
g63
NtRp4445
(dp4446
g66
(dp4447
g86
g87
ssg75
g4441
sg68
(lp4448
S'headers'
p4449
asbag61
(g82
g63
NtRp4450
(dp4451
g66
(dp4452
g93
g94
ssg75
g4441
sg68
(lp4453
S':'
asbag61
(g82
g63
NtRp4454
(dp4455
g66
(dp4456
sg75
g4441
sg68
(lp4457
g61
(g62
g63
NtRp4458
(dp4459
g66
(dp4460
g74
I5
ssg75
g4454
sg68
(lp4461
g61
(g70
g63
NtRp4462
(dp4463
g66
(dp4464
g74
I4
ssg75
Nsg68
(lp4465
g61
(g77
g63
NtRp4466
(dp4467
g66
(dp4468
sg75
g4462
sg68
(lp4469
g61
(g82
g63
NtRp4470
(dp4471
g66
(dp4472
g86
g87
ssg75
g4466
sg68
(lp4473
S'X-Powered-By'
p4474
asbag61
(g82
g63
NtRp4475
(dp4476
g66
(dp4477
g93
g94
ssg75
g4466
sg68
(lp4478
S':'
asbag61
(g82
g63
NtRp4479
(dp4480
g66
(dp4481
sg75
g4466
sg68
(lp4482
g61
(g62
g63
NtRp4483
(dp4484
g66
(dp4485
g74
I4
ssg75
g4479
sg68
(lp4486
S'web2py'
p4487
asbasbasbasbasbasbasbag61
(g77
g63
NtRp4488
(dp4489
g66
(dp4490
sg75
g4051
sg68
(lp4491
g61
(g82
g63
NtRp4492
(dp4493
g66
(dp4494
g86
g87
ssg75
g4488
sg68
(lp4495
S'logo'
p4496
asbag61
(g82
g63
NtRp4497
(dp4498
g66
(dp4499
g93
g94
ssg75
g4488
sg68
(lp4500
S':'
asbag61
(g82
g63
NtRp4501
(dp4502
g66
(dp4503
sg75
g4488
sg68
(lp4504
g61
(g62
g63
NtRp4505
(dp4506
g66
(dp4507
g74
I5
ssg75
g4501
sg68
(lp4508
g61
(cgluon.html
A
p4509
g63
NtRp4510
(dp4511
g66
(dp4512
S'_class'
p4513
S'brand'
p4514
sS'_href'
p4515
S'http://www.web2py.com/'
p4516
ssg75
Nsg68
(lp4517
g61
(cgluon.html
B
p4518
g63
NtRp4519
(dp4520
g66
(dp4521
sg75
g4510
sg68
(lp4522
S'web'
p4523
ag61
(cgluon.html
SPAN
p4524
g63
NtRp4525
(dp4526
g66
(dp4527
sg75
g4519
sg68
(lp4528
I2
asbaS'py'
p4529
asbacgluon.html
XML_unpickle
p4530
(S's\r\x00\x00\x00&trade;&nbsp;'
tRp4531
asbasbasbasbag61
(g77
g63
NtRp4532
(dp4533
g66
(dp4534
sg75
g4051
sg68
(lp4535
g61
(g82
g63
NtRp4536
(dp4537
g66
(dp4538
g86
g87
ssg75
g4532
sg68
(lp4539
S'menu'
p4540
asbag61
(g82
g63
NtRp4541
(dp4542
g66
(dp4543
g93
g94
ssg75
g4532
sg68
(lp4544
S':'
asbag61
(g82
g63
NtRp4545
(dp4546
g66
(dp4547
sg75
g4532
sg68
(lp4548
g61
(g62
g63
NtRp4549
(dp4550
g66
(dp4551
g74
I5
ssg75
g4545
sg68
(lp4552
g61
(g70
g63
NtRp4553
(dp4554
g66
(dp4555
g74
I4
ssg75
Nsg68
(lp4556
g61
(g77
g63
NtRp4557
(dp4558
g66
(dp4559
sg75
g4553
sg68
(lp4560
g61
(g82
g63
NtRp4561
(dp4562
g66
(dp4563
sg75
g4557
sg68
(lp4564
g61
(g62
g63
NtRp4565
(dp4566
g66
(dp4567
g74
I4
ssg75
g4561
sg68
(lp4568
g61
(g70
g63
NtRp4569
(dp4570
g66
(dp4571
g74
I3
ssg75
Nsg68
(lp4572
g61
(g77
g63
NtRp4573
(dp4574
g66
(dp4575
sg75
g4569
sg68
(lp4576
g61
(g82
g63
NtRp4577
(dp4578
g66
(dp4579
sg75
g4573
sg68
(lp4580
g61
(g62
g63
NtRp4581
(dp4582
g66
(dp4583
g74
I3
ssg75
g4577
sg68
(lp4584
cgluon.languages
lazyT_unpickle
p4585
(S's\x04\x00\x00\x00Home'
tRp4586
asbasbasbag61
(g77
g63
NtRp4587
(dp4588
g66
(dp4589
sg75
g4569
sg68
(lp4590
g61
(g82
g63
NtRp4591
(dp4592
g66
(dp4593
sg75
g4587
sg68
(lp4594
g61
(g62
g63
NtRp4595
(dp4596
g66
(dp4597
g74
I3
ssg75
g4591
sg68
(lp4598
g104
asbasbasbag61
(g77
g63
NtRp4599
(dp4600
g66
(dp4601
sg75
g4569
sg68
(lp4602
g61
(g82
g63
NtRp4603
(dp4604
g66
(dp4605
sg75
g4599
sg68
(lp4606
g61
(g62
g63
NtRp4607
(dp4608
g66
(dp4609
g74
I3
ssg75
g4603
sg68
(lp4610
S'/SSAD/default/index'
p4611
asbasbasbag61
(g77
g63
NtRp4612
(dp4613
g66
(dp4614
sg75
g4569
sg68
(lp4615
g61
(g82
g63
NtRp4616
(dp4617
g66
(dp4618
sg75
g4612
sg68
(lp4619
g61
(g62
g63
NtRp4620
(dp4621
g66
(dp4622
g74
I3
ssg75
g4616
sg68
(lp4623
g61
(g70
g63
NtRp4624
(dp4625
g66
(dp4626
g74
I2
ssg75
Nsg68
(lp4627
sbasbasbasbasbasbasbasbag61
(g77
g63
NtRp4628
(dp4629
g66
(dp4630
sg75
g4553
sg68
(lp4631
g61
(g82
g63
NtRp4632
(dp4633
g66
(dp4634
sg75
g4628
sg68
(lp4635
g61
(g62
g63
NtRp4636
(dp4637
g66
(dp4638
g74
I4
ssg75
g4632
sg68
(lp4639
g61
(g70
g63
NtRp4640
(dp4641
g66
(dp4642
g74
I3
ssg75
Nsg68
(lp4643
g61
(g77
g63
NtRp4644
(dp4645
g66
(dp4646
sg75
g4640
sg68
(lp4647
g61
(g82
g63
NtRp4648
(dp4649
g66
(dp4650
sg75
g4644
sg68
(lp4651
g61
(g62
g63
NtRp4652
(dp4653
g66
(dp4654
g74
I3
ssg75
g4648
sg68
(lp4655
g61
(g4524
g63
NtRp4656
(dp4657
g66
(dp4658
g4513
S'highlighted'
p4659
ssg75
Nsg68
(lp4660
g4487
asbasbasbasbag61
(g77
g63
NtRp4661
(dp4662
g66
(dp4663
sg75
g4640
sg68
(lp4664
g61
(g82
g63
NtRp4665
(dp4666
g66
(dp4667
sg75
g4661
sg68
(lp4668
g61
(g62
g63
NtRp4669
(dp4670
g66
(dp4671
g74
I3
ssg75
g4665
sg68
(lp4672
g104
asbasbasbag61
(g77
g63
NtRp4673
(dp4674
g66
(dp4675
sg75
g4640
sg68
(lp4676
g61
(g82
g63
NtRp4677
(dp4678
g66
(dp4679
sg75
g4673
sg68
(lp4680
g61
(g62
g63
NtRp4681
(dp4682
g66
(dp4683
g74
I3
ssg75
g4677
sg68
(lp4684
S'http://web2py.com'
p4685
asbasbasbag61
(g77
g63
NtRp4686
(dp4687
g66
(dp4688
sg75
g4640
sg68
(lp4689
g61
(g82
g63
NtRp4690
(dp4691
g66
(dp4692
sg75
g4686
sg68
(lp4693
g61
(g62
g63
NtRp4694
(dp4695
g66
(dp4696
g74
I3
ssg75
g4690
sg68
(lp4697
g61
(g70
g63
NtRp4698
(dp4699
g66
(dp4700
g74
I2
ssg75
Nsg68
(lp4701
g61
(g77
g63
NtRp4702
(dp4703
g66
(dp4704
sg75
g4698
sg68
(lp4705
g61
(g82
g63
NtRp4706
(dp4707
g66
(dp4708
sg75
g4702
sg68
(lp4709
g61
(g62
g63
NtRp4710
(dp4711
g66
(dp4712
g74
I2
ssg75
g4706
sg68
(lp4713
g61
(g70
g63
NtRp4714
(dp4715
g66
(dp4716
g74
I1
ssg75
Nsg68
(lp4717
g61
(g77
g63
NtRp4718
(dp4719
g66
(dp4720
sg75
g4714
sg68
(lp4721
g61
(g82
g63
NtRp4722
(dp4723
g66
(dp4724
sg75
g4718
sg68
(lp4725
g61
(g62
g63
NtRp4726
(dp4727
g66
(dp4728
g74
I1
ssg75
g4722
sg68
(lp4729
g4585
(S's\x08\x00\x00\x00My Sites'
tRp4730
asbasbasbag61
(g77
g63
NtRp4731
(dp4732
g66
(dp4733
sg75
g4714
sg68
(lp4734
g61
(g82
g63
NtRp4735
(dp4736
g66
(dp4737
sg75
g4731
sg68
(lp4738
g61
(g62
g63
NtRp4739
(dp4740
g66
(dp4741
g74
I1
ssg75
g4735
sg68
(lp4742
I00
asbasbasbag61
(g77
g63
NtRp4743
(dp4744
g66
(dp4745
sg75
g4714
sg68
(lp4746
g61
(g82
g63
NtRp4747
(dp4748
g66
(dp4749
sg75
g4743
sg68
(lp4750
g61
(g62
g63
NtRp4751
(dp4752
g66
(dp4753
g74
I1
ssg75
g4747
sg68
(lp4754
S'/admin/default/site'
p4755
asbasbasbasbasbasbasbag61
(g77
g63
NtRp4756
(dp4757
g66
(dp4758
sg75
g4698
sg68
(lp4759
g61
(g82
g63
NtRp4760
(dp4761
g66
(dp4762
sg75
g4756
sg68
(lp4763
g61
(g62
g63
NtRp4764
(dp4765
g66
(dp4766
g74
I2
ssg75
g4760
sg68
(lp4767
g61
(g70
g63
NtRp4768
(dp4769
g66
(dp4770
g74
I1
ssg75
Nsg68
(lp4771
g61
(g77
g63
NtRp4772
(dp4773
g66
(dp4774
sg75
g4768
sg68
(lp4775
g61
(g82
g63
NtRp4776
(dp4777
g66
(dp4778
sg75
g4772
sg68
(lp4779
g61
(g62
g63
NtRp4780
(dp4781
g66
(dp4782
g74
I1
ssg75
g4776
sg68
(lp4783
g4585
(S's\x08\x00\x00\x00This App'
tRp4784
asbasbasbag61
(g77
g63
NtRp4785
(dp4786
g66
(dp4787
sg75
g4768
sg68
(lp4788
g61
(g82
g63
NtRp4789
(dp4790
g66
(dp4791
sg75
g4785
sg68
(lp4792
g61
(g62
g63
NtRp4793
(dp4794
g66
(dp4795
g74
I1
ssg75
g4789
sg68
(lp4796
I00
asbasbasbag61
(g77
g63
NtRp4797
(dp4798
g66
(dp4799
sg75
g4768
sg68
(lp4800
g61
(g82
g63
NtRp4801
(dp4802
g66
(dp4803
sg75
g4797
sg68
(lp4804
g61
(g62
g63
NtRp4805
(dp4806
g66
(dp4807
g74
I1
ssg75
g4801
sg68
(lp4808
S'/admin/default/design/SSAD'
p4809
asbasbasbag61
(g77
g63
NtRp4810
(dp4811
g66
(dp4812
sg75
g4768
sg68
(lp4813
g61
(g82
g63
NtRp4814
(dp4815
g66
(dp4816
sg75
g4810
sg68
(lp4817
g61
(g62
g63
NtRp4818
(dp4819
g66
(dp4820
g74
I1
ssg75
g4814
sg68
(lp4821
(lp4822
(g4585
(S's\n\x00\x00\x00Controller'
tRp4823
I00
S'/admin/default/edit/SSAD/controllers/default.py'
tp4824
a(g4585
(S's\x04\x00\x00\x00View'
tRp4825
I00
S'/admin/default/edit/SSAD/views/default/delete_user_2.html'
tp4826
a(g4585
(S's\x06\x00\x00\x00Layout'
tRp4827
I00
S'/admin/default/edit/SSAD/views/layout.html'
tp4828
a(g4585
(S's\n\x00\x00\x00Stylesheet'
tRp4829
I00
S'/admin/default/edit/SSAD/static/css/web2py.css'
tp4830
a(g4585
(S's\x08\x00\x00\x00DB Model'
tRp4831
I00
S'/admin/default/edit/SSAD/models/db.py'
tp4832
a(g4585
(S's\n\x00\x00\x00Menu Model'
tRp4833
I00
S'/admin/default/edit/SSAD/models/menu.py'
tp4834
a(g4585
(S's\x08\x00\x00\x00Database'
tRp4835
I00
S'/SSAD/appadmin/index'
tp4836
a(g4585
(S's\x06\x00\x00\x00Errors'
tRp4837
I00
S'/admin/default/errors/SSAD'
tp4838
a(g4585
(S's\x05\x00\x00\x00About'
tRp4839
I00
S'/admin/default/about/SSAD'
tp4840
aasbasbasbasbasbasbasbag61
(g77
g63
NtRp4841
(dp4842
g66
(dp4843
sg75
g4698
sg68
(lp4844
g61
(g82
g63
NtRp4845
(dp4846
g66
(dp4847
sg75
g4841
sg68
(lp4848
g61
(g62
g63
NtRp4849
(dp4850
g66
(dp4851
g74
I2
ssg75
g4845
sg68
(lp4852
g61
(g70
g63
NtRp4853
(dp4854
g66
(dp4855
g74
I1
ssg75
Nsg68
(lp4856
g61
(g77
g63
NtRp4857
(dp4858
g66
(dp4859
sg75
g4853
sg68
(lp4860
g61
(g82
g63
NtRp4861
(dp4862
g66
(dp4863
sg75
g4857
sg68
(lp4864
g61
(g62
g63
NtRp4865
(dp4866
g66
(dp4867
g74
I1
ssg75
g4861
sg68
(lp4868
S'web2py.com'
p4869
asbasbasbag61
(g77
g63
NtRp4870
(dp4871
g66
(dp4872
sg75
g4853
sg68
(lp4873
g61
(g82
g63
NtRp4874
(dp4875
g66
(dp4876
sg75
g4870
sg68
(lp4877
g61
(g62
g63
NtRp4878
(dp4879
g66
(dp4880
g74
I1
ssg75
g4874
sg68
(lp4881
I00
asbasbasbag61
(g77
g63
NtRp4882
(dp4883
g66
(dp4884
sg75
g4853
sg68
(lp4885
g61
(g82
g63
NtRp4886
(dp4887
g66
(dp4888
sg75
g4882
sg68
(lp4889
g61
(g62
g63
NtRp4890
(dp4891
g66
(dp4892
g74
I1
ssg75
g4886
sg68
(lp4893
S'http://www.web2py.com'
p4894
asbasbasbag61
(g77
g63
NtRp4895
(dp4896
g66
(dp4897
sg75
g4853
sg68
(lp4898
g61
(g82
g63
NtRp4899
(dp4900
g66
(dp4901
sg75
g4895
sg68
(lp4902
g61
(g62
g63
NtRp4903
(dp4904
g66
(dp4905
g74
I1
ssg75
g4899
sg68
(lp4906
(lp4907
(g4585
(S's\x08\x00\x00\x00Download'
tRp4908
I00
S'http://www.web2py.com/examples/default/download'
p4909
tp4910
a(g4585
(S's\x07\x00\x00\x00Support'
tRp4911
I00
S'http://www.web2py.com/examples/default/support'
p4912
tp4913
a(g4585
(S's\x04\x00\x00\x00Demo'
tRp4914
I00
S'http://web2py.com/demo_admin'
p4915
tp4916
a(g4585
(S's\x0e\x00\x00\x00Quick Examples'
tRp4917
I00
S'http://web2py.com/examples/default/examples'
p4918
tp4919
a(g4585
(S's\x03\x00\x00\x00FAQ'
tRp4920
I00
S'http://web2py.com/AlterEgo'
p4921
tp4922
a(g4585
(S's\x06\x00\x00\x00Videos'
tRp4923
I00
S'http://www.web2py.com/examples/default/videos/'
p4924
tp4925
a(g4585
(S's\x11\x00\x00\x00Free Applications'
tRp4926
I00
S'http://web2py.com/appliances'
p4927
tp4928
a(g4585
(S's\x07\x00\x00\x00Plugins'
tRp4929
I00
S'http://web2py.com/plugins'
p4930
tp4931
a(g4585
(S's\x07\x00\x00\x00Layouts'
tRp4932
I00
S'http://web2py.com/layouts'
p4933
tp4934
a(g4585
(S's\x07\x00\x00\x00Recipes'
tRp4935
I00
S'http://web2pyslices.com/'
p4936
tp4937
a(g4585
(S's\x08\x00\x00\x00Semantic'
tRp4938
I00
S'http://web2py.com/semantic'
p4939
tp4940
aasbasbasbasbasbasbasbag61
(g77
g63
NtRp4941
(dp4942
g66
(dp4943
sg75
g4698
sg68
(lp4944
g61
(g82
g63
NtRp4945
(dp4946
g66
(dp4947
sg75
g4941
sg68
(lp4948
g61
(g62
g63
NtRp4949
(dp4950
g66
(dp4951
g74
I2
ssg75
g4945
sg68
(lp4952
g61
(g70
g63
NtRp4953
(dp4954
g66
(dp4955
g74
I1
ssg75
Nsg68
(lp4956
g61
(g77
g63
NtRp4957
(dp4958
g66
(dp4959
sg75
g4953
sg68
(lp4960
g61
(g82
g63
NtRp4961
(dp4962
g66
(dp4963
sg75
g4957
sg68
(lp4964
g61
(g62
g63
NtRp4965
(dp4966
g66
(dp4967
g74
I1
ssg75
g4961
sg68
(lp4968
g4585
(S's\r\x00\x00\x00Documentation'
tRp4969
asbasbasbag61
(g77
g63
NtRp4970
(dp4971
g66
(dp4972
sg75
g4953
sg68
(lp4973
g61
(g82
g63
NtRp4974
(dp4975
g66
(dp4976
sg75
g4970
sg68
(lp4977
g61
(g62
g63
NtRp4978
(dp4979
g66
(dp4980
g74
I1
ssg75
g4974
sg68
(lp4981
I00
asbasbasbag61
(g77
g63
NtRp4982
(dp4983
g66
(dp4984
sg75
g4953
sg68
(lp4985
g61
(g82
g63
NtRp4986
(dp4987
g66
(dp4988
sg75
g4982
sg68
(lp4989
g61
(g62
g63
NtRp4990
(dp4991
g66
(dp4992
g74
I1
ssg75
g4986
sg68
(lp4993
S'http://www.web2py.com/book'
p4994
asbasbasbag61
(g77
g63
NtRp4995
(dp4996
g66
(dp4997
sg75
g4953
sg68
(lp4998
g61
(g82
g63
NtRp4999
(dp5000
g66
(dp5001
sg75
g4995
sg68
(lp5002
g61
(g62
g63
NtRp5003
(dp5004
g66
(dp5005
g74
I1
ssg75
g4999
sg68
(lp5006
(lp5007
(g4585
(S's\x07\x00\x00\x00Preface'
tRp5008
I00
S'http://www.web2py.com/book/default/chapter/00'
p5009
tp5010
a(g4585
(S's\x0c\x00\x00\x00Introduction'
tRp5011
I00
S'http://www.web2py.com/book/default/chapter/01'
p5012
tp5013
a(g4585
(S's\x06\x00\x00\x00Python'
tRp5014
I00
S'http://www.web2py.com/book/default/chapter/02'
p5015
tp5016
a(g4585
(S's\x08\x00\x00\x00Overview'
tRp5017
I00
S'http://www.web2py.com/book/default/chapter/03'
p5018
tp5019
a(g4585
(S's\x08\x00\x00\x00The Core'
tRp5020
I00
S'http://www.web2py.com/book/default/chapter/04'
p5021
tp5022
a(g4585
(S's\t\x00\x00\x00The Views'
tRp5023
I00
S'http://www.web2py.com/book/default/chapter/05'
p5024
tp5025
a(g4585
(S's\x08\x00\x00\x00Database'
tRp5026
I00
S'http://www.web2py.com/book/default/chapter/06'
p5027
tp5028
a(g4585
(S's\x14\x00\x00\x00Forms and Validators'
tRp5029
I00
S'http://www.web2py.com/book/default/chapter/07'
p5030
tp5031
a(g4585
(S's\r\x00\x00\x00Email and SMS'
tRp5032
I00
S'http://www.web2py.com/book/default/chapter/08'
p5033
tp5034
a(g4585
(S's\x0e\x00\x00\x00Access Control'
tRp5035
I00
S'http://www.web2py.com/book/default/chapter/09'
p5036
tp5037
a(g4585
(S's\x08\x00\x00\x00Services'
tRp5038
I00
S'http://www.web2py.com/book/default/chapter/10'
p5039
tp5040
a(g4585
(S's\x0c\x00\x00\x00Ajax Recipes'
tRp5041
I00
S'http://www.web2py.com/book/default/chapter/11'
p5042
tp5043
a(g4585
(S's\x16\x00\x00\x00Components and Plugins'
tRp5044
I00
S'http://www.web2py.com/book/default/chapter/12'
p5045
tp5046
a(g4585
(S's\x12\x00\x00\x00Deployment Recipes'
tRp5047
I00
S'http://www.web2py.com/book/default/chapter/13'
p5048
tp5049
a(g4585
(S's\r\x00\x00\x00Other Recipes'
tRp5050
I00
S'http://www.web2py.com/book/default/chapter/14'
p5051
tp5052
a(g4585
(S's\r\x00\x00\x00Buy this book'
tRp5053
I00
S'http://stores.lulu.com/web2py'
p5054
tp5055
aasbasbasbasbasbasbasbag61
(g77
g63
NtRp5056
(dp5057
g66
(dp5058
sg75
g4698
sg68
(lp5059
g61
(g82
g63
NtRp5060
(dp5061
g66
(dp5062
sg75
g5056
sg68
(lp5063
g61
(g62
g63
NtRp5064
(dp5065
g66
(dp5066
g74
I2
ssg75
g5060
sg68
(lp5067
g61
(g70
g63
NtRp5068
(dp5069
g66
(dp5070
g74
I1
ssg75
Nsg68
(lp5071
g61
(g77
g63
NtRp5072
(dp5073
g66
(dp5074
sg75
g5068
sg68
(lp5075
g61
(g82
g63
NtRp5076
(dp5077
g66
(dp5078
sg75
g5072
sg68
(lp5079
g61
(g62
g63
NtRp5080
(dp5081
g66
(dp5082
g74
I1
ssg75
g5076
sg68
(lp5083
g4585
(S's\t\x00\x00\x00Community'
tRp5084
asbasbasbag61
(g77
g63
NtRp5085
(dp5086
g66
(dp5087
sg75
g5068
sg68
(lp5088
g61
(g82
g63
NtRp5089
(dp5090
g66
(dp5091
sg75
g5085
sg68
(lp5092
g61
(g62
g63
NtRp5093
(dp5094
g66
(dp5095
g74
I1
ssg75
g5089
sg68
(lp5096
I00
asbasbasbag61
(g77
g63
NtRp5097
(dp5098
g66
(dp5099
sg75
g5068
sg68
(lp5100
g61
(g82
g63
NtRp5101
(dp5102
g66
(dp5103
sg75
g5097
sg68
(lp5104
g61
(g62
g63
NtRp5105
(dp5106
g66
(dp5107
g74
I1
ssg75
g5101
sg68
(lp5108
Nasbasbasbag61
(g77
g63
NtRp5109
(dp5110
g66
(dp5111
sg75
g5068
sg68
(lp5112
g61
(g82
g63
NtRp5113
(dp5114
g66
(dp5115
sg75
g5109
sg68
(lp5116
g61
(g62
g63
NtRp5117
(dp5118
g66
(dp5119
g74
I1
ssg75
g5113
sg68
(lp5120
(lp5121
(g4585
(S's\x06\x00\x00\x00Groups'
tRp5122
I00
S'http://www.web2py.com/examples/default/usergroups'
p5123
tp5124
a(g4585
(S's\x07\x00\x00\x00Twitter'
tRp5125
I00
S'http://twitter.com/web2py'
p5126
tp5127
a(g4585
(S's\t\x00\x00\x00Live Chat'
tRp5128
I00
S'http://webchat.freenode.net/?channels=web2py'
p5129
tp5130
aasbasbasbasbasbasbasbag61
(g77
g63
NtRp5131
(dp5132
g66
(dp5133
sg75
g4698
sg68
(lp5134
g61
(g82
g63
NtRp5135
(dp5136
g66
(dp5137
sg75
g5131
sg68
(lp5138
g61
(g62
g63
NtRp5139
(dp5140
g66
(dp5141
g74
I2
ssg75
g5135
sg68
(lp5142
g61
(g70
g63
NtRp5143
(dp5144
g66
(dp5145
g74
I1
ssg75
Nsg68
(lp5146
g61
(g77
g63
NtRp5147
(dp5148
g66
(dp5149
sg75
g5143
sg68
(lp5150
g61
(g82
g63
NtRp5151
(dp5152
g66
(dp5153
sg75
g5147
sg68
(lp5154
g61
(g62
g63
NtRp5155
(dp5156
g66
(dp5157
g74
I1
ssg75
g5151
sg68
(lp5158
g4585
(S's\x07\x00\x00\x00Plugins'
tRp5159
asbasbasbag61
(g77
g63
NtRp5160
(dp5161
g66
(dp5162
sg75
g5143
sg68
(lp5163
g61
(g82
g63
NtRp5164
(dp5165
g66
(dp5166
sg75
g5160
sg68
(lp5167
g61
(g62
g63
NtRp5168
(dp5169
g66
(dp5170
g74
I1
ssg75
g5164
sg68
(lp5171
I00
asbasbasbag61
(g77
g63
NtRp5172
(dp5173
g66
(dp5174
sg75
g5143
sg68
(lp5175
g61
(g82
g63
NtRp5176
(dp5177
g66
(dp5178
sg75
g5172
sg68
(lp5179
g61
(g62
g63
NtRp5180
(dp5181
g66
(dp5182
g74
I1
ssg75
g5176
sg68
(lp5183
Nasbasbasbag61
(g77
g63
NtRp5184
(dp5185
g66
(dp5186
sg75
g5143
sg68
(lp5187
g61
(g82
g63
NtRp5188
(dp5189
g66
(dp5190
sg75
g5184
sg68
(lp5191
g61
(g62
g63
NtRp5192
(dp5193
g66
(dp5194
g74
I1
ssg75
g5188
sg68
(lp5195
(lp5196
(S'plugin_wiki'
p5197
I00
S'http://web2py.com/examples/default/download'
p5198
tp5199
a(g4585
(S's\r\x00\x00\x00Other Plugins'
tRp5200
I00
g4930
tp5201
a(g4585
(S's\x0e\x00\x00\x00Layout Plugins'
tRp5202
I00
g4933
tp5203
aasbasbasbasbasbasbasbasbasbasbasbasbasbasbasbasbasbasbasbag61
(g77
g63
NtRp5204
(dp5205
g66
(dp5206
sg75
g4051
sg68
(lp5207
g61
(g82
g63
NtRp5208
(dp5209
g66
(dp5210
g86
g87
ssg75
g5204
sg68
(lp5211
S'meta'
p5212
asbag61
(g82
g63
NtRp5213
(dp5214
g66
(dp5215
g93
g94
ssg75
g5204
sg68
(lp5216
S':'
asbag61
(g82
g63
NtRp5217
(dp5218
g66
(dp5219
sg75
g5204
sg68
(lp5220
g61
(g62
g63
NtRp5221
(dp5222
g66
(dp5223
g74
I5
ssg75
g5217
sg68
(lp5224
g61
(g70
g63
NtRp5225
(dp5226
g66
(dp5227
g74
I4
ssg75
Nsg68
(lp5228
g61
(g77
g63
NtRp5229
(dp5230
g66
(dp5231
sg75
g5225
sg68
(lp5232
g61
(g82
g63
NtRp5233
(dp5234
g66
(dp5235
g86
g87
ssg75
g5229
sg68
(lp5236
S'author'
p5237
asbag61
(g82
g63
NtRp5238
(dp5239
g66
(dp5240
g93
g94
ssg75
g5229
sg68
(lp5241
S':'
asbag61
(g82
g63
NtRp5242
(dp5243
g66
(dp5244
sg75
g5229
sg68
(lp5245
g61
(g62
g63
NtRp5246
(dp5247
g66
(dp5248
g74
I4
ssg75
g5242
sg68
(lp5249
S'Your Name <you@example.com>'
p5250
asbasbasbag61
(g77
g63
NtRp5251
(dp5252
g66
(dp5253
sg75
g5225
sg68
(lp5254
g61
(g82
g63
NtRp5255
(dp5256
g66
(dp5257
g86
g87
ssg75
g5251
sg68
(lp5258
S'description'
p5259
asbag61
(g82
g63
NtRp5260
(dp5261
g66
(dp5262
g93
g94
ssg75
g5251
sg68
(lp5263
S':'
asbag61
(g82
g63
NtRp5264
(dp5265
g66
(dp5266
sg75
g5251
sg68
(lp5267
g61
(g62
g63
NtRp5268
(dp5269
g66
(dp5270
g74
I4
ssg75
g5264
sg68
(lp5271
S'a cool new app'
p5272
asbasbasbag61
(g77
g63
NtRp5273
(dp5274
g66
(dp5275
sg75
g5225
sg68
(lp5276
g61
(g82
g63
NtRp5277
(dp5278
g66
(dp5279
g86
g87
ssg75
g5273
sg68
(lp5280
S'generator'
p5281
asbag61
(g82
g63
NtRp5282
(dp5283
g66
(dp5284
g93
g94
ssg75
g5273
sg68
(lp5285
S':'
asbag61
(g82
g63
NtRp5286
(dp5287
g66
(dp5288
sg75
g5273
sg68
(lp5289
g61
(g62
g63
NtRp5290
(dp5291
g66
(dp5292
g74
I4
ssg75
g5286
sg68
(lp5293
S'Web2py Web Framework'
p5294
asbasbasbag61
(g77
g63
NtRp5295
(dp5296
g66
(dp5297
sg75
g5225
sg68
(lp5298
g61
(g82
g63
NtRp5299
(dp5300
g66
(dp5301
g86
g87
ssg75
g5295
sg68
(lp5302
S'keywords'
p5303
asbag61
(g82
g63
NtRp5304
(dp5305
g66
(dp5306
g93
g94
ssg75
g5295
sg68
(lp5307
S':'
asbag61
(g82
g63
NtRp5308
(dp5309
g66
(dp5310
sg75
g5295
sg68
(lp5311
g61
(g62
g63
NtRp5312
(dp5313
g66
(dp5314
g74
I4
ssg75
g5308
sg68
(lp5315
S'web2py, python, framework'
p5316
asbasbasbasbasbasbasbag61
(g77
g63
NtRp5317
(dp5318
g66
(dp5319
sg75
g4051
sg68
(lp5320
g61
(g82
g63
NtRp5321
(dp5322
g66
(dp5323
g86
g87
ssg75
g5317
sg68
(lp5324
S'models_to_run'
p5325
asbag61
(g82
g63
NtRp5326
(dp5327
g66
(dp5328
g93
g94
ssg75
g5317
sg68
(lp5329
S':'
asbag61
(g82
g63
NtRp5330
(dp5331
g66
(dp5332
sg75
g5317
sg68
(lp5333
g61
(g62
g63
NtRp5334
(dp5335
g66
(dp5336
g74
I5
ssg75
g5330
sg68
(lp5337
g61
(g70
g63
NtRp5338
(dp5339
g66
(dp5340
g74
I4
ssg75
Nsg68
(lp5341
g61
(g77
g63
NtRp5342
(dp5343
g66
(dp5344
sg75
g5338
sg68
(lp5345
g61
(g82
g63
NtRp5346
(dp5347
g66
(dp5348
sg75
g5342
sg68
(lp5349
g61
(g62
g63
NtRp5350
(dp5351
g66
(dp5352
g74
I4
ssg75
g5346
sg68
(lp5353
S'^\\w+\\.py$'
p5354
asbasbasbag61
(g77
g63
NtRp5355
(dp5356
g66
(dp5357
sg75
g5338
sg68
(lp5358
g61
(g82
g63
NtRp5359
(dp5360
g66
(dp5361
sg75
g5355
sg68
(lp5362
g61
(g62
g63
NtRp5363
(dp5364
g66
(dp5365
g74
I4
ssg75
g5359
sg68
(lp5366
S'^default/\\w+\\.py$'
p5367
asbasbasbag61
(g77
g63
NtRp5368
(dp5369
g66
(dp5370
sg75
g5338
sg68
(lp5371
g61
(g82
g63
NtRp5372
(dp5373
g66
(dp5374
sg75
g5368
sg68
(lp5375
g61
(g62
g63
NtRp5376
(dp5377
g66
(dp5378
g74
I4
ssg75
g5372
sg68
(lp5379
S'^default/delete_user_2/\\w+\\.py$'
p5380
asbasbasbasbasbasbasbag61
(g77
g63
NtRp5381
(dp5382
g66
(dp5383
sg75
g4051
sg68
(lp5384
g61
(g82
g63
NtRp5385
(dp5386
g66
(dp5387
g86
g87
ssg75
g5381
sg68
(lp5388
S'postprocessing'
p5389
asbag61
(g82
g63
NtRp5390
(dp5391
g66
(dp5392
g93
g94
ssg75
g5381
sg68
(lp5393
S':'
asbag61
(g82
g63
NtRp5394
(dp5395
g66
(dp5396
sg75
g5381
sg68
(lp5397
g61
(g62
g63
NtRp5398
(dp5399
g66
(dp5400
g74
I5
ssg75
g5394
sg68
(lp5401
g61
(g70
g63
NtRp5402
(dp5403
g66
(dp5404
g74
I4
ssg75
Nsg68
(lp5405
sbasbasbasbag61
(g77
g63
NtRp5406
(dp5407
g66
(dp5408
sg75
g4051
sg68
(lp5409
g61
(g82
g63
NtRp5410
(dp5411
g66
(dp5412
g86
g87
ssg75
g5406
sg68
(lp5413
S'session_cookie_expires'
p5414
asbag61
(g82
g63
NtRp5415
(dp5416
g66
(dp5417
g93
g94
ssg75
g5406
sg68
(lp5418
S':'
asbag61
(g82
g63
NtRp5419
(dp5420
g66
(dp5421
sg75
g5406
sg68
(lp5422
g61
(g62
g63
NtRp5423
(dp5424
g66
(dp5425
g74
I5
ssg75
g5419
sg68
(lp5426
S'None'
p5427
asbasbasbag61
(g77
g63
NtRp5428
(dp5429
g66
(dp5430
sg75
g4051
sg68
(lp5431
g61
(g82
g63
NtRp5432
(dp5433
g66
(dp5434
g86
g87
ssg75
g5428
sg68
(lp5435
S'session_data_name'
p5436
asbag61
(g82
g63
NtRp5437
(dp5438
g66
(dp5439
g93
g94
ssg75
g5428
sg68
(lp5440
S':'
asbag61
(g82
g63
NtRp5441
(dp5442
g66
(dp5443
sg75
g5428
sg68
(lp5444
g61
(g62
g63
NtRp5445
(dp5446
g66
(dp5447
g74
I5
ssg75
g5441
sg68
(lp5448
S'session_data_ssad'
p5449
asbasbasbag61
(g77
g63
NtRp5450
(dp5451
g66
(dp5452
sg75
g4051
sg68
(lp5453
g61
(g82
g63
NtRp5454
(dp5455
g66
(dp5456
g86
g87
ssg75
g5450
sg68
(lp5457
S'session_file'
p5458
asbag61
(g82
g63
NtRp5459
(dp5460
g66
(dp5461
g93
g94
ssg75
g5450
sg68
(lp5462
S':'
asbag61
(g82
g63
NtRp5463
(dp5464
g66
(dp5465
sg75
g5450
sg68
(lp5466
g61
(g62
g63
NtRp5467
(dp5468
g66
(dp5469
g74
I5
ssg75
g5463
sg68
(lp5470
S"<open file '/home/urvashi/Desktop/WEB2PY/web2py/applications/SSAD/sessions/127.0.0.1-83e42192-e5b1-45f6-a2c4-ccc32a5e5e70', mode 'rb+' at 0x7f9f405f90c0>"
p5471
asbasbasbag61
(g77
g63
NtRp5472
(dp5473
g66
(dp5474
sg75
g4051
sg68
(lp5475
g61
(g82
g63
NtRp5476
(dp5477
g66
(dp5478
g86
g87
ssg75
g5472
sg68
(lp5479
S'session_filename'
p5480
asbag61
(g82
g63
NtRp5481
(dp5482
g66
(dp5483
g93
g94
ssg75
g5472
sg68
(lp5484
S':'
asbag61
(g82
g63
NtRp5485
(dp5486
g66
(dp5487
sg75
g5472
sg68
(lp5488
g61
(g62
g63
NtRp5489
(dp5490
g66
(dp5491
g74
I5
ssg75
g5485
sg68
(lp5492
S'/home/urvashi/Desktop/WEB2PY/web2py/applications/SSAD/sessions/127.0.0.1-83e42192-e5b1-45f6-a2c4-ccc32a5e5e70'
p5493
asbasbasbag61
(g77
g63
NtRp5494
(dp5495
g66
(dp5496
sg75
g4051
sg68
(lp5497
g61
(g82
g63
NtRp5498
(dp5499
g66
(dp5500
g86
g87
ssg75
g5494
sg68
(lp5501
S'session_id'
p5502
asbag61
(g82
g63
NtRp5503
(dp5504
g66
(dp5505
g93
g94
ssg75
g5494
sg68
(lp5506
S':'
asbag61
(g82
g63
NtRp5507
(dp5508
g66
(dp5509
sg75
g5494
sg68
(lp5510
g61
(g62
g63
NtRp5511
(dp5512
g66
(dp5513
g74
I5
ssg75
g5507
sg68
(lp5514
g665
asbasbasbag61
(g77
g63
NtRp5515
(dp5516
g66
(dp5517
sg75
g4051
sg68
(lp5518
g61
(g82
g63
NtRp5519
(dp5520
g66
(dp5521
g86
g87
ssg75
g5515
sg68
(lp5522
S'session_id_name'
p5523
asbag61
(g82
g63
NtRp5524
(dp5525
g66
(dp5526
g93
g94
ssg75
g5515
sg68
(lp5527
S':'
asbag61
(g82
g63
NtRp5528
(dp5529
g66
(dp5530
sg75
g5515
sg68
(lp5531
g61
(g62
g63
NtRp5532
(dp5533
g66
(dp5534
g74
I5
ssg75
g5528
sg68
(lp5535
g4108
asbasbasbag61
(g77
g63
NtRp5536
(dp5537
g66
(dp5538
sg75
g4051
sg68
(lp5539
g61
(g82
g63
NtRp5540
(dp5541
g66
(dp5542
g86
g87
ssg75
g5536
sg68
(lp5543
S'session_locked'
p5544
asbag61
(g82
g63
NtRp5545
(dp5546
g66
(dp5547
g93
g94
ssg75
g5536
sg68
(lp5548
S':'
asbag61
(g82
g63
NtRp5549
(dp5550
g66
(dp5551
sg75
g5536
sg68
(lp5552
g61
(g62
g63
NtRp5553
(dp5554
g66
(dp5555
g74
I5
ssg75
g5549
sg68
(lp5556
g1961
asbasbasbag61
(g77
g63
NtRp5557
(dp5558
g66
(dp5559
sg75
g4051
sg68
(lp5560
g61
(g82
g63
NtRp5561
(dp5562
g66
(dp5563
g86
g87
ssg75
g5557
sg68
(lp5564
S'session_new'
p5565
asbag61
(g82
g63
NtRp5566
(dp5567
g66
(dp5568
g93
g94
ssg75
g5557
sg68
(lp5569
S':'
asbag61
(g82
g63
NtRp5570
(dp5571
g66
(dp5572
sg75
g5557
sg68
(lp5573
g61
(g62
g63
NtRp5574
(dp5575
g66
(dp5576
g74
I5
ssg75
g5570
sg68
(lp5577
g104
asbasbasbag61
(g77
g63
NtRp5578
(dp5579
g66
(dp5580
sg75
g4051
sg68
(lp5581
g61
(g82
g63
NtRp5582
(dp5583
g66
(dp5584
g86
g87
ssg75
g5578
sg68
(lp5585
S'session_storage_type'
p5586
asbag61
(g82
g63
NtRp5587
(dp5588
g66
(dp5589
g93
g94
ssg75
g5578
sg68
(lp5590
S':'
asbag61
(g82
g63
NtRp5591
(dp5592
g66
(dp5593
sg75
g5578
sg68
(lp5594
g61
(g62
g63
NtRp5595
(dp5596
g66
(dp5597
g74
I5
ssg75
g5591
sg68
(lp5598
g3433
asbasbasbag61
(g77
g63
NtRp5599
(dp5600
g66
(dp5601
sg75
g4051
sg68
(lp5602
g61
(g82
g63
NtRp5603
(dp5604
g66
(dp5605
g86
g87
ssg75
g5599
sg68
(lp5606
S'status'
p5607
asbag61
(g82
g63
NtRp5608
(dp5609
g66
(dp5610
g93
g94
ssg75
g5599
sg68
(lp5611
S':'
asbag61
(g82
g63
NtRp5612
(dp5613
g66
(dp5614
sg75
g5599
sg68
(lp5615
g61
(g62
g63
NtRp5616
(dp5617
g66
(dp5618
g74
I5
ssg75
g5612
sg68
(lp5619
S'200'
p5620
asbasbasbag61
(g77
g63
NtRp5621
(dp5622
g66
(dp5623
sg75
g4051
sg68
(lp5624
g61
(g82
g63
NtRp5625
(dp5626
g66
(dp5627
g86
g87
ssg75
g5621
sg68
(lp5628
S'subtitle'
p5629
asbag61
(g82
g63
NtRp5630
(dp5631
g66
(dp5632
g93
g94
ssg75
g5621
sg68
(lp5633
S':'
asbag61
(g82
g63
NtRp5634
(dp5635
g66
(dp5636
sg75
g5621
sg68
(lp5637
g61
(g62
g63
NtRp5638
(dp5639
g66
(dp5640
g74
I5
ssg75
g5634
sg68
(lp5641
g4585
(S's\r\x00\x00\x00customize me!'
tRp5642
asbasbasbag61
(g77
g63
NtRp5643
(dp5644
g66
(dp5645
sg75
g4051
sg68
(lp5646
g61
(g82
g63
NtRp5647
(dp5648
g66
(dp5649
g86
g87
ssg75
g5643
sg68
(lp5650
S'title'
p5651
asbag61
(g82
g63
NtRp5652
(dp5653
g66
(dp5654
g93
g94
ssg75
g5643
sg68
(lp5655
S':'
asbag61
(g82
g63
NtRp5656
(dp5657
g66
(dp5658
sg75
g5643
sg68
(lp5659
g61
(g62
g63
NtRp5660
(dp5661
g66
(dp5662
g74
I5
ssg75
g5656
sg68
(lp5663
S'Ssad'
p5664
asbasbasbag61
(g77
g63
NtRp5665
(dp5666
g66
(dp5667
sg75
g4051
sg68
(lp5668
g61
(g82
g63
NtRp5669
(dp5670
g66
(dp5671
g86
g87
ssg75
g5665
sg68
(lp5672
S'view'
p5673
asbag61
(g82
g63
NtRp5674
(dp5675
g66
(dp5676
g93
g94
ssg75
g5665
sg68
(lp5677
S':'
asbag61
(g82
g63
NtRp5678
(dp5679
g66
(dp5680
sg75
g5665
sg68
(lp5681
g61
(g62
g63
NtRp5682
(dp5683
g66
(dp5684
g74
I5
ssg75
g5678
sg68
(lp5685
S'default/delete_user_2.html'
p5686
asbasbasbasbasbsS'locals'
p5687
(dp5688
S'a'
S'("SELECT  db.auth_user.id FROM auth_user WHERE (auth_user.email = \'2\');",)'
p5689
sS'self'
p5690
S'<gluon.dal.SQLiteAdapter object>'
p5691
sS'b'
g21
sS'command'
p5692
S'"SELECT  db.auth_user.id FROM auth_user WHERE (auth_user.email = \'2\');"'
p5693
sS't0'
p5694
S'1377528515.518299'
p5695
sssS'traceback'
p5696
S'Traceback (most recent call last):\n  File "/home/urvashi/Desktop/WEB2PY/web2py/gluon/restricted.py", line 212, in restricted\n    exec ccode in environment\n  File "/home/urvashi/Desktop/WEB2PY/web2py/applications/SSAD/controllers/default.py", line 153, in <module>\n  File "/home/urvashi/Desktop/WEB2PY/web2py/gluon/globals.py", line 193, in <lambda>\n    self._caller = lambda f: f()\n  File "/home/urvashi/Desktop/WEB2PY/web2py/applications/SSAD/controllers/default.py", line 113, in delete_user_2\n    i=db(db.auth_user.email==usrname).select(\'db.auth_user.id\')\n  File "/home/urvashi/Desktop/WEB2PY/web2py/gluon/dal.py", line 8905, in select\n    return adapter.select(self.query,fields,attributes)\n  File "/home/urvashi/Desktop/WEB2PY/web2py/gluon/dal.py", line 2146, in select\n    return super(SQLiteAdapter, self).select(query, fields, attributes)\n  File "/home/urvashi/Desktop/WEB2PY/web2py/gluon/dal.py", line 1631, in select\n    return self._select_aux(sql,fields,attributes)\n  File "/home/urvashi/Desktop/WEB2PY/web2py/gluon/dal.py", line 1596, in _select_aux\n    self.execute(sql)\n  File "/home/urvashi/Desktop/WEB2PY/web2py/gluon/dal.py", line 1709, in execute\n    return self.log_execute(*a, **b)\n  File "/home/urvashi/Desktop/WEB2PY/web2py/gluon/dal.py", line 1703, in log_execute\n    ret = self.cursor.execute(*a, **b)\nOperationalError: no such column: db.auth_user.id\n'
p5697
s.