(dp1
S'output'
p2
S"<type 'exceptions.IndexError'> list index out of range"
p3
sS'layer'
p4
S'/home/urvashi/Desktop/WEB2PY/web2py/applications/SSAD/controllers/default.py'
p5
sS'code'
p6
S'# -*- coding: utf-8 -*-\n# this file is released under public domain and you can use without limitations\n\n#########################################################################\n## This is a samples controller\n## - index is the default action of any application\n## - user is required for authentication and authorization\n## - download is for downloading files uploaded in the db (does streaming)\n## - call exposes all registered services (none by default)\n#########################################################################\n\n@auth.requires_login()\ndef index():\n    """\n    example action using the internationalization operator T and flash\n    rendered by views/default/index.html or views/generic.html\n\n    if you need a simple wiki simple replace the two lines below with:\n    return auth.wiki()\n    """\n    \'auth\' in globals()\n    if auth.user:\n        if (auth.user.id)==1:\n            message = "WELCOME ADMIN IIITH !!"\n            redirect(URL(\'admin\'))\n        else:\n            message = "WELCOME TO MY REDDIT !!"\n  \n    else:\n        redirect(URL(\'user\'))\n    return dict(message=message)\n\n\ndef user():\n    """\n    exposes:\n    http://..../[app]/default/user/login\n    http://..../[app]/default/user/logout\n    http://..../[app]/default/user/register\n    http://..../[app]/default/user/profile\n    http://..../[app]/default/user/retrieve_password\n    http://..../[app]/default/user/change_password\n    use @auth.requires_login()\n        @auth.requires_membership(\'group name\')\n        @auth.requires_permission(\'read\',\'table name\',record_id)\n    to decorate functions that need access control\n    """\n    return dict(form=auth())\n\n\n@auth.requires_login()\ndef admin():\n    if auth.user:\n        if(auth.user.id)!=1:\n            redirect(URL(\'index\'))\n        else:\n            message="ADMIN HOME PAGE "\n        return dict(message=message)\n    else:\n        redirect(URL(\'user\'))\n    return locals()\n\ndef add_category():\n    return locals()\ndef add_category_2():\n    cat_name=request.post_vars.cat_name\n    list=db(db.categories.id>0).select()\n    records=list[0][\'name\']\n    flag=0\n    if cat_name==\'\':\n        redirect(URL(\'add_category\'))\n    else:\n        for i in records:\n            if i==cat_name:\n                message="Category exists !!"\n                flag=1\n        if flag==0:\n            db.categories.insert(name=cat_name)\n            message="New category added successfully !!"\n    return locals()\ndef delete_user():\n    return locals()\ndef delete_post():\n    return locals()\n    \ndef download():\n    """\n    allows downloading of uploaded files\n    http://..../[app]/default/download/[filename]\n    """\n    return response.download(request, db)            \ndef call():\n    """\n    exposes services. for example:\n    http://..../[app]/default/call/jsonrpc\n    decorate with @services.jsonrpc the functions to expose\n    supports xml, json, xmlrpc, jsonrpc, amfrpc, rss, csv\n    """\n    return service()\n\n\n@auth.requires_signature()\ndef data():\n    """\n    http://..../[app]/default/data/tables\n    http://..../[app]/default/data/create/[table]\n    http://..../[app]/default/data/read/[table]/[id]\n    http://..../[app]/default/data/update/[table]/[id]\n    http://..../[app]/default/data/delete/[table]/[id]\n    http://..../[app]/default/data/select/[table]\n    http://..../[app]/default/data/search/[table]\n    but URLs must be signed, i.e. linked with\n      A(\'table\',_href=URL(\'data/tables\',user_signature=True))\n    or with the signed load operator\n      LOAD(\'default\',\'data.load\',args=\'tables\',ajax=True,user_signature=True)\n    """\n    return dict(form=crud())\n\nresponse._vars=response._caller(add_category_2)\n'
p7
sS'snapshot'
p8
(dp9
S'exception'
p10
(dp11
S'__hash__'
p12
S"<method-wrapper '__hash__' of exceptions.IndexError object>"
p13
sS'__setattr__'
p14
S"<method-wrapper '__setattr__' of exceptions.IndexError object>"
p15
sS'__reduce_ex__'
p16
S'<built-in method __reduce_ex__ of exceptions.IndexError object>'
p17
sS'__getslice__'
p18
S"<method-wrapper '__getslice__' of exceptions.IndexError object>"
p19
sS'__getitem__'
p20
S"<method-wrapper '__getitem__' of exceptions.IndexError object>"
p21
sS'__setstate__'
p22
S'<built-in method __setstate__ of exceptions.IndexError object>'
p23
sS'args'
p24
S"('list index out of range',)"
p25
sS'__reduce__'
p26
S'<built-in method __reduce__ of exceptions.IndexError object>'
p27
sS'__str__'
p28
S"<method-wrapper '__str__' of exceptions.IndexError object>"
p29
sS'__format__'
p30
S'<built-in method __format__ of exceptions.IndexError object>'
p31
sS'__getattribute__'
p32
S"<method-wrapper '__getattribute__' of exceptions.IndexError object>"
p33
sS'__class__'
p34
S"<type 'exceptions.IndexError'>"
p35
sS'__unicode__'
p36
S'<built-in method __unicode__ of exceptions.IndexError object>'
p37
sS'__delattr__'
p38
S"<method-wrapper '__delattr__' of exceptions.IndexError object>"
p39
sS'__subclasshook__'
p40
S'<built-in method __subclasshook__ of type object>'
p41
sS'__repr__'
p42
S"<method-wrapper '__repr__' of exceptions.IndexError object>"
p43
sS'__dict__'
p44
S'{}'
p45
sS'__sizeof__'
p46
S'<built-in method __sizeof__ of exceptions.IndexError object>'
p47
sS'__doc__'
p48
S"'Sequence index out of range.'"
p49
sS'__init__'
p50
S"<method-wrapper '__init__' of exceptions.IndexError object>"
p51
sS'__new__'
p52
S'<built-in method __new__ of type object>'
p53
ssS'evalue'
p54
S'list index out of range'
p55
sS'request'
p56
ccopy_reg
_reconstructor
p57
(cgluon.html
BEAUTIFY
p58
c__builtin__
object
p59
NtRp60
(dp61
S'attributes'
p62
(dp63
sS'components'
p64
(lp65
g57
(cgluon.html
TABLE
p66
g59
NtRp67
(dp68
g62
(dp69
S'level'
p70
I5
ssS'parent'
p71
Nsg64
(lp72
g57
(cgluon.html
TR
p73
g59
NtRp74
(dp75
g62
(dp76
sg71
g67
sg64
(lp77
g57
(cgluon.html
TD
p78
g59
NtRp79
(dp80
g62
(dp81
S'_style'
p82
S'font-weight:bold;vertical-align:top'
p83
ssg71
g74
sg64
(lp84
S'ajax'
p85
asbag57
(g78
g59
NtRp86
(dp87
g62
(dp88
S'_valign'
p89
S'top'
p90
ssg71
g74
sg64
(lp91
S':'
asbag57
(g78
g59
NtRp92
(dp93
g62
(dp94
sg71
g74
sg64
(lp95
g57
(g58
g59
NtRp96
(dp97
g62
(dp98
g70
I5
ssg71
g92
sg64
(lp99
S'False'
p100
asbasbasbag57
(g73
g59
NtRp101
(dp102
g62
(dp103
sg71
g67
sg64
(lp104
g57
(g78
g59
NtRp105
(dp106
g62
(dp107
g82
g83
ssg71
g101
sg64
(lp108
S'application'
p109
asbag57
(g78
g59
NtRp110
(dp111
g62
(dp112
g89
g90
ssg71
g101
sg64
(lp113
S':'
asbag57
(g78
g59
NtRp114
(dp115
g62
(dp116
sg71
g101
sg64
(lp117
g57
(g58
g59
NtRp118
(dp119
g62
(dp120
g70
I5
ssg71
g114
sg64
(lp121
S'SSAD'
p122
asbasbasbag57
(g73
g59
NtRp123
(dp124
g62
(dp125
sg71
g67
sg64
(lp126
g57
(g78
g59
NtRp127
(dp128
g62
(dp129
g82
g83
ssg71
g123
sg64
(lp130
g24
asbag57
(g78
g59
NtRp131
(dp132
g62
(dp133
g89
g90
ssg71
g123
sg64
(lp134
S':'
asbag57
(g78
g59
NtRp135
(dp136
g62
(dp137
sg71
g123
sg64
(lp138
g57
(g58
g59
NtRp139
(dp140
g62
(dp141
g70
I5
ssg71
g135
sg64
(lp142
g57
(g66
g59
NtRp143
(dp144
g62
(dp145
g70
I4
ssg71
Nsg64
(lp146
sbasbasbasbag57
(g73
g59
NtRp147
(dp148
g62
(dp149
sg71
g67
sg64
(lp150
g57
(g78
g59
NtRp151
(dp152
g62
(dp153
g82
g83
ssg71
g147
sg64
(lp154
S'body'
p155
asbag57
(g78
g59
NtRp156
(dp157
g62
(dp158
g89
g90
ssg71
g147
sg64
(lp159
S':'
asbag57
(g78
g59
NtRp160
(dp161
g62
(dp162
sg71
g147
sg64
(lp163
g57
(g58
g59
NtRp164
(dp165
g62
(dp166
g70
I5
ssg71
g160
sg64
(lp167
S"<open file '<fdopen>', mode 'w+b' at 0x7f3438061c90>"
p168
asbasbasbag57
(g73
g59
NtRp169
(dp170
g62
(dp171
sg71
g67
sg64
(lp172
g57
(g78
g59
NtRp173
(dp174
g62
(dp175
g82
g83
ssg71
g169
sg64
(lp176
S'cid'
p177
asbag57
(g78
g59
NtRp178
(dp179
g62
(dp180
g89
g90
ssg71
g169
sg64
(lp181
S':'
asbag57
(g78
g59
NtRp182
(dp183
g62
(dp184
sg71
g169
sg64
(lp185
g57
(g58
g59
NtRp186
(dp187
g62
(dp188
g70
I5
ssg71
g182
sg64
(lp189
S'None'
p190
asbasbasbag57
(g73
g59
NtRp191
(dp192
g62
(dp193
sg71
g67
sg64
(lp194
g57
(g78
g59
NtRp195
(dp196
g62
(dp197
g82
g83
ssg71
g191
sg64
(lp198
S'client'
p199
asbag57
(g78
g59
NtRp200
(dp201
g62
(dp202
g89
g90
ssg71
g191
sg64
(lp203
S':'
asbag57
(g78
g59
NtRp204
(dp205
g62
(dp206
sg71
g191
sg64
(lp207
g57
(g58
g59
NtRp208
(dp209
g62
(dp210
g70
I5
ssg71
g204
sg64
(lp211
S'127.0.0.1'
p212
asbasbasbag57
(g73
g59
NtRp213
(dp214
g62
(dp215
sg71
g67
sg64
(lp216
g57
(g78
g59
NtRp217
(dp218
g62
(dp219
g82
g83
ssg71
g213
sg64
(lp220
S'controller'
p221
asbag57
(g78
g59
NtRp222
(dp223
g62
(dp224
g89
g90
ssg71
g213
sg64
(lp225
S':'
asbag57
(g78
g59
NtRp226
(dp227
g62
(dp228
sg71
g213
sg64
(lp229
g57
(g58
g59
NtRp230
(dp231
g62
(dp232
g70
I5
ssg71
g226
sg64
(lp233
S'default'
p234
asbasbasbag57
(g73
g59
NtRp235
(dp236
g62
(dp237
sg71
g67
sg64
(lp238
g57
(g78
g59
NtRp239
(dp240
g62
(dp241
g82
g83
ssg71
g235
sg64
(lp242
S'cookies'
p243
asbag57
(g78
g59
NtRp244
(dp245
g62
(dp246
g89
g90
ssg71
g235
sg64
(lp247
S':'
asbag57
(g78
g59
NtRp248
(dp249
g62
(dp250
sg71
g235
sg64
(lp251
g57
(g58
g59
NtRp252
(dp253
g62
(dp254
g70
I5
ssg71
g248
sg64
(lp255
g57
(g66
g59
NtRp256
(dp257
g62
(dp258
g70
I4
ssg71
Nsg64
(lp259
g57
(g73
g59
NtRp260
(dp261
g62
(dp262
sg71
g256
sg64
(lp263
g57
(g78
g59
NtRp264
(dp265
g62
(dp266
g82
g83
ssg71
g260
sg64
(lp267
S'session_id_admin'
p268
asbag57
(g78
g59
NtRp269
(dp270
g62
(dp271
g89
g90
ssg71
g260
sg64
(lp272
S':'
asbag57
(g78
g59
NtRp273
(dp274
g62
(dp275
sg71
g260
sg64
(lp276
g57
(g58
g59
NtRp277
(dp278
g62
(dp279
g70
I4
ssg71
g273
sg64
(lp280
S'127.0.0.1-eca41c70-ca92-49f9-abda-2311df9ca801'
p281
ag57
(g66
g59
NtRp282
(dp283
g62
(dp284
g70
I3
ssg71
Nsg64
(lp285
g57
(g73
g59
NtRp286
(dp287
g62
(dp288
sg71
g282
sg64
(lp289
g57
(g78
g59
NtRp290
(dp291
g62
(dp292
g82
g83
ssg71
g286
sg64
(lp293
S'comment'
p294
asbag57
(g78
g59
NtRp295
(dp296
g62
(dp297
g89
g90
ssg71
g286
sg64
(lp298
S':'
asbag57
(g78
g59
NtRp299
(dp300
g62
(dp301
sg71
g286
sg64
(lp302
g57
(g58
g59
NtRp303
(dp304
g62
(dp305
g70
I3
ssg71
g299
sg64
(lp306
S''
asbasbasbag57
(g73
g59
NtRp307
(dp308
g62
(dp309
sg71
g282
sg64
(lp310
g57
(g78
g59
NtRp311
(dp312
g62
(dp313
g82
g83
ssg71
g307
sg64
(lp314
S'domain'
p315
asbag57
(g78
g59
NtRp316
(dp317
g62
(dp318
g89
g90
ssg71
g307
sg64
(lp319
S':'
asbag57
(g78
g59
NtRp320
(dp321
g62
(dp322
sg71
g307
sg64
(lp323
g57
(g58
g59
NtRp324
(dp325
g62
(dp326
g70
I3
ssg71
g320
sg64
(lp327
S''
asbasbasbag57
(g73
g59
NtRp328
(dp329
g62
(dp330
sg71
g282
sg64
(lp331
g57
(g78
g59
NtRp332
(dp333
g62
(dp334
g82
g83
ssg71
g328
sg64
(lp335
S'expires'
p336
asbag57
(g78
g59
NtRp337
(dp338
g62
(dp339
g89
g90
ssg71
g328
sg64
(lp340
S':'
asbag57
(g78
g59
NtRp341
(dp342
g62
(dp343
sg71
g328
sg64
(lp344
g57
(g58
g59
NtRp345
(dp346
g62
(dp347
g70
I3
ssg71
g341
sg64
(lp348
S''
asbasbasbag57
(g73
g59
NtRp349
(dp350
g62
(dp351
sg71
g282
sg64
(lp352
g57
(g78
g59
NtRp353
(dp354
g62
(dp355
g82
g83
ssg71
g349
sg64
(lp356
S'httponly'
p357
asbag57
(g78
g59
NtRp358
(dp359
g62
(dp360
g89
g90
ssg71
g349
sg64
(lp361
S':'
asbag57
(g78
g59
NtRp362
(dp363
g62
(dp364
sg71
g349
sg64
(lp365
g57
(g58
g59
NtRp366
(dp367
g62
(dp368
g70
I3
ssg71
g362
sg64
(lp369
S''
asbasbasbag57
(g73
g59
NtRp370
(dp371
g62
(dp372
sg71
g282
sg64
(lp373
g57
(g78
g59
NtRp374
(dp375
g62
(dp376
g82
g83
ssg71
g370
sg64
(lp377
S'max-age'
p378
asbag57
(g78
g59
NtRp379
(dp380
g62
(dp381
g89
g90
ssg71
g370
sg64
(lp382
S':'
asbag57
(g78
g59
NtRp383
(dp384
g62
(dp385
sg71
g370
sg64
(lp386
g57
(g58
g59
NtRp387
(dp388
g62
(dp389
g70
I3
ssg71
g383
sg64
(lp390
S''
asbasbasbag57
(g73
g59
NtRp391
(dp392
g62
(dp393
sg71
g282
sg64
(lp394
g57
(g78
g59
NtRp395
(dp396
g62
(dp397
g82
g83
ssg71
g391
sg64
(lp398
S'path'
p399
asbag57
(g78
g59
NtRp400
(dp401
g62
(dp402
g89
g90
ssg71
g391
sg64
(lp403
S':'
asbag57
(g78
g59
NtRp404
(dp405
g62
(dp406
sg71
g391
sg64
(lp407
g57
(g58
g59
NtRp408
(dp409
g62
(dp410
g70
I3
ssg71
g404
sg64
(lp411
S''
asbasbasbag57
(g73
g59
NtRp412
(dp413
g62
(dp414
sg71
g282
sg64
(lp415
g57
(g78
g59
NtRp416
(dp417
g62
(dp418
g82
g83
ssg71
g412
sg64
(lp419
S'secure'
p420
asbag57
(g78
g59
NtRp421
(dp422
g62
(dp423
g89
g90
ssg71
g412
sg64
(lp424
S':'
asbag57
(g78
g59
NtRp425
(dp426
g62
(dp427
sg71
g412
sg64
(lp428
g57
(g58
g59
NtRp429
(dp430
g62
(dp431
g70
I3
ssg71
g425
sg64
(lp432
S''
asbasbasbag57
(g73
g59
NtRp433
(dp434
g62
(dp435
sg71
g282
sg64
(lp436
g57
(g78
g59
NtRp437
(dp438
g62
(dp439
g82
g83
ssg71
g433
sg64
(lp440
S'version'
p441
asbag57
(g78
g59
NtRp442
(dp443
g62
(dp444
g89
g90
ssg71
g433
sg64
(lp445
S':'
asbag57
(g78
g59
NtRp446
(dp447
g62
(dp448
sg71
g433
sg64
(lp449
g57
(g58
g59
NtRp450
(dp451
g62
(dp452
g70
I3
ssg71
g446
sg64
(lp453
S''
asbasbasbasbasbasbasbag57
(g73
g59
NtRp454
(dp455
g62
(dp456
sg71
g256
sg64
(lp457
g57
(g78
g59
NtRp458
(dp459
g62
(dp460
g82
g83
ssg71
g454
sg64
(lp461
S'session_id_isas_portal'
p462
asbag57
(g78
g59
NtRp463
(dp464
g62
(dp465
g89
g90
ssg71
g454
sg64
(lp466
S':'
asbag57
(g78
g59
NtRp467
(dp468
g62
(dp469
sg71
g454
sg64
(lp470
g57
(g58
g59
NtRp471
(dp472
g62
(dp473
g70
I4
ssg71
g467
sg64
(lp474
S'127.0.0.1-57cadf8b-6e18-4f20-957f-90184451a436'
p475
ag57
(g66
g59
NtRp476
(dp477
g62
(dp478
g70
I3
ssg71
Nsg64
(lp479
g57
(g73
g59
NtRp480
(dp481
g62
(dp482
sg71
g476
sg64
(lp483
g57
(g78
g59
NtRp484
(dp485
g62
(dp486
g82
g83
ssg71
g480
sg64
(lp487
g294
asbag57
(g78
g59
NtRp488
(dp489
g62
(dp490
g89
g90
ssg71
g480
sg64
(lp491
S':'
asbag57
(g78
g59
NtRp492
(dp493
g62
(dp494
sg71
g480
sg64
(lp495
g57
(g58
g59
NtRp496
(dp497
g62
(dp498
g70
I3
ssg71
g492
sg64
(lp499
S''
asbasbasbag57
(g73
g59
NtRp500
(dp501
g62
(dp502
sg71
g476
sg64
(lp503
g57
(g78
g59
NtRp504
(dp505
g62
(dp506
g82
g83
ssg71
g500
sg64
(lp507
g315
asbag57
(g78
g59
NtRp508
(dp509
g62
(dp510
g89
g90
ssg71
g500
sg64
(lp511
S':'
asbag57
(g78
g59
NtRp512
(dp513
g62
(dp514
sg71
g500
sg64
(lp515
g57
(g58
g59
NtRp516
(dp517
g62
(dp518
g70
I3
ssg71
g512
sg64
(lp519
S''
asbasbasbag57
(g73
g59
NtRp520
(dp521
g62
(dp522
sg71
g476
sg64
(lp523
g57
(g78
g59
NtRp524
(dp525
g62
(dp526
g82
g83
ssg71
g520
sg64
(lp527
g336
asbag57
(g78
g59
NtRp528
(dp529
g62
(dp530
g89
g90
ssg71
g520
sg64
(lp531
S':'
asbag57
(g78
g59
NtRp532
(dp533
g62
(dp534
sg71
g520
sg64
(lp535
g57
(g58
g59
NtRp536
(dp537
g62
(dp538
g70
I3
ssg71
g532
sg64
(lp539
S''
asbasbasbag57
(g73
g59
NtRp540
(dp541
g62
(dp542
sg71
g476
sg64
(lp543
g57
(g78
g59
NtRp544
(dp545
g62
(dp546
g82
g83
ssg71
g540
sg64
(lp547
g357
asbag57
(g78
g59
NtRp548
(dp549
g62
(dp550
g89
g90
ssg71
g540
sg64
(lp551
S':'
asbag57
(g78
g59
NtRp552
(dp553
g62
(dp554
sg71
g540
sg64
(lp555
g57
(g58
g59
NtRp556
(dp557
g62
(dp558
g70
I3
ssg71
g552
sg64
(lp559
S''
asbasbasbag57
(g73
g59
NtRp560
(dp561
g62
(dp562
sg71
g476
sg64
(lp563
g57
(g78
g59
NtRp564
(dp565
g62
(dp566
g82
g83
ssg71
g560
sg64
(lp567
g378
asbag57
(g78
g59
NtRp568
(dp569
g62
(dp570
g89
g90
ssg71
g560
sg64
(lp571
S':'
asbag57
(g78
g59
NtRp572
(dp573
g62
(dp574
sg71
g560
sg64
(lp575
g57
(g58
g59
NtRp576
(dp577
g62
(dp578
g70
I3
ssg71
g572
sg64
(lp579
S''
asbasbasbag57
(g73
g59
NtRp580
(dp581
g62
(dp582
sg71
g476
sg64
(lp583
g57
(g78
g59
NtRp584
(dp585
g62
(dp586
g82
g83
ssg71
g580
sg64
(lp587
g399
asbag57
(g78
g59
NtRp588
(dp589
g62
(dp590
g89
g90
ssg71
g580
sg64
(lp591
S':'
asbag57
(g78
g59
NtRp592
(dp593
g62
(dp594
sg71
g580
sg64
(lp595
g57
(g58
g59
NtRp596
(dp597
g62
(dp598
g70
I3
ssg71
g592
sg64
(lp599
S''
asbasbasbag57
(g73
g59
NtRp600
(dp601
g62
(dp602
sg71
g476
sg64
(lp603
g57
(g78
g59
NtRp604
(dp605
g62
(dp606
g82
g83
ssg71
g600
sg64
(lp607
g420
asbag57
(g78
g59
NtRp608
(dp609
g62
(dp610
g89
g90
ssg71
g600
sg64
(lp611
S':'
asbag57
(g78
g59
NtRp612
(dp613
g62
(dp614
sg71
g600
sg64
(lp615
g57
(g58
g59
NtRp616
(dp617
g62
(dp618
g70
I3
ssg71
g612
sg64
(lp619
S''
asbasbasbag57
(g73
g59
NtRp620
(dp621
g62
(dp622
sg71
g476
sg64
(lp623
g57
(g78
g59
NtRp624
(dp625
g62
(dp626
g82
g83
ssg71
g620
sg64
(lp627
g441
asbag57
(g78
g59
NtRp628
(dp629
g62
(dp630
g89
g90
ssg71
g620
sg64
(lp631
S':'
asbag57
(g78
g59
NtRp632
(dp633
g62
(dp634
sg71
g620
sg64
(lp635
g57
(g58
g59
NtRp636
(dp637
g62
(dp638
g70
I3
ssg71
g632
sg64
(lp639
S''
asbasbasbasbasbasbasbag57
(g73
g59
NtRp640
(dp641
g62
(dp642
sg71
g256
sg64
(lp643
g57
(g78
g59
NtRp644
(dp645
g62
(dp646
g82
g83
ssg71
g640
sg64
(lp647
S'session_id_ssad'
p648
asbag57
(g78
g59
NtRp649
(dp650
g62
(dp651
g89
g90
ssg71
g640
sg64
(lp652
S':'
asbag57
(g78
g59
NtRp653
(dp654
g62
(dp655
sg71
g640
sg64
(lp656
g57
(g58
g59
NtRp657
(dp658
g62
(dp659
g70
I4
ssg71
g653
sg64
(lp660
S'127.0.0.1-06631aa4-9f32-405a-a84b-a8d8a9131050'
p661
ag57
(g66
g59
NtRp662
(dp663
g62
(dp664
g70
I3
ssg71
Nsg64
(lp665
g57
(g73
g59
NtRp666
(dp667
g62
(dp668
sg71
g662
sg64
(lp669
g57
(g78
g59
NtRp670
(dp671
g62
(dp672
g82
g83
ssg71
g666
sg64
(lp673
g294
asbag57
(g78
g59
NtRp674
(dp675
g62
(dp676
g89
g90
ssg71
g666
sg64
(lp677
S':'
asbag57
(g78
g59
NtRp678
(dp679
g62
(dp680
sg71
g666
sg64
(lp681
g57
(g58
g59
NtRp682
(dp683
g62
(dp684
g70
I3
ssg71
g678
sg64
(lp685
S''
asbasbasbag57
(g73
g59
NtRp686
(dp687
g62
(dp688
sg71
g662
sg64
(lp689
g57
(g78
g59
NtRp690
(dp691
g62
(dp692
g82
g83
ssg71
g686
sg64
(lp693
g315
asbag57
(g78
g59
NtRp694
(dp695
g62
(dp696
g89
g90
ssg71
g686
sg64
(lp697
S':'
asbag57
(g78
g59
NtRp698
(dp699
g62
(dp700
sg71
g686
sg64
(lp701
g57
(g58
g59
NtRp702
(dp703
g62
(dp704
g70
I3
ssg71
g698
sg64
(lp705
S''
asbasbasbag57
(g73
g59
NtRp706
(dp707
g62
(dp708
sg71
g662
sg64
(lp709
g57
(g78
g59
NtRp710
(dp711
g62
(dp712
g82
g83
ssg71
g706
sg64
(lp713
g336
asbag57
(g78
g59
NtRp714
(dp715
g62
(dp716
g89
g90
ssg71
g706
sg64
(lp717
S':'
asbag57
(g78
g59
NtRp718
(dp719
g62
(dp720
sg71
g706
sg64
(lp721
g57
(g58
g59
NtRp722
(dp723
g62
(dp724
g70
I3
ssg71
g718
sg64
(lp725
S''
asbasbasbag57
(g73
g59
NtRp726
(dp727
g62
(dp728
sg71
g662
sg64
(lp729
g57
(g78
g59
NtRp730
(dp731
g62
(dp732
g82
g83
ssg71
g726
sg64
(lp733
g357
asbag57
(g78
g59
NtRp734
(dp735
g62
(dp736
g89
g90
ssg71
g726
sg64
(lp737
S':'
asbag57
(g78
g59
NtRp738
(dp739
g62
(dp740
sg71
g726
sg64
(lp741
g57
(g58
g59
NtRp742
(dp743
g62
(dp744
g70
I3
ssg71
g738
sg64
(lp745
S''
asbasbasbag57
(g73
g59
NtRp746
(dp747
g62
(dp748
sg71
g662
sg64
(lp749
g57
(g78
g59
NtRp750
(dp751
g62
(dp752
g82
g83
ssg71
g746
sg64
(lp753
g378
asbag57
(g78
g59
NtRp754
(dp755
g62
(dp756
g89
g90
ssg71
g746
sg64
(lp757
S':'
asbag57
(g78
g59
NtRp758
(dp759
g62
(dp760
sg71
g746
sg64
(lp761
g57
(g58
g59
NtRp762
(dp763
g62
(dp764
g70
I3
ssg71
g758
sg64
(lp765
S''
asbasbasbag57
(g73
g59
NtRp766
(dp767
g62
(dp768
sg71
g662
sg64
(lp769
g57
(g78
g59
NtRp770
(dp771
g62
(dp772
g82
g83
ssg71
g766
sg64
(lp773
g399
asbag57
(g78
g59
NtRp774
(dp775
g62
(dp776
g89
g90
ssg71
g766
sg64
(lp777
S':'
asbag57
(g78
g59
NtRp778
(dp779
g62
(dp780
sg71
g766
sg64
(lp781
g57
(g58
g59
NtRp782
(dp783
g62
(dp784
g70
I3
ssg71
g778
sg64
(lp785
S''
asbasbasbag57
(g73
g59
NtRp786
(dp787
g62
(dp788
sg71
g662
sg64
(lp789
g57
(g78
g59
NtRp790
(dp791
g62
(dp792
g82
g83
ssg71
g786
sg64
(lp793
g420
asbag57
(g78
g59
NtRp794
(dp795
g62
(dp796
g89
g90
ssg71
g786
sg64
(lp797
S':'
asbag57
(g78
g59
NtRp798
(dp799
g62
(dp800
sg71
g786
sg64
(lp801
g57
(g58
g59
NtRp802
(dp803
g62
(dp804
g70
I3
ssg71
g798
sg64
(lp805
S''
asbasbasbag57
(g73
g59
NtRp806
(dp807
g62
(dp808
sg71
g662
sg64
(lp809
g57
(g78
g59
NtRp810
(dp811
g62
(dp812
g82
g83
ssg71
g806
sg64
(lp813
g441
asbag57
(g78
g59
NtRp814
(dp815
g62
(dp816
g89
g90
ssg71
g806
sg64
(lp817
S':'
asbag57
(g78
g59
NtRp818
(dp819
g62
(dp820
sg71
g806
sg64
(lp821
g57
(g58
g59
NtRp822
(dp823
g62
(dp824
g70
I3
ssg71
g818
sg64
(lp825
S''
asbasbasbasbasbasbasbag57
(g73
g59
NtRp826
(dp827
g62
(dp828
sg71
g256
sg64
(lp829
g57
(g78
g59
NtRp830
(dp831
g62
(dp832
g82
g83
ssg71
g826
sg64
(lp833
S'session_id_welcome'
p834
asbag57
(g78
g59
NtRp835
(dp836
g62
(dp837
g89
g90
ssg71
g826
sg64
(lp838
S':'
asbag57
(g78
g59
NtRp839
(dp840
g62
(dp841
sg71
g826
sg64
(lp842
g57
(g58
g59
NtRp843
(dp844
g62
(dp845
g70
I4
ssg71
g839
sg64
(lp846
S'127.0.0.1-2649f498-857f-4c18-b15e-d1ecec4e2e50'
p847
ag57
(g66
g59
NtRp848
(dp849
g62
(dp850
g70
I3
ssg71
Nsg64
(lp851
g57
(g73
g59
NtRp852
(dp853
g62
(dp854
sg71
g848
sg64
(lp855
g57
(g78
g59
NtRp856
(dp857
g62
(dp858
g82
g83
ssg71
g852
sg64
(lp859
g294
asbag57
(g78
g59
NtRp860
(dp861
g62
(dp862
g89
g90
ssg71
g852
sg64
(lp863
S':'
asbag57
(g78
g59
NtRp864
(dp865
g62
(dp866
sg71
g852
sg64
(lp867
g57
(g58
g59
NtRp868
(dp869
g62
(dp870
g70
I3
ssg71
g864
sg64
(lp871
S''
asbasbasbag57
(g73
g59
NtRp872
(dp873
g62
(dp874
sg71
g848
sg64
(lp875
g57
(g78
g59
NtRp876
(dp877
g62
(dp878
g82
g83
ssg71
g872
sg64
(lp879
g315
asbag57
(g78
g59
NtRp880
(dp881
g62
(dp882
g89
g90
ssg71
g872
sg64
(lp883
S':'
asbag57
(g78
g59
NtRp884
(dp885
g62
(dp886
sg71
g872
sg64
(lp887
g57
(g58
g59
NtRp888
(dp889
g62
(dp890
g70
I3
ssg71
g884
sg64
(lp891
S''
asbasbasbag57
(g73
g59
NtRp892
(dp893
g62
(dp894
sg71
g848
sg64
(lp895
g57
(g78
g59
NtRp896
(dp897
g62
(dp898
g82
g83
ssg71
g892
sg64
(lp899
g336
asbag57
(g78
g59
NtRp900
(dp901
g62
(dp902
g89
g90
ssg71
g892
sg64
(lp903
S':'
asbag57
(g78
g59
NtRp904
(dp905
g62
(dp906
sg71
g892
sg64
(lp907
g57
(g58
g59
NtRp908
(dp909
g62
(dp910
g70
I3
ssg71
g904
sg64
(lp911
S''
asbasbasbag57
(g73
g59
NtRp912
(dp913
g62
(dp914
sg71
g848
sg64
(lp915
g57
(g78
g59
NtRp916
(dp917
g62
(dp918
g82
g83
ssg71
g912
sg64
(lp919
g357
asbag57
(g78
g59
NtRp920
(dp921
g62
(dp922
g89
g90
ssg71
g912
sg64
(lp923
S':'
asbag57
(g78
g59
NtRp924
(dp925
g62
(dp926
sg71
g912
sg64
(lp927
g57
(g58
g59
NtRp928
(dp929
g62
(dp930
g70
I3
ssg71
g924
sg64
(lp931
S''
asbasbasbag57
(g73
g59
NtRp932
(dp933
g62
(dp934
sg71
g848
sg64
(lp935
g57
(g78
g59
NtRp936
(dp937
g62
(dp938
g82
g83
ssg71
g932
sg64
(lp939
g378
asbag57
(g78
g59
NtRp940
(dp941
g62
(dp942
g89
g90
ssg71
g932
sg64
(lp943
S':'
asbag57
(g78
g59
NtRp944
(dp945
g62
(dp946
sg71
g932
sg64
(lp947
g57
(g58
g59
NtRp948
(dp949
g62
(dp950
g70
I3
ssg71
g944
sg64
(lp951
S''
asbasbasbag57
(g73
g59
NtRp952
(dp953
g62
(dp954
sg71
g848
sg64
(lp955
g57
(g78
g59
NtRp956
(dp957
g62
(dp958
g82
g83
ssg71
g952
sg64
(lp959
g399
asbag57
(g78
g59
NtRp960
(dp961
g62
(dp962
g89
g90
ssg71
g952
sg64
(lp963
S':'
asbag57
(g78
g59
NtRp964
(dp965
g62
(dp966
sg71
g952
sg64
(lp967
g57
(g58
g59
NtRp968
(dp969
g62
(dp970
g70
I3
ssg71
g964
sg64
(lp971
S''
asbasbasbag57
(g73
g59
NtRp972
(dp973
g62
(dp974
sg71
g848
sg64
(lp975
g57
(g78
g59
NtRp976
(dp977
g62
(dp978
g82
g83
ssg71
g972
sg64
(lp979
g420
asbag57
(g78
g59
NtRp980
(dp981
g62
(dp982
g89
g90
ssg71
g972
sg64
(lp983
S':'
asbag57
(g78
g59
NtRp984
(dp985
g62
(dp986
sg71
g972
sg64
(lp987
g57
(g58
g59
NtRp988
(dp989
g62
(dp990
g70
I3
ssg71
g984
sg64
(lp991
S''
asbasbasbag57
(g73
g59
NtRp992
(dp993
g62
(dp994
sg71
g848
sg64
(lp995
g57
(g78
g59
NtRp996
(dp997
g62
(dp998
g82
g83
ssg71
g992
sg64
(lp999
g441
asbag57
(g78
g59
NtRp1000
(dp1001
g62
(dp1002
g89
g90
ssg71
g992
sg64
(lp1003
S':'
asbag57
(g78
g59
NtRp1004
(dp1005
g62
(dp1006
sg71
g992
sg64
(lp1007
g57
(g58
g59
NtRp1008
(dp1009
g62
(dp1010
g70
I3
ssg71
g1004
sg64
(lp1011
S''
asbasbasbasbasbasbasbasbasbasbasbag57
(g73
g59
NtRp1012
(dp1013
g62
(dp1014
sg71
g67
sg64
(lp1015
g57
(g78
g59
NtRp1016
(dp1017
g62
(dp1018
g82
g83
ssg71
g1012
sg64
(lp1019
S'env'
p1020
asbag57
(g78
g59
NtRp1021
(dp1022
g62
(dp1023
g89
g90
ssg71
g1012
sg64
(lp1024
S':'
asbag57
(g78
g59
NtRp1025
(dp1026
g62
(dp1027
sg71
g1012
sg64
(lp1028
g57
(g58
g59
NtRp1029
(dp1030
g62
(dp1031
g70
I5
ssg71
g1025
sg64
(lp1032
g57
(g66
g59
NtRp1033
(dp1034
g62
(dp1035
g70
I4
ssg71
Nsg64
(lp1036
g57
(g73
g59
NtRp1037
(dp1038
g62
(dp1039
sg71
g1033
sg64
(lp1040
g57
(g78
g59
NtRp1041
(dp1042
g62
(dp1043
g82
g83
ssg71
g1037
sg64
(lp1044
S'app_folders'
p1045
asbag57
(g78
g59
NtRp1046
(dp1047
g62
(dp1048
g89
g90
ssg71
g1037
sg64
(lp1049
S':'
asbag57
(g78
g59
NtRp1050
(dp1051
g62
(dp1052
sg71
g1037
sg64
(lp1053
g57
(g58
g59
NtRp1054
(dp1055
g62
(dp1056
g70
I4
ssg71
g1050
sg64
(lp1057
S"set(['/home/urvashi/Desktop/WEB2PY/web2py/applications/admin/', '/home/urvashi/Desktop/WEB2PY/web2py/applications/welcome/', '/home/urvashi/Desktop/WEB2PY/web2py/applications/ISAS_PORTAL/', '/home/urvashi/Desktop/WEB2PY/web2py/applications/SSAD/'])"
p1058
asbasbasbag57
(g73
g59
NtRp1059
(dp1060
g62
(dp1061
sg71
g1033
sg64
(lp1062
g57
(g78
g59
NtRp1063
(dp1064
g62
(dp1065
g82
g83
ssg71
g1059
sg64
(lp1066
S'applications_parent'
p1067
asbag57
(g78
g59
NtRp1068
(dp1069
g62
(dp1070
g89
g90
ssg71
g1059
sg64
(lp1071
S':'
asbag57
(g78
g59
NtRp1072
(dp1073
g62
(dp1074
sg71
g1059
sg64
(lp1075
g57
(g58
g59
NtRp1076
(dp1077
g62
(dp1078
g70
I4
ssg71
g1072
sg64
(lp1079
S'/home/urvashi/Desktop/WEB2PY/web2py'
p1080
asbasbasbag57
(g73
g59
NtRp1081
(dp1082
g62
(dp1083
sg71
g1033
sg64
(lp1084
g57
(g78
g59
NtRp1085
(dp1086
g62
(dp1087
g82
g83
ssg71
g1081
sg64
(lp1088
S'cmd_args'
p1089
asbag57
(g78
g59
NtRp1090
(dp1091
g62
(dp1092
g89
g90
ssg71
g1081
sg64
(lp1093
S':'
asbag57
(g78
g59
NtRp1094
(dp1095
g62
(dp1096
sg71
g1081
sg64
(lp1097
g57
(g58
g59
NtRp1098
(dp1099
g62
(dp1100
g70
I4
ssg71
g1094
sg64
(lp1101
g57
(g66
g59
NtRp1102
(dp1103
g62
(dp1104
g70
I3
ssg71
Nsg64
(lp1105
sbasbasbasbag57
(g73
g59
NtRp1106
(dp1107
g62
(dp1108
sg71
g1033
sg64
(lp1109
g57
(g78
g59
NtRp1110
(dp1111
g62
(dp1112
g82
g83
ssg71
g1106
sg64
(lp1113
S'cmd_options'
p1114
asbag57
(g78
g59
NtRp1115
(dp1116
g62
(dp1117
g89
g90
ssg71
g1106
sg64
(lp1118
S':'
asbag57
(g78
g59
NtRp1119
(dp1120
g62
(dp1121
sg71
g1106
sg64
(lp1122
g57
(g58
g59
NtRp1123
(dp1124
g62
(dp1125
g70
I4
ssg71
g1119
sg64
(lp1126
S"<Values at 0x2eef518: {'verbose': False, 'ip': '127.0.0.1', 'with_scheduler': False, 'ips': [], 'shutdown_timeout': 5, 'taskbar': False, 'port': 8000, 'maxthreads': None, 'softcron': False, 'server_name': 'urvashi-VPCEH35EN', 'bpython': False, 'nogui': False, 'pid_filename': 'httpserver.pid', 'extcron': False, 'runcron': False, 'run_system_tests': False, 'test': None, 'folder': '/home/urvashi/Desktop/WEB2PY/web2py', 'config': '', 'minthreads': None, 'winservice': '', 'shell': None, 'run': '', 'log_filename': 'httpserver.log', 'debuglevel': 30, 'args': [''], 'socket_timeout': 5, 'ssl_ca_certificate': None, 'scheduler': None, 'profiler_filename': None, 'ssl_private_key': '', 'scheduler_groups': None, 'password': '123', 'request_queue_size': 5, 'ssl_certificate': '', 'cronjob': False, 'numthreads': None, 'quiet': False, 'interfaces': None, 'import_models': False, 'timeout': 10, 'plain': False, 'nobanner': False}>"
p1127
asbasbasbag57
(g73
g59
NtRp1128
(dp1129
g62
(dp1130
sg71
g1033
sg64
(lp1131
g57
(g78
g59
NtRp1132
(dp1133
g62
(dp1134
g82
g83
ssg71
g1128
sg64
(lp1135
S'content_length'
p1136
asbag57
(g78
g59
NtRp1137
(dp1138
g62
(dp1139
g89
g90
ssg71
g1128
sg64
(lp1140
S':'
asbag57
(g78
g59
NtRp1141
(dp1142
g62
(dp1143
sg71
g1128
sg64
(lp1144
g57
(g58
g59
NtRp1145
(dp1146
g62
(dp1147
g70
I4
ssg71
g1141
sg64
(lp1148
S'15'
p1149
asbasbasbag57
(g73
g59
NtRp1150
(dp1151
g62
(dp1152
sg71
g1033
sg64
(lp1153
g57
(g78
g59
NtRp1154
(dp1155
g62
(dp1156
g82
g83
ssg71
g1150
sg64
(lp1157
S'content_type'
p1158
asbag57
(g78
g59
NtRp1159
(dp1160
g62
(dp1161
g89
g90
ssg71
g1150
sg64
(lp1162
S':'
asbag57
(g78
g59
NtRp1163
(dp1164
g62
(dp1165
sg71
g1150
sg64
(lp1166
g57
(g58
g59
NtRp1167
(dp1168
g62
(dp1169
g70
I4
ssg71
g1163
sg64
(lp1170
S'application/x-www-form-urlencoded'
p1171
asbasbasbag57
(g73
g59
NtRp1172
(dp1173
g62
(dp1174
sg71
g1033
sg64
(lp1175
g57
(g78
g59
NtRp1176
(dp1177
g62
(dp1178
g82
g83
ssg71
g1172
sg64
(lp1179
S'db_sessions'
p1180
asbag57
(g78
g59
NtRp1181
(dp1182
g62
(dp1183
g89
g90
ssg71
g1172
sg64
(lp1184
S':'
asbag57
(g78
g59
NtRp1185
(dp1186
g62
(dp1187
sg71
g1172
sg64
(lp1188
g57
(g58
g59
NtRp1189
(dp1190
g62
(dp1191
g70
I4
ssg71
g1185
sg64
(lp1192
S'set([])'
p1193
asbasbasbag57
(g73
g59
NtRp1194
(dp1195
g62
(dp1196
sg71
g1033
sg64
(lp1197
g57
(g78
g59
NtRp1198
(dp1199
g62
(dp1200
g82
g83
ssg71
g1194
sg64
(lp1201
S'debugging'
p1202
asbag57
(g78
g59
NtRp1203
(dp1204
g62
(dp1205
g89
g90
ssg71
g1194
sg64
(lp1206
S':'
asbag57
(g78
g59
NtRp1207
(dp1208
g62
(dp1209
sg71
g1194
sg64
(lp1210
g57
(g58
g59
NtRp1211
(dp1212
g62
(dp1213
g70
I4
ssg71
g1207
sg64
(lp1214
g100
asbasbasbag57
(g73
g59
NtRp1215
(dp1216
g62
(dp1217
sg71
g1033
sg64
(lp1218
g57
(g78
g59
NtRp1219
(dp1220
g62
(dp1221
g82
g83
ssg71
g1215
sg64
(lp1222
S'gluon_parent'
p1223
asbag57
(g78
g59
NtRp1224
(dp1225
g62
(dp1226
g89
g90
ssg71
g1215
sg64
(lp1227
S':'
asbag57
(g78
g59
NtRp1228
(dp1229
g62
(dp1230
sg71
g1215
sg64
(lp1231
g57
(g58
g59
NtRp1232
(dp1233
g62
(dp1234
g70
I4
ssg71
g1228
sg64
(lp1235
S'/home/urvashi/Desktop/WEB2PY/web2py'
p1236
asbasbasbag57
(g73
g59
NtRp1237
(dp1238
g62
(dp1239
sg71
g1033
sg64
(lp1240
g57
(g78
g59
NtRp1241
(dp1242
g62
(dp1243
g82
g83
ssg71
g1237
sg64
(lp1244
S'http_accept'
p1245
asbag57
(g78
g59
NtRp1246
(dp1247
g62
(dp1248
g89
g90
ssg71
g1237
sg64
(lp1249
S':'
asbag57
(g78
g59
NtRp1250
(dp1251
g62
(dp1252
sg71
g1237
sg64
(lp1253
g57
(g58
g59
NtRp1254
(dp1255
g62
(dp1256
g70
I4
ssg71
g1250
sg64
(lp1257
S'text/html,application/xhtml+xml,application/xml;q=0.9,*/*;q=0.8'
p1258
asbasbasbag57
(g73
g59
NtRp1259
(dp1260
g62
(dp1261
sg71
g1033
sg64
(lp1262
g57
(g78
g59
NtRp1263
(dp1264
g62
(dp1265
g82
g83
ssg71
g1259
sg64
(lp1266
S'http_accept_encoding'
p1267
asbag57
(g78
g59
NtRp1268
(dp1269
g62
(dp1270
g89
g90
ssg71
g1259
sg64
(lp1271
S':'
asbag57
(g78
g59
NtRp1272
(dp1273
g62
(dp1274
sg71
g1259
sg64
(lp1275
g57
(g58
g59
NtRp1276
(dp1277
g62
(dp1278
g70
I4
ssg71
g1272
sg64
(lp1279
S'gzip, deflate'
p1280
asbasbasbag57
(g73
g59
NtRp1281
(dp1282
g62
(dp1283
sg71
g1033
sg64
(lp1284
g57
(g78
g59
NtRp1285
(dp1286
g62
(dp1287
g82
g83
ssg71
g1281
sg64
(lp1288
S'http_accept_language'
p1289
asbag57
(g78
g59
NtRp1290
(dp1291
g62
(dp1292
g89
g90
ssg71
g1281
sg64
(lp1293
S':'
asbag57
(g78
g59
NtRp1294
(dp1295
g62
(dp1296
sg71
g1281
sg64
(lp1297
g57
(g58
g59
NtRp1298
(dp1299
g62
(dp1300
g70
I4
ssg71
g1294
sg64
(lp1301
S'en-us,en;q=0.5'
p1302
asbasbasbag57
(g73
g59
NtRp1303
(dp1304
g62
(dp1305
sg71
g1033
sg64
(lp1306
g57
(g78
g59
NtRp1307
(dp1308
g62
(dp1309
g82
g83
ssg71
g1303
sg64
(lp1310
S'http_connection'
p1311
asbag57
(g78
g59
NtRp1312
(dp1313
g62
(dp1314
g89
g90
ssg71
g1303
sg64
(lp1315
S':'
asbag57
(g78
g59
NtRp1316
(dp1317
g62
(dp1318
sg71
g1303
sg64
(lp1319
g57
(g58
g59
NtRp1320
(dp1321
g62
(dp1322
g70
I4
ssg71
g1316
sg64
(lp1323
S'keep-alive'
p1324
asbasbasbag57
(g73
g59
NtRp1325
(dp1326
g62
(dp1327
sg71
g1033
sg64
(lp1328
g57
(g78
g59
NtRp1329
(dp1330
g62
(dp1331
g82
g83
ssg71
g1325
sg64
(lp1332
S'http_content_length'
p1333
asbag57
(g78
g59
NtRp1334
(dp1335
g62
(dp1336
g89
g90
ssg71
g1325
sg64
(lp1337
S':'
asbag57
(g78
g59
NtRp1338
(dp1339
g62
(dp1340
sg71
g1325
sg64
(lp1341
g57
(g58
g59
NtRp1342
(dp1343
g62
(dp1344
g70
I4
ssg71
g1338
sg64
(lp1345
g1149
asbasbasbag57
(g73
g59
NtRp1346
(dp1347
g62
(dp1348
sg71
g1033
sg64
(lp1349
g57
(g78
g59
NtRp1350
(dp1351
g62
(dp1352
g82
g83
ssg71
g1346
sg64
(lp1353
S'http_content_type'
p1354
asbag57
(g78
g59
NtRp1355
(dp1356
g62
(dp1357
g89
g90
ssg71
g1346
sg64
(lp1358
S':'
asbag57
(g78
g59
NtRp1359
(dp1360
g62
(dp1361
sg71
g1346
sg64
(lp1362
g57
(g58
g59
NtRp1363
(dp1364
g62
(dp1365
g70
I4
ssg71
g1359
sg64
(lp1366
g1171
asbasbasbag57
(g73
g59
NtRp1367
(dp1368
g62
(dp1369
sg71
g1033
sg64
(lp1370
g57
(g78
g59
NtRp1371
(dp1372
g62
(dp1373
g82
g83
ssg71
g1367
sg64
(lp1374
S'http_cookie'
p1375
asbag57
(g78
g59
NtRp1376
(dp1377
g62
(dp1378
g89
g90
ssg71
g1367
sg64
(lp1379
S':'
asbag57
(g78
g59
NtRp1380
(dp1381
g62
(dp1382
sg71
g1367
sg64
(lp1383
g57
(g58
g59
NtRp1384
(dp1385
g62
(dp1386
g70
I4
ssg71
g1380
sg64
(lp1387
S'session_id_welcome=127.0.0.1-2649f498-857f-4c18-b15e-d1ecec4e2e50; session_id_admin=127.0.0.1-eca41c70-ca92-49f9-abda-2311df9ca801; session_id_isas_portal=127.0.0.1-57cadf8b-6e18-4f20-957f-90184451a436; session_id_ssad=127.0.0.1-06631aa4-9f32-405a-a84b-a8d8a9131050'
p1388
asbasbasbag57
(g73
g59
NtRp1389
(dp1390
g62
(dp1391
sg71
g1033
sg64
(lp1392
g57
(g78
g59
NtRp1393
(dp1394
g62
(dp1395
g82
g83
ssg71
g1389
sg64
(lp1396
S'http_host'
p1397
asbag57
(g78
g59
NtRp1398
(dp1399
g62
(dp1400
g89
g90
ssg71
g1389
sg64
(lp1401
S':'
asbag57
(g78
g59
NtRp1402
(dp1403
g62
(dp1404
sg71
g1389
sg64
(lp1405
g57
(g58
g59
NtRp1406
(dp1407
g62
(dp1408
g70
I4
ssg71
g1402
sg64
(lp1409
S'127.0.0.1:8000'
p1410
asbasbasbag57
(g73
g59
NtRp1411
(dp1412
g62
(dp1413
sg71
g1033
sg64
(lp1414
g57
(g78
g59
NtRp1415
(dp1416
g62
(dp1417
g82
g83
ssg71
g1411
sg64
(lp1418
S'http_referer'
p1419
asbag57
(g78
g59
NtRp1420
(dp1421
g62
(dp1422
g89
g90
ssg71
g1411
sg64
(lp1423
S':'
asbag57
(g78
g59
NtRp1424
(dp1425
g62
(dp1426
sg71
g1411
sg64
(lp1427
g57
(g58
g59
NtRp1428
(dp1429
g62
(dp1430
g70
I4
ssg71
g1424
sg64
(lp1431
S'http://127.0.0.1:8000/SSAD/default/add_category'
p1432
asbasbasbag57
(g73
g59
NtRp1433
(dp1434
g62
(dp1435
sg71
g1033
sg64
(lp1436
g57
(g78
g59
NtRp1437
(dp1438
g62
(dp1439
g82
g83
ssg71
g1433
sg64
(lp1440
S'http_user_agent'
p1441
asbag57
(g78
g59
NtRp1442
(dp1443
g62
(dp1444
g89
g90
ssg71
g1433
sg64
(lp1445
S':'
asbag57
(g78
g59
NtRp1446
(dp1447
g62
(dp1448
sg71
g1433
sg64
(lp1449
g57
(g58
g59
NtRp1450
(dp1451
g62
(dp1452
g70
I4
ssg71
g1446
sg64
(lp1453
S'Mozilla/5.0 (X11; Ubuntu; Linux x86_64; rv:11.0) Gecko/20100101 Firefox/11.0'
p1454
asbasbasbag57
(g73
g59
NtRp1455
(dp1456
g62
(dp1457
sg71
g1033
sg64
(lp1458
g57
(g78
g59
NtRp1459
(dp1460
g62
(dp1461
g82
g83
ssg71
g1455
sg64
(lp1462
S'is_jython'
p1463
asbag57
(g78
g59
NtRp1464
(dp1465
g62
(dp1466
g89
g90
ssg71
g1455
sg64
(lp1467
S':'
asbag57
(g78
g59
NtRp1468
(dp1469
g62
(dp1470
sg71
g1455
sg64
(lp1471
g57
(g58
g59
NtRp1472
(dp1473
g62
(dp1474
g70
I4
ssg71
g1468
sg64
(lp1475
g100
asbasbasbag57
(g73
g59
NtRp1476
(dp1477
g62
(dp1478
sg71
g1033
sg64
(lp1479
g57
(g78
g59
NtRp1480
(dp1481
g62
(dp1482
g82
g83
ssg71
g1476
sg64
(lp1483
S'is_pypy'
p1484
asbag57
(g78
g59
NtRp1485
(dp1486
g62
(dp1487
g89
g90
ssg71
g1476
sg64
(lp1488
S':'
asbag57
(g78
g59
NtRp1489
(dp1490
g62
(dp1491
sg71
g1476
sg64
(lp1492
g57
(g58
g59
NtRp1493
(dp1494
g62
(dp1495
g70
I4
ssg71
g1489
sg64
(lp1496
g100
asbasbasbag57
(g73
g59
NtRp1497
(dp1498
g62
(dp1499
sg71
g1033
sg64
(lp1500
g57
(g78
g59
NtRp1501
(dp1502
g62
(dp1503
g82
g83
ssg71
g1497
sg64
(lp1504
S'local_hosts'
p1505
asbag57
(g78
g59
NtRp1506
(dp1507
g62
(dp1508
g89
g90
ssg71
g1497
sg64
(lp1509
S':'
asbag57
(g78
g59
NtRp1510
(dp1511
g62
(dp1512
sg71
g1497
sg64
(lp1513
g57
(g58
g59
NtRp1514
(dp1515
g62
(dp1516
g70
I4
ssg71
g1510
sg64
(lp1517
g57
(g66
g59
NtRp1518
(dp1519
g62
(dp1520
g70
I3
ssg71
Nsg64
(lp1521
g57
(g73
g59
NtRp1522
(dp1523
g62
(dp1524
sg71
g1518
sg64
(lp1525
g57
(g78
g59
NtRp1526
(dp1527
g62
(dp1528
sg71
g1522
sg64
(lp1529
g57
(g58
g59
NtRp1530
(dp1531
g62
(dp1532
g70
I3
ssg71
g1526
sg64
(lp1533
S'::1'
p1534
asbasbasbag57
(g73
g59
NtRp1535
(dp1536
g62
(dp1537
sg71
g1518
sg64
(lp1538
g57
(g78
g59
NtRp1539
(dp1540
g62
(dp1541
sg71
g1535
sg64
(lp1542
g57
(g58
g59
NtRp1543
(dp1544
g62
(dp1545
g70
I3
ssg71
g1539
sg64
(lp1546
S'127.0.1.1'
p1547
asbasbasbag57
(g73
g59
NtRp1548
(dp1549
g62
(dp1550
sg71
g1518
sg64
(lp1551
g57
(g78
g59
NtRp1552
(dp1553
g62
(dp1554
sg71
g1548
sg64
(lp1555
g57
(g58
g59
NtRp1556
(dp1557
g62
(dp1558
g70
I3
ssg71
g1552
sg64
(lp1559
S'::ffff:127.0.0.1'
p1560
asbasbasbag57
(g73
g59
NtRp1561
(dp1562
g62
(dp1563
sg71
g1518
sg64
(lp1564
g57
(g78
g59
NtRp1565
(dp1566
g62
(dp1567
sg71
g1561
sg64
(lp1568
g57
(g58
g59
NtRp1569
(dp1570
g62
(dp1571
g70
I3
ssg71
g1565
sg64
(lp1572
S'127.0.0.1'
p1573
asbasbasbag57
(g73
g59
NtRp1574
(dp1575
g62
(dp1576
sg71
g1518
sg64
(lp1577
g57
(g78
g59
NtRp1578
(dp1579
g62
(dp1580
sg71
g1574
sg64
(lp1581
g57
(g58
g59
NtRp1582
(dp1583
g62
(dp1584
g70
I3
ssg71
g1578
sg64
(lp1585
S'urvashi-VPCEH35EN'
p1586
asbasbasbasbasbasbasbag57
(g73
g59
NtRp1587
(dp1588
g62
(dp1589
sg71
g1033
sg64
(lp1590
g57
(g78
g59
NtRp1591
(dp1592
g62
(dp1593
g82
g83
ssg71
g1587
sg64
(lp1594
S'path_info'
p1595
asbag57
(g78
g59
NtRp1596
(dp1597
g62
(dp1598
g89
g90
ssg71
g1587
sg64
(lp1599
S':'
asbag57
(g78
g59
NtRp1600
(dp1601
g62
(dp1602
sg71
g1587
sg64
(lp1603
g57
(g58
g59
NtRp1604
(dp1605
g62
(dp1606
g70
I4
ssg71
g1600
sg64
(lp1607
S'/SSAD/default/add_category_2.html'
p1608
asbasbasbag57
(g73
g59
NtRp1609
(dp1610
g62
(dp1611
sg71
g1033
sg64
(lp1612
g57
(g78
g59
NtRp1613
(dp1614
g62
(dp1615
g82
g83
ssg71
g1609
sg64
(lp1616
S'query_string'
p1617
asbag57
(g78
g59
NtRp1618
(dp1619
g62
(dp1620
g89
g90
ssg71
g1609
sg64
(lp1621
S':'
asbag57
(g78
g59
NtRp1622
(dp1623
g62
(dp1624
sg71
g1609
sg64
(lp1625
g57
(g58
g59
NtRp1626
(dp1627
g62
(dp1628
g70
I4
ssg71
g1622
sg64
(lp1629
S''
asbasbasbag57
(g73
g59
NtRp1630
(dp1631
g62
(dp1632
sg71
g1033
sg64
(lp1633
g57
(g78
g59
NtRp1634
(dp1635
g62
(dp1636
g82
g83
ssg71
g1630
sg64
(lp1637
S'remote_addr'
p1638
asbag57
(g78
g59
NtRp1639
(dp1640
g62
(dp1641
g89
g90
ssg71
g1630
sg64
(lp1642
S':'
asbag57
(g78
g59
NtRp1643
(dp1644
g62
(dp1645
sg71
g1630
sg64
(lp1646
g57
(g58
g59
NtRp1647
(dp1648
g62
(dp1649
g70
I4
ssg71
g1643
sg64
(lp1650
g212
asbasbasbag57
(g73
g59
NtRp1651
(dp1652
g62
(dp1653
sg71
g1033
sg64
(lp1654
g57
(g78
g59
NtRp1655
(dp1656
g62
(dp1657
g82
g83
ssg71
g1651
sg64
(lp1658
S'remote_port'
p1659
asbag57
(g78
g59
NtRp1660
(dp1661
g62
(dp1662
g89
g90
ssg71
g1651
sg64
(lp1663
S':'
asbag57
(g78
g59
NtRp1664
(dp1665
g62
(dp1666
sg71
g1651
sg64
(lp1667
g57
(g58
g59
NtRp1668
(dp1669
g62
(dp1670
g70
I4
ssg71
g1664
sg64
(lp1671
S'39238'
p1672
asbasbasbag57
(g73
g59
NtRp1673
(dp1674
g62
(dp1675
sg71
g1033
sg64
(lp1676
g57
(g78
g59
NtRp1677
(dp1678
g62
(dp1679
g82
g83
ssg71
g1673
sg64
(lp1680
S'request_method'
p1681
asbag57
(g78
g59
NtRp1682
(dp1683
g62
(dp1684
g89
g90
ssg71
g1673
sg64
(lp1685
S':'
asbag57
(g78
g59
NtRp1686
(dp1687
g62
(dp1688
sg71
g1673
sg64
(lp1689
g57
(g58
g59
NtRp1690
(dp1691
g62
(dp1692
g70
I4
ssg71
g1686
sg64
(lp1693
S'POST'
p1694
asbasbasbag57
(g73
g59
NtRp1695
(dp1696
g62
(dp1697
sg71
g1033
sg64
(lp1698
g57
(g78
g59
NtRp1699
(dp1700
g62
(dp1701
g82
g83
ssg71
g1695
sg64
(lp1702
S'request_uri'
p1703
asbag57
(g78
g59
NtRp1704
(dp1705
g62
(dp1706
g89
g90
ssg71
g1695
sg64
(lp1707
S':'
asbag57
(g78
g59
NtRp1708
(dp1709
g62
(dp1710
sg71
g1695
sg64
(lp1711
g57
(g58
g59
NtRp1712
(dp1713
g62
(dp1714
g70
I4
ssg71
g1708
sg64
(lp1715
g1608
asbasbasbag57
(g73
g59
NtRp1716
(dp1717
g62
(dp1718
sg71
g1033
sg64
(lp1719
g57
(g78
g59
NtRp1720
(dp1721
g62
(dp1722
g82
g83
ssg71
g1716
sg64
(lp1723
S'script_name'
p1724
asbag57
(g78
g59
NtRp1725
(dp1726
g62
(dp1727
g89
g90
ssg71
g1716
sg64
(lp1728
S':'
asbag57
(g78
g59
NtRp1729
(dp1730
g62
(dp1731
sg71
g1716
sg64
(lp1732
g57
(g58
g59
NtRp1733
(dp1734
g62
(dp1735
g70
I4
ssg71
g1729
sg64
(lp1736
S''
asbasbasbag57
(g73
g59
NtRp1737
(dp1738
g62
(dp1739
sg71
g1033
sg64
(lp1740
g57
(g78
g59
NtRp1741
(dp1742
g62
(dp1743
g82
g83
ssg71
g1737
sg64
(lp1744
S'server_name'
p1745
asbag57
(g78
g59
NtRp1746
(dp1747
g62
(dp1748
g89
g90
ssg71
g1737
sg64
(lp1749
S':'
asbag57
(g78
g59
NtRp1750
(dp1751
g62
(dp1752
sg71
g1737
sg64
(lp1753
g57
(g58
g59
NtRp1754
(dp1755
g62
(dp1756
g70
I4
ssg71
g1750
sg64
(lp1757
S'urvashi-VPCEH35EN'
p1758
asbasbasbag57
(g73
g59
NtRp1759
(dp1760
g62
(dp1761
sg71
g1033
sg64
(lp1762
g57
(g78
g59
NtRp1763
(dp1764
g62
(dp1765
g82
g83
ssg71
g1759
sg64
(lp1766
S'server_port'
p1767
asbag57
(g78
g59
NtRp1768
(dp1769
g62
(dp1770
g89
g90
ssg71
g1759
sg64
(lp1771
S':'
asbag57
(g78
g59
NtRp1772
(dp1773
g62
(dp1774
sg71
g1759
sg64
(lp1775
g57
(g58
g59
NtRp1776
(dp1777
g62
(dp1778
g70
I4
ssg71
g1772
sg64
(lp1779
S'8000'
p1780
asbasbasbag57
(g73
g59
NtRp1781
(dp1782
g62
(dp1783
sg71
g1033
sg64
(lp1784
g57
(g78
g59
NtRp1785
(dp1786
g62
(dp1787
g82
g83
ssg71
g1781
sg64
(lp1788
S'server_protocol'
p1789
asbag57
(g78
g59
NtRp1790
(dp1791
g62
(dp1792
g89
g90
ssg71
g1781
sg64
(lp1793
S':'
asbag57
(g78
g59
NtRp1794
(dp1795
g62
(dp1796
sg71
g1781
sg64
(lp1797
g57
(g58
g59
NtRp1798
(dp1799
g62
(dp1800
g70
I4
ssg71
g1794
sg64
(lp1801
S'HTTP/1.1'
p1802
asbasbasbag57
(g73
g59
NtRp1803
(dp1804
g62
(dp1805
sg71
g1033
sg64
(lp1806
g57
(g78
g59
NtRp1807
(dp1808
g62
(dp1809
g82
g83
ssg71
g1803
sg64
(lp1810
S'server_software'
p1811
asbag57
(g78
g59
NtRp1812
(dp1813
g62
(dp1814
g89
g90
ssg71
g1803
sg64
(lp1815
S':'
asbag57
(g78
g59
NtRp1816
(dp1817
g62
(dp1818
sg71
g1803
sg64
(lp1819
g57
(g58
g59
NtRp1820
(dp1821
g62
(dp1822
g70
I4
ssg71
g1816
sg64
(lp1823
S'Rocket 1.2.6'
p1824
asbasbasbag57
(g73
g59
NtRp1825
(dp1826
g62
(dp1827
sg71
g1033
sg64
(lp1828
g57
(g78
g59
NtRp1829
(dp1830
g62
(dp1831
g82
g83
ssg71
g1825
sg64
(lp1832
S'web2py_path'
p1833
asbag57
(g78
g59
NtRp1834
(dp1835
g62
(dp1836
g89
g90
ssg71
g1825
sg64
(lp1837
S':'
asbag57
(g78
g59
NtRp1838
(dp1839
g62
(dp1840
sg71
g1825
sg64
(lp1841
g57
(g58
g59
NtRp1842
(dp1843
g62
(dp1844
g70
I4
ssg71
g1838
sg64
(lp1845
g1080
asbasbasbag57
(g73
g59
NtRp1846
(dp1847
g62
(dp1848
sg71
g1033
sg64
(lp1849
g57
(g78
g59
NtRp1850
(dp1851
g62
(dp1852
g82
g83
ssg71
g1846
sg64
(lp1853
S'web2py_version'
p1854
asbag57
(g78
g59
NtRp1855
(dp1856
g62
(dp1857
g89
g90
ssg71
g1846
sg64
(lp1858
S':'
asbag57
(g78
g59
NtRp1859
(dp1860
g62
(dp1861
sg71
g1846
sg64
(lp1862
g57
(g58
g59
NtRp1863
(dp1864
g62
(dp1865
g70
I4
ssg71
g1859
sg64
(lp1866
g57
(g66
g59
NtRp1867
(dp1868
g62
(dp1869
g70
I3
ssg71
Nsg64
(lp1870
g57
(g73
g59
NtRp1871
(dp1872
g62
(dp1873
sg71
g1867
sg64
(lp1874
g57
(g78
g59
NtRp1875
(dp1876
g62
(dp1877
sg71
g1871
sg64
(lp1878
g57
(g58
g59
NtRp1879
(dp1880
g62
(dp1881
g70
I3
ssg71
g1875
sg64
(lp1882
S'2'
asbasbasbag57
(g73
g59
NtRp1883
(dp1884
g62
(dp1885
sg71
g1867
sg64
(lp1886
g57
(g78
g59
NtRp1887
(dp1888
g62
(dp1889
sg71
g1883
sg64
(lp1890
g57
(g58
g59
NtRp1891
(dp1892
g62
(dp1893
g70
I3
ssg71
g1887
sg64
(lp1894
S'3'
asbasbasbag57
(g73
g59
NtRp1895
(dp1896
g62
(dp1897
sg71
g1867
sg64
(lp1898
g57
(g78
g59
NtRp1899
(dp1900
g62
(dp1901
sg71
g1895
sg64
(lp1902
g57
(g58
g59
NtRp1903
(dp1904
g62
(dp1905
g70
I3
ssg71
g1899
sg64
(lp1906
S'2'
asbasbasbag57
(g73
g59
NtRp1907
(dp1908
g62
(dp1909
sg71
g1867
sg64
(lp1910
g57
(g78
g59
NtRp1911
(dp1912
g62
(dp1913
sg71
g1907
sg64
(lp1914
g57
(g58
g59
NtRp1915
(dp1916
g62
(dp1917
g70
I3
ssg71
g1911
sg64
(lp1918
S'datetime.datetime(2012, 12, 17, 15, 3, 30)'
p1919
asbasbasbag57
(g73
g59
NtRp1920
(dp1921
g62
(dp1922
sg71
g1867
sg64
(lp1923
g57
(g78
g59
NtRp1924
(dp1925
g62
(dp1926
sg71
g1920
sg64
(lp1927
g57
(g58
g59
NtRp1928
(dp1929
g62
(dp1930
g70
I3
ssg71
g1924
sg64
(lp1931
S'stable'
p1932
asbasbasbasbasbasbasbag57
(g73
g59
NtRp1933
(dp1934
g62
(dp1935
sg71
g1033
sg64
(lp1936
g57
(g78
g59
NtRp1937
(dp1938
g62
(dp1939
g82
g83
ssg71
g1933
sg64
(lp1940
S'wsgi_errors'
p1941
asbag57
(g78
g59
NtRp1942
(dp1943
g62
(dp1944
g89
g90
ssg71
g1933
sg64
(lp1945
S':'
asbag57
(g78
g59
NtRp1946
(dp1947
g62
(dp1948
sg71
g1933
sg64
(lp1949
g57
(g58
g59
NtRp1950
(dp1951
g62
(dp1952
g70
I4
ssg71
g1946
sg64
(lp1953
S"<open file '<stderr>', mode 'w' at 0x7f345f57e270>"
p1954
asbasbasbag57
(g73
g59
NtRp1955
(dp1956
g62
(dp1957
sg71
g1033
sg64
(lp1958
g57
(g78
g59
NtRp1959
(dp1960
g62
(dp1961
g82
g83
ssg71
g1955
sg64
(lp1962
S'wsgi_file_wrapper'
p1963
asbag57
(g78
g59
NtRp1964
(dp1965
g62
(dp1966
g89
g90
ssg71
g1955
sg64
(lp1967
S':'
asbag57
(g78
g59
NtRp1968
(dp1969
g62
(dp1970
sg71
g1955
sg64
(lp1971
g57
(g58
g59
NtRp1972
(dp1973
g62
(dp1974
g70
I4
ssg71
g1968
sg64
(lp1975
S'<class wsgiref.util.FileWrapper at 0x2ac28d8>'
p1976
asbasbasbag57
(g73
g59
NtRp1977
(dp1978
g62
(dp1979
sg71
g1033
sg64
(lp1980
g57
(g78
g59
NtRp1981
(dp1982
g62
(dp1983
g82
g83
ssg71
g1977
sg64
(lp1984
S'wsgi_input'
p1985
asbag57
(g78
g59
NtRp1986
(dp1987
g62
(dp1988
g89
g90
ssg71
g1977
sg64
(lp1989
S':'
asbag57
(g78
g59
NtRp1990
(dp1991
g62
(dp1992
sg71
g1977
sg64
(lp1993
g57
(g58
g59
NtRp1994
(dp1995
g62
(dp1996
g70
I4
ssg71
g1990
sg64
(lp1997
S'<socket._fileobject object at 0x7f34300a7150>'
p1998
asbasbasbag57
(g73
g59
NtRp1999
(dp2000
g62
(dp2001
sg71
g1033
sg64
(lp2002
g57
(g78
g59
NtRp2003
(dp2004
g62
(dp2005
g82
g83
ssg71
g1999
sg64
(lp2006
S'wsgi_multiprocess'
p2007
asbag57
(g78
g59
NtRp2008
(dp2009
g62
(dp2010
g89
g90
ssg71
g1999
sg64
(lp2011
S':'
asbag57
(g78
g59
NtRp2012
(dp2013
g62
(dp2014
sg71
g1999
sg64
(lp2015
g57
(g58
g59
NtRp2016
(dp2017
g62
(dp2018
g70
I4
ssg71
g2012
sg64
(lp2019
g100
asbasbasbag57
(g73
g59
NtRp2020
(dp2021
g62
(dp2022
sg71
g1033
sg64
(lp2023
g57
(g78
g59
NtRp2024
(dp2025
g62
(dp2026
g82
g83
ssg71
g2020
sg64
(lp2027
S'wsgi_multithread'
p2028
asbag57
(g78
g59
NtRp2029
(dp2030
g62
(dp2031
g89
g90
ssg71
g2020
sg64
(lp2032
S':'
asbag57
(g78
g59
NtRp2033
(dp2034
g62
(dp2035
sg71
g2020
sg64
(lp2036
g57
(g58
g59
NtRp2037
(dp2038
g62
(dp2039
g70
I4
ssg71
g2033
sg64
(lp2040
S'True'
p2041
asbasbasbag57
(g73
g59
NtRp2042
(dp2043
g62
(dp2044
sg71
g1033
sg64
(lp2045
g57
(g78
g59
NtRp2046
(dp2047
g62
(dp2048
g82
g83
ssg71
g2042
sg64
(lp2049
S'wsgi_run_once'
p2050
asbag57
(g78
g59
NtRp2051
(dp2052
g62
(dp2053
g89
g90
ssg71
g2042
sg64
(lp2054
S':'
asbag57
(g78
g59
NtRp2055
(dp2056
g62
(dp2057
sg71
g2042
sg64
(lp2058
g57
(g58
g59
NtRp2059
(dp2060
g62
(dp2061
g70
I4
ssg71
g2055
sg64
(lp2062
g100
asbasbasbag57
(g73
g59
NtRp2063
(dp2064
g62
(dp2065
sg71
g1033
sg64
(lp2066
g57
(g78
g59
NtRp2067
(dp2068
g62
(dp2069
g82
g83
ssg71
g2063
sg64
(lp2070
S'wsgi_url_scheme'
p2071
asbag57
(g78
g59
NtRp2072
(dp2073
g62
(dp2074
g89
g90
ssg71
g2063
sg64
(lp2075
S':'
asbag57
(g78
g59
NtRp2076
(dp2077
g62
(dp2078
sg71
g2063
sg64
(lp2079
g57
(g58
g59
NtRp2080
(dp2081
g62
(dp2082
g70
I4
ssg71
g2076
sg64
(lp2083
S'http'
p2084
asbasbasbag57
(g73
g59
NtRp2085
(dp2086
g62
(dp2087
sg71
g1033
sg64
(lp2088
g57
(g78
g59
NtRp2089
(dp2090
g62
(dp2091
g82
g83
ssg71
g2085
sg64
(lp2092
S'wsgi_version'
p2093
asbag57
(g78
g59
NtRp2094
(dp2095
g62
(dp2096
g89
g90
ssg71
g2085
sg64
(lp2097
S':'
asbag57
(g78
g59
NtRp2098
(dp2099
g62
(dp2100
sg71
g2085
sg64
(lp2101
g57
(g58
g59
NtRp2102
(dp2103
g62
(dp2104
g70
I4
ssg71
g2098
sg64
(lp2105
g57
(g66
g59
NtRp2106
(dp2107
g62
(dp2108
g70
I3
ssg71
Nsg64
(lp2109
g57
(g73
g59
NtRp2110
(dp2111
g62
(dp2112
sg71
g2106
sg64
(lp2113
g57
(g78
g59
NtRp2114
(dp2115
g62
(dp2116
sg71
g2110
sg64
(lp2117
g57
(g58
g59
NtRp2118
(dp2119
g62
(dp2120
g70
I3
ssg71
g2114
sg64
(lp2121
S'1'
asbasbasbag57
(g73
g59
NtRp2122
(dp2123
g62
(dp2124
sg71
g2106
sg64
(lp2125
g57
(g78
g59
NtRp2126
(dp2127
g62
(dp2128
sg71
g2122
sg64
(lp2129
g57
(g58
g59
NtRp2130
(dp2131
g62
(dp2132
g70
I3
ssg71
g2126
sg64
(lp2133
S'0'
asbasbasbasbasbasbasbasbasbasbasbag57
(g73
g59
NtRp2134
(dp2135
g62
(dp2136
sg71
g67
sg64
(lp2137
g57
(g78
g59
NtRp2138
(dp2139
g62
(dp2140
g82
g83
ssg71
g2134
sg64
(lp2141
S'extension'
p2142
asbag57
(g78
g59
NtRp2143
(dp2144
g62
(dp2145
g89
g90
ssg71
g2134
sg64
(lp2146
S':'
asbag57
(g78
g59
NtRp2147
(dp2148
g62
(dp2149
sg71
g2134
sg64
(lp2150
g57
(g58
g59
NtRp2151
(dp2152
g62
(dp2153
g70
I5
ssg71
g2147
sg64
(lp2154
S'html'
p2155
asbasbasbag57
(g73
g59
NtRp2156
(dp2157
g62
(dp2158
sg71
g67
sg64
(lp2159
g57
(g78
g59
NtRp2160
(dp2161
g62
(dp2162
g82
g83
ssg71
g2156
sg64
(lp2163
S'folder'
p2164
asbag57
(g78
g59
NtRp2165
(dp2166
g62
(dp2167
g89
g90
ssg71
g2156
sg64
(lp2168
S':'
asbag57
(g78
g59
NtRp2169
(dp2170
g62
(dp2171
sg71
g2156
sg64
(lp2172
g57
(g58
g59
NtRp2173
(dp2174
g62
(dp2175
g70
I5
ssg71
g2169
sg64
(lp2176
S'/home/urvashi/Desktop/WEB2PY/web2py/applications/SSAD/'
p2177
asbasbasbag57
(g73
g59
NtRp2178
(dp2179
g62
(dp2180
sg71
g67
sg64
(lp2181
g57
(g78
g59
NtRp2182
(dp2183
g62
(dp2184
g82
g83
ssg71
g2178
sg64
(lp2185
S'function'
p2186
asbag57
(g78
g59
NtRp2187
(dp2188
g62
(dp2189
g89
g90
ssg71
g2178
sg64
(lp2190
S':'
asbag57
(g78
g59
NtRp2191
(dp2192
g62
(dp2193
sg71
g2178
sg64
(lp2194
g57
(g58
g59
NtRp2195
(dp2196
g62
(dp2197
g70
I5
ssg71
g2191
sg64
(lp2198
S'add_category_2'
p2199
asbasbasbag57
(g73
g59
NtRp2200
(dp2201
g62
(dp2202
sg71
g67
sg64
(lp2203
g57
(g78
g59
NtRp2204
(dp2205
g62
(dp2206
g82
g83
ssg71
g2200
sg64
(lp2207
S'get_vars'
p2208
asbag57
(g78
g59
NtRp2209
(dp2210
g62
(dp2211
g89
g90
ssg71
g2200
sg64
(lp2212
S':'
asbag57
(g78
g59
NtRp2213
(dp2214
g62
(dp2215
sg71
g2200
sg64
(lp2216
g57
(g58
g59
NtRp2217
(dp2218
g62
(dp2219
g70
I5
ssg71
g2213
sg64
(lp2220
g57
(g66
g59
NtRp2221
(dp2222
g62
(dp2223
g70
I4
ssg71
Nsg64
(lp2224
sbasbasbasbag57
(g73
g59
NtRp2225
(dp2226
g62
(dp2227
sg71
g67
sg64
(lp2228
g57
(g78
g59
NtRp2229
(dp2230
g62
(dp2231
g82
g83
ssg71
g2225
sg64
(lp2232
S'global_settings'
p2233
asbag57
(g78
g59
NtRp2234
(dp2235
g62
(dp2236
g89
g90
ssg71
g2225
sg64
(lp2237
S':'
asbag57
(g78
g59
NtRp2238
(dp2239
g62
(dp2240
sg71
g2225
sg64
(lp2241
g57
(g58
g59
NtRp2242
(dp2243
g62
(dp2244
g70
I5
ssg71
g2238
sg64
(lp2245
g57
(g66
g59
NtRp2246
(dp2247
g62
(dp2248
g70
I4
ssg71
Nsg64
(lp2249
g57
(g73
g59
NtRp2250
(dp2251
g62
(dp2252
sg71
g2246
sg64
(lp2253
g57
(g78
g59
NtRp2254
(dp2255
g62
(dp2256
g82
g83
ssg71
g2250
sg64
(lp2257
g1045
asbag57
(g78
g59
NtRp2258
(dp2259
g62
(dp2260
g89
g90
ssg71
g2250
sg64
(lp2261
S':'
asbag57
(g78
g59
NtRp2262
(dp2263
g62
(dp2264
sg71
g2250
sg64
(lp2265
g57
(g58
g59
NtRp2266
(dp2267
g62
(dp2268
g70
I4
ssg71
g2262
sg64
(lp2269
S"set(['/home/urvashi/Desktop/WEB2PY/web2py/applications/admin/', '/home/urvashi/Desktop/WEB2PY/web2py/applications/welcome/', '/home/urvashi/Desktop/WEB2PY/web2py/applications/ISAS_PORTAL/', '/home/urvashi/Desktop/WEB2PY/web2py/applications/SSAD/'])"
p2270
asbasbasbag57
(g73
g59
NtRp2271
(dp2272
g62
(dp2273
sg71
g2246
sg64
(lp2274
g57
(g78
g59
NtRp2275
(dp2276
g62
(dp2277
g82
g83
ssg71
g2271
sg64
(lp2278
g1067
asbag57
(g78
g59
NtRp2279
(dp2280
g62
(dp2281
g89
g90
ssg71
g2271
sg64
(lp2282
S':'
asbag57
(g78
g59
NtRp2283
(dp2284
g62
(dp2285
sg71
g2271
sg64
(lp2286
g57
(g58
g59
NtRp2287
(dp2288
g62
(dp2289
g70
I4
ssg71
g2283
sg64
(lp2290
g1080
asbasbasbag57
(g73
g59
NtRp2291
(dp2292
g62
(dp2293
sg71
g2246
sg64
(lp2294
g57
(g78
g59
NtRp2295
(dp2296
g62
(dp2297
g82
g83
ssg71
g2291
sg64
(lp2298
g1089
asbag57
(g78
g59
NtRp2299
(dp2300
g62
(dp2301
g89
g90
ssg71
g2291
sg64
(lp2302
S':'
asbag57
(g78
g59
NtRp2303
(dp2304
g62
(dp2305
sg71
g2291
sg64
(lp2306
g57
(g58
g59
NtRp2307
(dp2308
g62
(dp2309
g70
I4
ssg71
g2303
sg64
(lp2310
g57
(g66
g59
NtRp2311
(dp2312
g62
(dp2313
g70
I3
ssg71
Nsg64
(lp2314
sbasbasbasbag57
(g73
g59
NtRp2315
(dp2316
g62
(dp2317
sg71
g2246
sg64
(lp2318
g57
(g78
g59
NtRp2319
(dp2320
g62
(dp2321
g82
g83
ssg71
g2315
sg64
(lp2322
g1114
asbag57
(g78
g59
NtRp2323
(dp2324
g62
(dp2325
g89
g90
ssg71
g2315
sg64
(lp2326
S':'
asbag57
(g78
g59
NtRp2327
(dp2328
g62
(dp2329
sg71
g2315
sg64
(lp2330
g57
(g58
g59
NtRp2331
(dp2332
g62
(dp2333
g70
I4
ssg71
g2327
sg64
(lp2334
S"<Values at 0x2eef518: {'verbose': False, 'ip': '127.0.0.1', 'with_scheduler': False, 'ips': [], 'shutdown_timeout': 5, 'taskbar': False, 'port': 8000, 'maxthreads': None, 'softcron': False, 'server_name': 'urvashi-VPCEH35EN', 'bpython': False, 'nogui': False, 'pid_filename': 'httpserver.pid', 'extcron': False, 'runcron': False, 'run_system_tests': False, 'test': None, 'folder': '/home/urvashi/Desktop/WEB2PY/web2py', 'config': '', 'minthreads': None, 'winservice': '', 'shell': None, 'run': '', 'log_filename': 'httpserver.log', 'debuglevel': 30, 'args': [''], 'socket_timeout': 5, 'ssl_ca_certificate': None, 'scheduler': None, 'profiler_filename': None, 'ssl_private_key': '', 'scheduler_groups': None, 'password': '123', 'request_queue_size': 5, 'ssl_certificate': '', 'cronjob': False, 'numthreads': None, 'quiet': False, 'interfaces': None, 'import_models': False, 'timeout': 10, 'plain': False, 'nobanner': False}>"
p2335
asbasbasbag57
(g73
g59
NtRp2336
(dp2337
g62
(dp2338
sg71
g2246
sg64
(lp2339
g57
(g78
g59
NtRp2340
(dp2341
g62
(dp2342
g82
g83
ssg71
g2336
sg64
(lp2343
g1180
asbag57
(g78
g59
NtRp2344
(dp2345
g62
(dp2346
g89
g90
ssg71
g2336
sg64
(lp2347
S':'
asbag57
(g78
g59
NtRp2348
(dp2349
g62
(dp2350
sg71
g2336
sg64
(lp2351
g57
(g58
g59
NtRp2352
(dp2353
g62
(dp2354
g70
I4
ssg71
g2348
sg64
(lp2355
S'set([])'
p2356
asbasbasbag57
(g73
g59
NtRp2357
(dp2358
g62
(dp2359
sg71
g2246
sg64
(lp2360
g57
(g78
g59
NtRp2361
(dp2362
g62
(dp2363
g82
g83
ssg71
g2357
sg64
(lp2364
g1202
asbag57
(g78
g59
NtRp2365
(dp2366
g62
(dp2367
g89
g90
ssg71
g2357
sg64
(lp2368
S':'
asbag57
(g78
g59
NtRp2369
(dp2370
g62
(dp2371
sg71
g2357
sg64
(lp2372
g57
(g58
g59
NtRp2373
(dp2374
g62
(dp2375
g70
I4
ssg71
g2369
sg64
(lp2376
g100
asbasbasbag57
(g73
g59
NtRp2377
(dp2378
g62
(dp2379
sg71
g2246
sg64
(lp2380
g57
(g78
g59
NtRp2381
(dp2382
g62
(dp2383
g82
g83
ssg71
g2377
sg64
(lp2384
g1223
asbag57
(g78
g59
NtRp2385
(dp2386
g62
(dp2387
g89
g90
ssg71
g2377
sg64
(lp2388
S':'
asbag57
(g78
g59
NtRp2389
(dp2390
g62
(dp2391
sg71
g2377
sg64
(lp2392
g57
(g58
g59
NtRp2393
(dp2394
g62
(dp2395
g70
I4
ssg71
g2389
sg64
(lp2396
g1236
asbasbasbag57
(g73
g59
NtRp2397
(dp2398
g62
(dp2399
sg71
g2246
sg64
(lp2400
g57
(g78
g59
NtRp2401
(dp2402
g62
(dp2403
g82
g83
ssg71
g2397
sg64
(lp2404
g1463
asbag57
(g78
g59
NtRp2405
(dp2406
g62
(dp2407
g89
g90
ssg71
g2397
sg64
(lp2408
S':'
asbag57
(g78
g59
NtRp2409
(dp2410
g62
(dp2411
sg71
g2397
sg64
(lp2412
g57
(g58
g59
NtRp2413
(dp2414
g62
(dp2415
g70
I4
ssg71
g2409
sg64
(lp2416
g100
asbasbasbag57
(g73
g59
NtRp2417
(dp2418
g62
(dp2419
sg71
g2246
sg64
(lp2420
g57
(g78
g59
NtRp2421
(dp2422
g62
(dp2423
g82
g83
ssg71
g2417
sg64
(lp2424
g1484
asbag57
(g78
g59
NtRp2425
(dp2426
g62
(dp2427
g89
g90
ssg71
g2417
sg64
(lp2428
S':'
asbag57
(g78
g59
NtRp2429
(dp2430
g62
(dp2431
sg71
g2417
sg64
(lp2432
g57
(g58
g59
NtRp2433
(dp2434
g62
(dp2435
g70
I4
ssg71
g2429
sg64
(lp2436
g100
asbasbasbag57
(g73
g59
NtRp2437
(dp2438
g62
(dp2439
sg71
g2246
sg64
(lp2440
g57
(g78
g59
NtRp2441
(dp2442
g62
(dp2443
g82
g83
ssg71
g2437
sg64
(lp2444
g1505
asbag57
(g78
g59
NtRp2445
(dp2446
g62
(dp2447
g89
g90
ssg71
g2437
sg64
(lp2448
S':'
asbag57
(g78
g59
NtRp2449
(dp2450
g62
(dp2451
sg71
g2437
sg64
(lp2452
g57
(g58
g59
NtRp2453
(dp2454
g62
(dp2455
g70
I4
ssg71
g2449
sg64
(lp2456
g57
(g66
g59
NtRp2457
(dp2458
g62
(dp2459
g70
I3
ssg71
Nsg64
(lp2460
g57
(g73
g59
NtRp2461
(dp2462
g62
(dp2463
sg71
g2457
sg64
(lp2464
g57
(g78
g59
NtRp2465
(dp2466
g62
(dp2467
sg71
g2461
sg64
(lp2468
g57
(g58
g59
NtRp2469
(dp2470
g62
(dp2471
g70
I3
ssg71
g2465
sg64
(lp2472
g1534
asbasbasbag57
(g73
g59
NtRp2473
(dp2474
g62
(dp2475
sg71
g2457
sg64
(lp2476
g57
(g78
g59
NtRp2477
(dp2478
g62
(dp2479
sg71
g2473
sg64
(lp2480
g57
(g58
g59
NtRp2481
(dp2482
g62
(dp2483
g70
I3
ssg71
g2477
sg64
(lp2484
g1547
asbasbasbag57
(g73
g59
NtRp2485
(dp2486
g62
(dp2487
sg71
g2457
sg64
(lp2488
g57
(g78
g59
NtRp2489
(dp2490
g62
(dp2491
sg71
g2485
sg64
(lp2492
g57
(g58
g59
NtRp2493
(dp2494
g62
(dp2495
g70
I3
ssg71
g2489
sg64
(lp2496
g1560
asbasbasbag57
(g73
g59
NtRp2497
(dp2498
g62
(dp2499
sg71
g2457
sg64
(lp2500
g57
(g78
g59
NtRp2501
(dp2502
g62
(dp2503
sg71
g2497
sg64
(lp2504
g57
(g58
g59
NtRp2505
(dp2506
g62
(dp2507
g70
I3
ssg71
g2501
sg64
(lp2508
g1573
asbasbasbag57
(g73
g59
NtRp2509
(dp2510
g62
(dp2511
sg71
g2457
sg64
(lp2512
g57
(g78
g59
NtRp2513
(dp2514
g62
(dp2515
sg71
g2509
sg64
(lp2516
g57
(g58
g59
NtRp2517
(dp2518
g62
(dp2519
g70
I3
ssg71
g2513
sg64
(lp2520
g1586
asbasbasbasbasbasbasbag57
(g73
g59
NtRp2521
(dp2522
g62
(dp2523
sg71
g2246
sg64
(lp2524
g57
(g78
g59
NtRp2525
(dp2526
g62
(dp2527
g82
g83
ssg71
g2521
sg64
(lp2528
g1854
asbag57
(g78
g59
NtRp2529
(dp2530
g62
(dp2531
g89
g90
ssg71
g2521
sg64
(lp2532
S':'
asbag57
(g78
g59
NtRp2533
(dp2534
g62
(dp2535
sg71
g2521
sg64
(lp2536
g57
(g58
g59
NtRp2537
(dp2538
g62
(dp2539
g70
I4
ssg71
g2533
sg64
(lp2540
g57
(g66
g59
NtRp2541
(dp2542
g62
(dp2543
g70
I3
ssg71
Nsg64
(lp2544
g57
(g73
g59
NtRp2545
(dp2546
g62
(dp2547
sg71
g2541
sg64
(lp2548
g57
(g78
g59
NtRp2549
(dp2550
g62
(dp2551
sg71
g2545
sg64
(lp2552
g57
(g58
g59
NtRp2553
(dp2554
g62
(dp2555
g70
I3
ssg71
g2549
sg64
(lp2556
S'2'
asbasbasbag57
(g73
g59
NtRp2557
(dp2558
g62
(dp2559
sg71
g2541
sg64
(lp2560
g57
(g78
g59
NtRp2561
(dp2562
g62
(dp2563
sg71
g2557
sg64
(lp2564
g57
(g58
g59
NtRp2565
(dp2566
g62
(dp2567
g70
I3
ssg71
g2561
sg64
(lp2568
S'3'
asbasbasbag57
(g73
g59
NtRp2569
(dp2570
g62
(dp2571
sg71
g2541
sg64
(lp2572
g57
(g78
g59
NtRp2573
(dp2574
g62
(dp2575
sg71
g2569
sg64
(lp2576
g57
(g58
g59
NtRp2577
(dp2578
g62
(dp2579
g70
I3
ssg71
g2573
sg64
(lp2580
S'2'
asbasbasbag57
(g73
g59
NtRp2581
(dp2582
g62
(dp2583
sg71
g2541
sg64
(lp2584
g57
(g78
g59
NtRp2585
(dp2586
g62
(dp2587
sg71
g2581
sg64
(lp2588
g57
(g58
g59
NtRp2589
(dp2590
g62
(dp2591
g70
I3
ssg71
g2585
sg64
(lp2592
S'datetime.datetime(2012, 12, 17, 15, 3, 30)'
p2593
asbasbasbag57
(g73
g59
NtRp2594
(dp2595
g62
(dp2596
sg71
g2541
sg64
(lp2597
g57
(g78
g59
NtRp2598
(dp2599
g62
(dp2600
sg71
g2594
sg64
(lp2601
g57
(g58
g59
NtRp2602
(dp2603
g62
(dp2604
g70
I3
ssg71
g2598
sg64
(lp2605
g1932
asbasbasbasbasbasbasbasbasbasbasbag57
(g73
g59
NtRp2606
(dp2607
g62
(dp2608
sg71
g67
sg64
(lp2609
g57
(g78
g59
NtRp2610
(dp2611
g62
(dp2612
g82
g83
ssg71
g2606
sg64
(lp2613
S'is_https'
p2614
asbag57
(g78
g59
NtRp2615
(dp2616
g62
(dp2617
g89
g90
ssg71
g2606
sg64
(lp2618
S':'
asbag57
(g78
g59
NtRp2619
(dp2620
g62
(dp2621
sg71
g2606
sg64
(lp2622
g57
(g58
g59
NtRp2623
(dp2624
g62
(dp2625
g70
I5
ssg71
g2619
sg64
(lp2626
g100
asbasbasbag57
(g73
g59
NtRp2627
(dp2628
g62
(dp2629
sg71
g67
sg64
(lp2630
g57
(g78
g59
NtRp2631
(dp2632
g62
(dp2633
g82
g83
ssg71
g2627
sg64
(lp2634
S'is_local'
p2635
asbag57
(g78
g59
NtRp2636
(dp2637
g62
(dp2638
g89
g90
ssg71
g2627
sg64
(lp2639
S':'
asbag57
(g78
g59
NtRp2640
(dp2641
g62
(dp2642
sg71
g2627
sg64
(lp2643
g57
(g58
g59
NtRp2644
(dp2645
g62
(dp2646
g70
I5
ssg71
g2640
sg64
(lp2647
g2041
asbasbasbag57
(g73
g59
NtRp2648
(dp2649
g62
(dp2650
sg71
g67
sg64
(lp2651
g57
(g78
g59
NtRp2652
(dp2653
g62
(dp2654
g82
g83
ssg71
g2648
sg64
(lp2655
S'is_restful'
p2656
asbag57
(g78
g59
NtRp2657
(dp2658
g62
(dp2659
g89
g90
ssg71
g2648
sg64
(lp2660
S':'
asbag57
(g78
g59
NtRp2661
(dp2662
g62
(dp2663
sg71
g2648
sg64
(lp2664
g57
(g58
g59
NtRp2665
(dp2666
g62
(dp2667
g70
I5
ssg71
g2661
sg64
(lp2668
g100
asbasbasbag57
(g73
g59
NtRp2669
(dp2670
g62
(dp2671
sg71
g67
sg64
(lp2672
g57
(g78
g59
NtRp2673
(dp2674
g62
(dp2675
g82
g83
ssg71
g2669
sg64
(lp2676
S'now'
p2677
asbag57
(g78
g59
NtRp2678
(dp2679
g62
(dp2680
g89
g90
ssg71
g2669
sg64
(lp2681
S':'
asbag57
(g78
g59
NtRp2682
(dp2683
g62
(dp2684
sg71
g2669
sg64
(lp2685
g57
(g58
g59
NtRp2686
(dp2687
g62
(dp2688
g70
I5
ssg71
g2682
sg64
(lp2689
S'datetime.datetime(2013, 8, 26, 13, 19, 53, 268124)'
p2690
asbasbasbag57
(g73
g59
NtRp2691
(dp2692
g62
(dp2693
sg71
g67
sg64
(lp2694
g57
(g78
g59
NtRp2695
(dp2696
g62
(dp2697
g82
g83
ssg71
g2691
sg64
(lp2698
S'post_vars'
p2699
asbag57
(g78
g59
NtRp2700
(dp2701
g62
(dp2702
g89
g90
ssg71
g2691
sg64
(lp2703
S':'
asbag57
(g78
g59
NtRp2704
(dp2705
g62
(dp2706
sg71
g2691
sg64
(lp2707
g57
(g58
g59
NtRp2708
(dp2709
g62
(dp2710
g70
I5
ssg71
g2704
sg64
(lp2711
g57
(g66
g59
NtRp2712
(dp2713
g62
(dp2714
g70
I4
ssg71
Nsg64
(lp2715
g57
(g73
g59
NtRp2716
(dp2717
g62
(dp2718
sg71
g2712
sg64
(lp2719
g57
(g78
g59
NtRp2720
(dp2721
g62
(dp2722
g82
g83
ssg71
g2716
sg64
(lp2723
S'cat_name'
p2724
asbag57
(g78
g59
NtRp2725
(dp2726
g62
(dp2727
g89
g90
ssg71
g2716
sg64
(lp2728
S':'
asbag57
(g78
g59
NtRp2729
(dp2730
g62
(dp2731
sg71
g2716
sg64
(lp2732
g57
(g58
g59
NtRp2733
(dp2734
g62
(dp2735
g70
I4
ssg71
g2729
sg64
(lp2736
S'Sports'
p2737
asbasbasbasbasbasbasbag57
(g73
g59
NtRp2738
(dp2739
g62
(dp2740
sg71
g67
sg64
(lp2741
g57
(g78
g59
NtRp2742
(dp2743
g62
(dp2744
g82
g83
ssg71
g2738
sg64
(lp2745
S'raw_args'
p2746
asbag57
(g78
g59
NtRp2747
(dp2748
g62
(dp2749
g89
g90
ssg71
g2738
sg64
(lp2750
S':'
asbag57
(g78
g59
NtRp2751
(dp2752
g62
(dp2753
sg71
g2738
sg64
(lp2754
g57
(g58
g59
NtRp2755
(dp2756
g62
(dp2757
g70
I5
ssg71
g2751
sg64
(lp2758
S''
asbasbasbag57
(g73
g59
NtRp2759
(dp2760
g62
(dp2761
sg71
g67
sg64
(lp2762
g57
(g78
g59
NtRp2763
(dp2764
g62
(dp2765
g82
g83
ssg71
g2759
sg64
(lp2766
S'raw_extension'
p2767
asbag57
(g78
g59
NtRp2768
(dp2769
g62
(dp2770
g89
g90
ssg71
g2759
sg64
(lp2771
S':'
asbag57
(g78
g59
NtRp2772
(dp2773
g62
(dp2774
sg71
g2759
sg64
(lp2775
g57
(g58
g59
NtRp2776
(dp2777
g62
(dp2778
g70
I5
ssg71
g2772
sg64
(lp2779
g2155
asbasbasbag57
(g73
g59
NtRp2780
(dp2781
g62
(dp2782
sg71
g67
sg64
(lp2783
g57
(g78
g59
NtRp2784
(dp2785
g62
(dp2786
g82
g83
ssg71
g2780
sg64
(lp2787
S'url'
p2788
asbag57
(g78
g59
NtRp2789
(dp2790
g62
(dp2791
g89
g90
ssg71
g2780
sg64
(lp2792
S':'
asbag57
(g78
g59
NtRp2793
(dp2794
g62
(dp2795
sg71
g2780
sg64
(lp2796
g57
(g58
g59
NtRp2797
(dp2798
g62
(dp2799
g70
I5
ssg71
g2793
sg64
(lp2800
g1608
asbasbasbag57
(g73
g59
NtRp2801
(dp2802
g62
(dp2803
sg71
g67
sg64
(lp2804
g57
(g78
g59
NtRp2805
(dp2806
g62
(dp2807
g82
g83
ssg71
g2801
sg64
(lp2808
S'utcnow'
p2809
asbag57
(g78
g59
NtRp2810
(dp2811
g62
(dp2812
g89
g90
ssg71
g2801
sg64
(lp2813
S':'
asbag57
(g78
g59
NtRp2814
(dp2815
g62
(dp2816
sg71
g2801
sg64
(lp2817
g57
(g58
g59
NtRp2818
(dp2819
g62
(dp2820
g70
I5
ssg71
g2814
sg64
(lp2821
S'datetime.datetime(2013, 8, 26, 7, 49, 53, 268153)'
p2822
asbasbasbag57
(g73
g59
NtRp2823
(dp2824
g62
(dp2825
sg71
g67
sg64
(lp2826
g57
(g78
g59
NtRp2827
(dp2828
g62
(dp2829
g82
g83
ssg71
g2823
sg64
(lp2830
S'uuid'
p2831
asbag57
(g78
g59
NtRp2832
(dp2833
g62
(dp2834
g89
g90
ssg71
g2823
sg64
(lp2835
S':'
asbag57
(g78
g59
NtRp2836
(dp2837
g62
(dp2838
sg71
g2823
sg64
(lp2839
g57
(g58
g59
NtRp2840
(dp2841
g62
(dp2842
g70
I5
ssg71
g2836
sg64
(lp2843
S'SSAD/127.0.0.1.2013-08-26.13-19-53.ec11348f-aa05-4967-a1f8-7bbd7e9ab612'
p2844
asbasbasbag57
(g73
g59
NtRp2845
(dp2846
g62
(dp2847
sg71
g67
sg64
(lp2848
g57
(g78
g59
NtRp2849
(dp2850
g62
(dp2851
g82
g83
ssg71
g2845
sg64
(lp2852
S'vars'
p2853
asbag57
(g78
g59
NtRp2854
(dp2855
g62
(dp2856
g89
g90
ssg71
g2845
sg64
(lp2857
S':'
asbag57
(g78
g59
NtRp2858
(dp2859
g62
(dp2860
sg71
g2845
sg64
(lp2861
g57
(g58
g59
NtRp2862
(dp2863
g62
(dp2864
g70
I5
ssg71
g2858
sg64
(lp2865
g57
(g66
g59
NtRp2866
(dp2867
g62
(dp2868
g70
I4
ssg71
Nsg64
(lp2869
g57
(g73
g59
NtRp2870
(dp2871
g62
(dp2872
sg71
g2866
sg64
(lp2873
g57
(g78
g59
NtRp2874
(dp2875
g62
(dp2876
g82
g83
ssg71
g2870
sg64
(lp2877
g2724
asbag57
(g78
g59
NtRp2878
(dp2879
g62
(dp2880
g89
g90
ssg71
g2870
sg64
(lp2881
S':'
asbag57
(g78
g59
NtRp2882
(dp2883
g62
(dp2884
sg71
g2870
sg64
(lp2885
g57
(g58
g59
NtRp2886
(dp2887
g62
(dp2888
g70
I4
ssg71
g2882
sg64
(lp2889
g2737
asbasbasbasbasbasbasbag57
(g73
g59
NtRp2890
(dp2891
g62
(dp2892
sg71
g67
sg64
(lp2893
g57
(g78
g59
NtRp2894
(dp2895
g62
(dp2896
g82
g83
ssg71
g2890
sg64
(lp2897
S'wsgi'
p2898
asbag57
(g78
g59
NtRp2899
(dp2900
g62
(dp2901
g89
g90
ssg71
g2890
sg64
(lp2902
S':'
asbag57
(g78
g59
NtRp2903
(dp2904
g62
(dp2905
sg71
g2890
sg64
(lp2906
g57
(g58
g59
NtRp2907
(dp2908
g62
(dp2909
g70
I5
ssg71
g2903
sg64
(lp2910
g57
(g66
g59
NtRp2911
(dp2912
g62
(dp2913
g70
I4
ssg71
Nsg64
(lp2914
g57
(g73
g59
NtRp2915
(dp2916
g62
(dp2917
sg71
g2911
sg64
(lp2918
g57
(g78
g59
NtRp2919
(dp2920
g62
(dp2921
g82
g83
ssg71
g2915
sg64
(lp2922
S'environ'
p2923
asbag57
(g78
g59
NtRp2924
(dp2925
g62
(dp2926
g89
g90
ssg71
g2915
sg64
(lp2927
S':'
asbag57
(g78
g59
NtRp2928
(dp2929
g62
(dp2930
sg71
g2915
sg64
(lp2931
g57
(g58
g59
NtRp2932
(dp2933
g62
(dp2934
g70
I4
ssg71
g2928
sg64
(lp2935
g57
(g66
g59
NtRp2936
(dp2937
g62
(dp2938
g70
I3
ssg71
Nsg64
(lp2939
g57
(g73
g59
NtRp2940
(dp2941
g62
(dp2942
sg71
g2936
sg64
(lp2943
g57
(g78
g59
NtRp2944
(dp2945
g62
(dp2946
g82
g83
ssg71
g2940
sg64
(lp2947
S'CONTENT_LENGTH'
p2948
asbag57
(g78
g59
NtRp2949
(dp2950
g62
(dp2951
g89
g90
ssg71
g2940
sg64
(lp2952
S':'
asbag57
(g78
g59
NtRp2953
(dp2954
g62
(dp2955
sg71
g2940
sg64
(lp2956
g57
(g58
g59
NtRp2957
(dp2958
g62
(dp2959
g70
I3
ssg71
g2953
sg64
(lp2960
g1149
asbasbasbag57
(g73
g59
NtRp2961
(dp2962
g62
(dp2963
sg71
g2936
sg64
(lp2964
g57
(g78
g59
NtRp2965
(dp2966
g62
(dp2967
g82
g83
ssg71
g2961
sg64
(lp2968
S'CONTENT_TYPE'
p2969
asbag57
(g78
g59
NtRp2970
(dp2971
g62
(dp2972
g89
g90
ssg71
g2961
sg64
(lp2973
S':'
asbag57
(g78
g59
NtRp2974
(dp2975
g62
(dp2976
sg71
g2961
sg64
(lp2977
g57
(g58
g59
NtRp2978
(dp2979
g62
(dp2980
g70
I3
ssg71
g2974
sg64
(lp2981
g1171
asbasbasbag57
(g73
g59
NtRp2982
(dp2983
g62
(dp2984
sg71
g2936
sg64
(lp2985
g57
(g78
g59
NtRp2986
(dp2987
g62
(dp2988
g82
g83
ssg71
g2982
sg64
(lp2989
S'HTTP_ACCEPT'
p2990
asbag57
(g78
g59
NtRp2991
(dp2992
g62
(dp2993
g89
g90
ssg71
g2982
sg64
(lp2994
S':'
asbag57
(g78
g59
NtRp2995
(dp2996
g62
(dp2997
sg71
g2982
sg64
(lp2998
g57
(g58
g59
NtRp2999
(dp3000
g62
(dp3001
g70
I3
ssg71
g2995
sg64
(lp3002
g1258
asbasbasbag57
(g73
g59
NtRp3003
(dp3004
g62
(dp3005
sg71
g2936
sg64
(lp3006
g57
(g78
g59
NtRp3007
(dp3008
g62
(dp3009
g82
g83
ssg71
g3003
sg64
(lp3010
S'HTTP_ACCEPT_ENCODING'
p3011
asbag57
(g78
g59
NtRp3012
(dp3013
g62
(dp3014
g89
g90
ssg71
g3003
sg64
(lp3015
S':'
asbag57
(g78
g59
NtRp3016
(dp3017
g62
(dp3018
sg71
g3003
sg64
(lp3019
g57
(g58
g59
NtRp3020
(dp3021
g62
(dp3022
g70
I3
ssg71
g3016
sg64
(lp3023
g1280
asbasbasbag57
(g73
g59
NtRp3024
(dp3025
g62
(dp3026
sg71
g2936
sg64
(lp3027
g57
(g78
g59
NtRp3028
(dp3029
g62
(dp3030
g82
g83
ssg71
g3024
sg64
(lp3031
S'HTTP_ACCEPT_LANGUAGE'
p3032
asbag57
(g78
g59
NtRp3033
(dp3034
g62
(dp3035
g89
g90
ssg71
g3024
sg64
(lp3036
S':'
asbag57
(g78
g59
NtRp3037
(dp3038
g62
(dp3039
sg71
g3024
sg64
(lp3040
g57
(g58
g59
NtRp3041
(dp3042
g62
(dp3043
g70
I3
ssg71
g3037
sg64
(lp3044
g1302
asbasbasbag57
(g73
g59
NtRp3045
(dp3046
g62
(dp3047
sg71
g2936
sg64
(lp3048
g57
(g78
g59
NtRp3049
(dp3050
g62
(dp3051
g82
g83
ssg71
g3045
sg64
(lp3052
S'HTTP_CONNECTION'
p3053
asbag57
(g78
g59
NtRp3054
(dp3055
g62
(dp3056
g89
g90
ssg71
g3045
sg64
(lp3057
S':'
asbag57
(g78
g59
NtRp3058
(dp3059
g62
(dp3060
sg71
g3045
sg64
(lp3061
g57
(g58
g59
NtRp3062
(dp3063
g62
(dp3064
g70
I3
ssg71
g3058
sg64
(lp3065
g1324
asbasbasbag57
(g73
g59
NtRp3066
(dp3067
g62
(dp3068
sg71
g2936
sg64
(lp3069
g57
(g78
g59
NtRp3070
(dp3071
g62
(dp3072
g82
g83
ssg71
g3066
sg64
(lp3073
S'HTTP_CONTENT_LENGTH'
p3074
asbag57
(g78
g59
NtRp3075
(dp3076
g62
(dp3077
g89
g90
ssg71
g3066
sg64
(lp3078
S':'
asbag57
(g78
g59
NtRp3079
(dp3080
g62
(dp3081
sg71
g3066
sg64
(lp3082
g57
(g58
g59
NtRp3083
(dp3084
g62
(dp3085
g70
I3
ssg71
g3079
sg64
(lp3086
g1149
asbasbasbag57
(g73
g59
NtRp3087
(dp3088
g62
(dp3089
sg71
g2936
sg64
(lp3090
g57
(g78
g59
NtRp3091
(dp3092
g62
(dp3093
g82
g83
ssg71
g3087
sg64
(lp3094
S'HTTP_CONTENT_TYPE'
p3095
asbag57
(g78
g59
NtRp3096
(dp3097
g62
(dp3098
g89
g90
ssg71
g3087
sg64
(lp3099
S':'
asbag57
(g78
g59
NtRp3100
(dp3101
g62
(dp3102
sg71
g3087
sg64
(lp3103
g57
(g58
g59
NtRp3104
(dp3105
g62
(dp3106
g70
I3
ssg71
g3100
sg64
(lp3107
g1171
asbasbasbag57
(g73
g59
NtRp3108
(dp3109
g62
(dp3110
sg71
g2936
sg64
(lp3111
g57
(g78
g59
NtRp3112
(dp3113
g62
(dp3114
g82
g83
ssg71
g3108
sg64
(lp3115
S'HTTP_COOKIE'
p3116
asbag57
(g78
g59
NtRp3117
(dp3118
g62
(dp3119
g89
g90
ssg71
g3108
sg64
(lp3120
S':'
asbag57
(g78
g59
NtRp3121
(dp3122
g62
(dp3123
sg71
g3108
sg64
(lp3124
g57
(g58
g59
NtRp3125
(dp3126
g62
(dp3127
g70
I3
ssg71
g3121
sg64
(lp3128
g1388
asbasbasbag57
(g73
g59
NtRp3129
(dp3130
g62
(dp3131
sg71
g2936
sg64
(lp3132
g57
(g78
g59
NtRp3133
(dp3134
g62
(dp3135
g82
g83
ssg71
g3129
sg64
(lp3136
S'HTTP_HOST'
p3137
asbag57
(g78
g59
NtRp3138
(dp3139
g62
(dp3140
g89
g90
ssg71
g3129
sg64
(lp3141
S':'
asbag57
(g78
g59
NtRp3142
(dp3143
g62
(dp3144
sg71
g3129
sg64
(lp3145
g57
(g58
g59
NtRp3146
(dp3147
g62
(dp3148
g70
I3
ssg71
g3142
sg64
(lp3149
g1410
asbasbasbag57
(g73
g59
NtRp3150
(dp3151
g62
(dp3152
sg71
g2936
sg64
(lp3153
g57
(g78
g59
NtRp3154
(dp3155
g62
(dp3156
g82
g83
ssg71
g3150
sg64
(lp3157
S'HTTP_REFERER'
p3158
asbag57
(g78
g59
NtRp3159
(dp3160
g62
(dp3161
g89
g90
ssg71
g3150
sg64
(lp3162
S':'
asbag57
(g78
g59
NtRp3163
(dp3164
g62
(dp3165
sg71
g3150
sg64
(lp3166
g57
(g58
g59
NtRp3167
(dp3168
g62
(dp3169
g70
I3
ssg71
g3163
sg64
(lp3170
g1432
asbasbasbag57
(g73
g59
NtRp3171
(dp3172
g62
(dp3173
sg71
g2936
sg64
(lp3174
g57
(g78
g59
NtRp3175
(dp3176
g62
(dp3177
g82
g83
ssg71
g3171
sg64
(lp3178
S'HTTP_USER_AGENT'
p3179
asbag57
(g78
g59
NtRp3180
(dp3181
g62
(dp3182
g89
g90
ssg71
g3171
sg64
(lp3183
S':'
asbag57
(g78
g59
NtRp3184
(dp3185
g62
(dp3186
sg71
g3171
sg64
(lp3187
g57
(g58
g59
NtRp3188
(dp3189
g62
(dp3190
g70
I3
ssg71
g3184
sg64
(lp3191
g1454
asbasbasbag57
(g73
g59
NtRp3192
(dp3193
g62
(dp3194
sg71
g2936
sg64
(lp3195
g57
(g78
g59
NtRp3196
(dp3197
g62
(dp3198
g82
g83
ssg71
g3192
sg64
(lp3199
S'PATH_INFO'
p3200
asbag57
(g78
g59
NtRp3201
(dp3202
g62
(dp3203
g89
g90
ssg71
g3192
sg64
(lp3204
S':'
asbag57
(g78
g59
NtRp3205
(dp3206
g62
(dp3207
sg71
g3192
sg64
(lp3208
g57
(g58
g59
NtRp3209
(dp3210
g62
(dp3211
g70
I3
ssg71
g3205
sg64
(lp3212
g1608
asbasbasbag57
(g73
g59
NtRp3213
(dp3214
g62
(dp3215
sg71
g2936
sg64
(lp3216
g57
(g78
g59
NtRp3217
(dp3218
g62
(dp3219
g82
g83
ssg71
g3213
sg64
(lp3220
S'QUERY_STRING'
p3221
asbag57
(g78
g59
NtRp3222
(dp3223
g62
(dp3224
g89
g90
ssg71
g3213
sg64
(lp3225
S':'
asbag57
(g78
g59
NtRp3226
(dp3227
g62
(dp3228
sg71
g3213
sg64
(lp3229
g57
(g58
g59
NtRp3230
(dp3231
g62
(dp3232
g70
I3
ssg71
g3226
sg64
(lp3233
S''
asbasbasbag57
(g73
g59
NtRp3234
(dp3235
g62
(dp3236
sg71
g2936
sg64
(lp3237
g57
(g78
g59
NtRp3238
(dp3239
g62
(dp3240
g82
g83
ssg71
g3234
sg64
(lp3241
S'REMOTE_ADDR'
p3242
asbag57
(g78
g59
NtRp3243
(dp3244
g62
(dp3245
g89
g90
ssg71
g3234
sg64
(lp3246
S':'
asbag57
(g78
g59
NtRp3247
(dp3248
g62
(dp3249
sg71
g3234
sg64
(lp3250
g57
(g58
g59
NtRp3251
(dp3252
g62
(dp3253
g70
I3
ssg71
g3247
sg64
(lp3254
g212
asbasbasbag57
(g73
g59
NtRp3255
(dp3256
g62
(dp3257
sg71
g2936
sg64
(lp3258
g57
(g78
g59
NtRp3259
(dp3260
g62
(dp3261
g82
g83
ssg71
g3255
sg64
(lp3262
S'REMOTE_PORT'
p3263
asbag57
(g78
g59
NtRp3264
(dp3265
g62
(dp3266
g89
g90
ssg71
g3255
sg64
(lp3267
S':'
asbag57
(g78
g59
NtRp3268
(dp3269
g62
(dp3270
sg71
g3255
sg64
(lp3271
g57
(g58
g59
NtRp3272
(dp3273
g62
(dp3274
g70
I3
ssg71
g3268
sg64
(lp3275
g1672
asbasbasbag57
(g73
g59
NtRp3276
(dp3277
g62
(dp3278
sg71
g2936
sg64
(lp3279
g57
(g78
g59
NtRp3280
(dp3281
g62
(dp3282
g82
g83
ssg71
g3276
sg64
(lp3283
S'REQUEST_METHOD'
p3284
asbag57
(g78
g59
NtRp3285
(dp3286
g62
(dp3287
g89
g90
ssg71
g3276
sg64
(lp3288
S':'
asbag57
(g78
g59
NtRp3289
(dp3290
g62
(dp3291
sg71
g3276
sg64
(lp3292
g57
(g58
g59
NtRp3293
(dp3294
g62
(dp3295
g70
I3
ssg71
g3289
sg64
(lp3296
g1694
asbasbasbag57
(g73
g59
NtRp3297
(dp3298
g62
(dp3299
sg71
g2936
sg64
(lp3300
g57
(g78
g59
NtRp3301
(dp3302
g62
(dp3303
g82
g83
ssg71
g3297
sg64
(lp3304
S'REQUEST_URI'
p3305
asbag57
(g78
g59
NtRp3306
(dp3307
g62
(dp3308
g89
g90
ssg71
g3297
sg64
(lp3309
S':'
asbag57
(g78
g59
NtRp3310
(dp3311
g62
(dp3312
sg71
g3297
sg64
(lp3313
g57
(g58
g59
NtRp3314
(dp3315
g62
(dp3316
g70
I3
ssg71
g3310
sg64
(lp3317
g1608
asbasbasbag57
(g73
g59
NtRp3318
(dp3319
g62
(dp3320
sg71
g2936
sg64
(lp3321
g57
(g78
g59
NtRp3322
(dp3323
g62
(dp3324
g82
g83
ssg71
g3318
sg64
(lp3325
S'SCRIPT_NAME'
p3326
asbag57
(g78
g59
NtRp3327
(dp3328
g62
(dp3329
g89
g90
ssg71
g3318
sg64
(lp3330
S':'
asbag57
(g78
g59
NtRp3331
(dp3332
g62
(dp3333
sg71
g3318
sg64
(lp3334
g57
(g58
g59
NtRp3335
(dp3336
g62
(dp3337
g70
I3
ssg71
g3331
sg64
(lp3338
S''
asbasbasbag57
(g73
g59
NtRp3339
(dp3340
g62
(dp3341
sg71
g2936
sg64
(lp3342
g57
(g78
g59
NtRp3343
(dp3344
g62
(dp3345
g82
g83
ssg71
g3339
sg64
(lp3346
S'SERVER_NAME'
p3347
asbag57
(g78
g59
NtRp3348
(dp3349
g62
(dp3350
g89
g90
ssg71
g3339
sg64
(lp3351
S':'
asbag57
(g78
g59
NtRp3352
(dp3353
g62
(dp3354
sg71
g3339
sg64
(lp3355
g57
(g58
g59
NtRp3356
(dp3357
g62
(dp3358
g70
I3
ssg71
g3352
sg64
(lp3359
g1758
asbasbasbag57
(g73
g59
NtRp3360
(dp3361
g62
(dp3362
sg71
g2936
sg64
(lp3363
g57
(g78
g59
NtRp3364
(dp3365
g62
(dp3366
g82
g83
ssg71
g3360
sg64
(lp3367
S'SERVER_PORT'
p3368
asbag57
(g78
g59
NtRp3369
(dp3370
g62
(dp3371
g89
g90
ssg71
g3360
sg64
(lp3372
S':'
asbag57
(g78
g59
NtRp3373
(dp3374
g62
(dp3375
sg71
g3360
sg64
(lp3376
g57
(g58
g59
NtRp3377
(dp3378
g62
(dp3379
g70
I3
ssg71
g3373
sg64
(lp3380
g1780
asbasbasbag57
(g73
g59
NtRp3381
(dp3382
g62
(dp3383
sg71
g2936
sg64
(lp3384
g57
(g78
g59
NtRp3385
(dp3386
g62
(dp3387
g82
g83
ssg71
g3381
sg64
(lp3388
S'SERVER_PROTOCOL'
p3389
asbag57
(g78
g59
NtRp3390
(dp3391
g62
(dp3392
g89
g90
ssg71
g3381
sg64
(lp3393
S':'
asbag57
(g78
g59
NtRp3394
(dp3395
g62
(dp3396
sg71
g3381
sg64
(lp3397
g57
(g58
g59
NtRp3398
(dp3399
g62
(dp3400
g70
I3
ssg71
g3394
sg64
(lp3401
g1802
asbasbasbag57
(g73
g59
NtRp3402
(dp3403
g62
(dp3404
sg71
g2936
sg64
(lp3405
g57
(g78
g59
NtRp3406
(dp3407
g62
(dp3408
g82
g83
ssg71
g3402
sg64
(lp3409
S'SERVER_SOFTWARE'
p3410
asbag57
(g78
g59
NtRp3411
(dp3412
g62
(dp3413
g89
g90
ssg71
g3402
sg64
(lp3414
S':'
asbag57
(g78
g59
NtRp3415
(dp3416
g62
(dp3417
sg71
g3402
sg64
(lp3418
g57
(g58
g59
NtRp3419
(dp3420
g62
(dp3421
g70
I3
ssg71
g3415
sg64
(lp3422
g1824
asbasbasbag57
(g73
g59
NtRp3423
(dp3424
g62
(dp3425
sg71
g2936
sg64
(lp3426
g57
(g78
g59
NtRp3427
(dp3428
g62
(dp3429
g82
g83
ssg71
g3423
sg64
(lp3430
S'wsgi.errors'
p3431
asbag57
(g78
g59
NtRp3432
(dp3433
g62
(dp3434
g89
g90
ssg71
g3423
sg64
(lp3435
S':'
asbag57
(g78
g59
NtRp3436
(dp3437
g62
(dp3438
sg71
g3423
sg64
(lp3439
g57
(g58
g59
NtRp3440
(dp3441
g62
(dp3442
g70
I3
ssg71
g3436
sg64
(lp3443
S"<open file '<stderr>', mode 'w' at 0x7f345f57e270>"
p3444
asbasbasbag57
(g73
g59
NtRp3445
(dp3446
g62
(dp3447
sg71
g2936
sg64
(lp3448
g57
(g78
g59
NtRp3449
(dp3450
g62
(dp3451
g82
g83
ssg71
g3445
sg64
(lp3452
S'wsgi.file_wrapper'
p3453
asbag57
(g78
g59
NtRp3454
(dp3455
g62
(dp3456
g89
g90
ssg71
g3445
sg64
(lp3457
S':'
asbag57
(g78
g59
NtRp3458
(dp3459
g62
(dp3460
sg71
g3445
sg64
(lp3461
g57
(g58
g59
NtRp3462
(dp3463
g62
(dp3464
g70
I3
ssg71
g3458
sg64
(lp3465
S'<class wsgiref.util.FileWrapper at 0x2ac28d8>'
p3466
asbasbasbag57
(g73
g59
NtRp3467
(dp3468
g62
(dp3469
sg71
g2936
sg64
(lp3470
g57
(g78
g59
NtRp3471
(dp3472
g62
(dp3473
g82
g83
ssg71
g3467
sg64
(lp3474
S'wsgi.input'
p3475
asbag57
(g78
g59
NtRp3476
(dp3477
g62
(dp3478
g89
g90
ssg71
g3467
sg64
(lp3479
S':'
asbag57
(g78
g59
NtRp3480
(dp3481
g62
(dp3482
sg71
g3467
sg64
(lp3483
g57
(g58
g59
NtRp3484
(dp3485
g62
(dp3486
g70
I3
ssg71
g3480
sg64
(lp3487
S"<open file '<fdopen>', mode 'w+b' at 0x7f3438061c90>"
p3488
asbasbasbag57
(g73
g59
NtRp3489
(dp3490
g62
(dp3491
sg71
g2936
sg64
(lp3492
g57
(g78
g59
NtRp3493
(dp3494
g62
(dp3495
g82
g83
ssg71
g3489
sg64
(lp3496
S'wsgi.multiprocess'
p3497
asbag57
(g78
g59
NtRp3498
(dp3499
g62
(dp3500
g89
g90
ssg71
g3489
sg64
(lp3501
S':'
asbag57
(g78
g59
NtRp3502
(dp3503
g62
(dp3504
sg71
g3489
sg64
(lp3505
g57
(g58
g59
NtRp3506
(dp3507
g62
(dp3508
g70
I3
ssg71
g3502
sg64
(lp3509
g100
asbasbasbag57
(g73
g59
NtRp3510
(dp3511
g62
(dp3512
sg71
g2936
sg64
(lp3513
g57
(g78
g59
NtRp3514
(dp3515
g62
(dp3516
g82
g83
ssg71
g3510
sg64
(lp3517
S'wsgi.multithread'
p3518
asbag57
(g78
g59
NtRp3519
(dp3520
g62
(dp3521
g89
g90
ssg71
g3510
sg64
(lp3522
S':'
asbag57
(g78
g59
NtRp3523
(dp3524
g62
(dp3525
sg71
g3510
sg64
(lp3526
g57
(g58
g59
NtRp3527
(dp3528
g62
(dp3529
g70
I3
ssg71
g3523
sg64
(lp3530
g2041
asbasbasbag57
(g73
g59
NtRp3531
(dp3532
g62
(dp3533
sg71
g2936
sg64
(lp3534
g57
(g78
g59
NtRp3535
(dp3536
g62
(dp3537
g82
g83
ssg71
g3531
sg64
(lp3538
S'wsgi.run_once'
p3539
asbag57
(g78
g59
NtRp3540
(dp3541
g62
(dp3542
g89
g90
ssg71
g3531
sg64
(lp3543
S':'
asbag57
(g78
g59
NtRp3544
(dp3545
g62
(dp3546
sg71
g3531
sg64
(lp3547
g57
(g58
g59
NtRp3548
(dp3549
g62
(dp3550
g70
I3
ssg71
g3544
sg64
(lp3551
g100
asbasbasbag57
(g73
g59
NtRp3552
(dp3553
g62
(dp3554
sg71
g2936
sg64
(lp3555
g57
(g78
g59
NtRp3556
(dp3557
g62
(dp3558
g82
g83
ssg71
g3552
sg64
(lp3559
S'wsgi.url_scheme'
p3560
asbag57
(g78
g59
NtRp3561
(dp3562
g62
(dp3563
g89
g90
ssg71
g3552
sg64
(lp3564
S':'
asbag57
(g78
g59
NtRp3565
(dp3566
g62
(dp3567
sg71
g3552
sg64
(lp3568
g57
(g58
g59
NtRp3569
(dp3570
g62
(dp3571
g70
I3
ssg71
g3565
sg64
(lp3572
g2084
asbasbasbag57
(g73
g59
NtRp3573
(dp3574
g62
(dp3575
sg71
g2936
sg64
(lp3576
g57
(g78
g59
NtRp3577
(dp3578
g62
(dp3579
g82
g83
ssg71
g3573
sg64
(lp3580
S'wsgi.version'
p3581
asbag57
(g78
g59
NtRp3582
(dp3583
g62
(dp3584
g89
g90
ssg71
g3573
sg64
(lp3585
S':'
asbag57
(g78
g59
NtRp3586
(dp3587
g62
(dp3588
sg71
g3573
sg64
(lp3589
g57
(g58
g59
NtRp3590
(dp3591
g62
(dp3592
g70
I3
ssg71
g3586
sg64
(lp3593
S'1'
asbasbasbasbasbasbasbasbasbasbasbasbasbsS'frames'
p3594
(lp3595
(dp3596
S'file'
p3597
S'/home/urvashi/Desktop/WEB2PY/web2py/gluon/restricted.py'
p3598
sS'dump'
p3599
(dp3600
S'environment'
p3601
S"{'A': <class 'gluon.html.A'>, 'Auth': <class 'gluon.tools.Auth'>, 'B': <class 'gluon.html.B'>, 'BEAUTIFY': <class 'gluon.html.BEAUTIFY'>, 'BODY': <class 'gluon.html.BODY'>, 'BR': <class 'gluon.html.BR'>, 'BUTTON': <class 'gluon.html.BUTTON'>, 'CAT': <class 'gluon.html.CAT'>, 'CENTER': <class 'gluon.html.CENTER'>, 'CLEANUP': <class 'gluon.validators.CLEANUP'>, ...}"
p3602
sS'ccode'
p3603
S'<code object <module> at 0x7f34300a7330, file "/...plications/SSAD/controllers/default.py", line 12>'
p3604
ssS'lnum'
p3605
I212
sS'lines'
p3606
(dp3607
I207
S'    try:'
p3608
sI208
S'        if isinstance(code, types.CodeType):'
p3609
sI209
S'            ccode = code'
p3610
sI210
S'        else:'
p3611
sI211
S'            ccode = compile2(code, layer)'
p3612
sI212
S'        exec ccode in environment'
p3613
sI213
S'    except HTTP:'
p3614
sI214
S'        raise'
p3615
sI215
S'    except RestrictedError:'
p3616
sI216
S'        # do not encapsulate (obfuscate) the original RestrictedError'
p3617
ssS'call'
p3618
S"(code='# -*- coding: utf-8 -*-\\n# this file is released ...\\nresponse._vars=response._caller(add_category_2)\\n', environment={'A': <class 'gluon.html.A'>, 'Auth': <class 'gluon.tools.Auth'>, 'B': <class 'gluon.html.B'>, 'BEAUTIFY': <class 'gluon.html.BEAUTIFY'>, 'BODY': <class 'gluon.html.BODY'>, 'BR': <class 'gluon.html.BR'>, 'BUTTON': <class 'gluon.html.BUTTON'>, 'CAT': <class 'gluon.html.CAT'>, 'CENTER': <class 'gluon.html.CENTER'>, 'CLEANUP': <class 'gluon.validators.CLEANUP'>, ...}, layer='/home/urvashi/Desktop/WEB2PY/web2py/applications/SSAD/controllers/default.py')"
p3619
sS'func'
p3620
S'restricted'
p3621
sa(dp3622
g3597
S'/home/urvashi/Desktop/WEB2PY/web2py/applications/SSAD/controllers/default.py'
p3623
sg3599
(dp3624
sg3605
I119
sg3606
(dp3625
I108
S'    http://..../[app]/default/data/update/[table]/[id]'
p3626
sI109
S'    http://..../[app]/default/data/delete/[table]/[id]'
p3627
sI110
S'    http://..../[app]/default/data/select/[table]'
p3628
sI111
S'    http://..../[app]/default/data/search/[table]'
p3629
sI112
S'    but URLs must be signed, i.e. linked with'
p3630
sI113
S"      A('table',_href=URL('data/tables',user_signature=True))"
p3631
sI114
S'    or with the signed load operator'
p3632
sI115
S"      LOAD('default','data.load',args='tables',ajax=True,user_signature=True)"
p3633
sI116
S'    """'
p3634
sI117
S'    return dict(form=crud())'
p3635
ssg3618
S'()'
p3636
sg3620
S'<module>'
p3637
sa(dp3638
g3597
S'/home/urvashi/Desktop/WEB2PY/web2py/gluon/globals.py'
p3639
sg3599
(dp3640
S'self'
p3641
S'undefined'
p3642
sS'f'
S'<function add_category_2>'
p3643
ssg3605
I193
sg3606
(dp3644
I192
S'        self._vars = None'
p3645
sI193
S'        self._caller = lambda f: f()'
p3646
sI194
S'        self._view_environment = None'
p3647
sI195
S'        self._custom_commit = None'
p3648
sI196
S'        self._custom_rollback = None'
p3649
sI197
S''
sI188
S'        self.menu = []             # used by the default view layout'
p3650
sI189
S'        self.files = []            # used by web2py_ajax.html'
p3651
sI190
S'        self.generic_patterns = []  # patterns to allow generic views'
p3652
sI191
S"        self.delimiters = ('{{', '}}')"
p3653
ssg3618
S'(f=<function add_category_2>)'
p3654
sg3620
S'<lambda>'
p3655
sa(dp3656
g3597
S'/home/urvashi/Desktop/WEB2PY/web2py/applications/SSAD/controllers/default.py'
p3657
sg3599
(dp3658
S'records'
p3659
g3642
sS'list'
p3660
S'<Rows (0)>'
p3661
ssg3605
I68
sg3606
(dp3662
I64
S'    return locals()'
p3663
sI65
S'def add_category_2():'
p3664
sI66
S'    cat_name=request.post_vars.cat_name'
p3665
sI67
S'    list=db(db.categories.id>0).select()'
p3666
sI68
S"    records=list[0]['name']"
p3667
sI69
S'    flag=0'
p3668
sI70
S"    if cat_name=='':"
p3669
sI71
S"        redirect(URL('add_category'))"
p3670
sI72
S'    else:'
p3671
sI63
S'def add_category():'
p3672
ssg3618
S'()'
p3673
sg3620
S'add_category_2'
p3674
sa(dp3675
g3597
S'/home/urvashi/Desktop/WEB2PY/web2py/gluon/dal.py'
p3676
sg3599
(dp3677
S'i'
S'0'
sS'self'
p3678
S'<Rows (0)>'
p3679
sS'self.records'
p3680
S'[]'
p3681
sS'row'
p3682
g3642
ssg3605
I9170
sg3606
(dp3683
I9165
S''
sI9166
S'    def __getslice__(self, a, b):'
p3684
sI9167
S'        return Rows(self.db,self.records[a:b],self.colnames)'
p3685
sI9168
S''
sI9169
S'    def __getitem__(self, i):'
p3686
sI9170
S'        row = self.records[i]'
p3687
sI9171
S'        keys = row.keys()'
p3688
sI9172
S"        if self.compact and len(keys) == 1 and keys[0] != '_extra':"
p3689
sI9173
S'            return row[row.keys()[0]]'
p3690
sI9174
S'        return row'
p3691
ssg3618
S'(self=<Rows (0)>, i=0)'
p3692
sg3620
g20
sasS'pyver'
p3693
S'Python 2.7.3: /usr/bin/python'
p3694
sS'session'
p3695
g57
(g58
g59
NtRp3696
(dp3697
g62
(dp3698
sg64
(lp3699
g57
(g66
g59
NtRp3700
(dp3701
g62
(dp3702
g70
I5
ssg71
Nsg64
(lp3703
g57
(g73
g59
NtRp3704
(dp3705
g62
(dp3706
sg71
g3700
sg64
(lp3707
g57
(g78
g59
NtRp3708
(dp3709
g62
(dp3710
g82
g83
ssg71
g3704
sg64
(lp3711
S'auth'
p3712
asbag57
(g78
g59
NtRp3713
(dp3714
g62
(dp3715
g89
g90
ssg71
g3704
sg64
(lp3716
S':'
asbag57
(g78
g59
NtRp3717
(dp3718
g62
(dp3719
sg71
g3704
sg64
(lp3720
g57
(g58
g59
NtRp3721
(dp3722
g62
(dp3723
g70
I5
ssg71
g3717
sg64
(lp3724
g57
(g66
g59
NtRp3725
(dp3726
g62
(dp3727
g70
I4
ssg71
Nsg64
(lp3728
g57
(g73
g59
NtRp3729
(dp3730
g62
(dp3731
sg71
g3725
sg64
(lp3732
g57
(g78
g59
NtRp3733
(dp3734
g62
(dp3735
g82
g83
ssg71
g3729
sg64
(lp3736
S'expiration'
p3737
asbag57
(g78
g59
NtRp3738
(dp3739
g62
(dp3740
g89
g90
ssg71
g3729
sg64
(lp3741
S':'
asbag57
(g78
g59
NtRp3742
(dp3743
g62
(dp3744
sg71
g3729
sg64
(lp3745
g57
(g58
g59
NtRp3746
(dp3747
g62
(dp3748
g70
I4
ssg71
g3742
sg64
(lp3749
S'3600'
p3750
asbasbasbag57
(g73
g59
NtRp3751
(dp3752
g62
(dp3753
sg71
g3725
sg64
(lp3754
g57
(g78
g59
NtRp3755
(dp3756
g62
(dp3757
g82
g83
ssg71
g3751
sg64
(lp3758
S'hmac_key'
p3759
asbag57
(g78
g59
NtRp3760
(dp3761
g62
(dp3762
g89
g90
ssg71
g3751
sg64
(lp3763
S':'
asbag57
(g78
g59
NtRp3764
(dp3765
g62
(dp3766
sg71
g3751
sg64
(lp3767
g57
(g58
g59
NtRp3768
(dp3769
g62
(dp3770
g70
I4
ssg71
g3764
sg64
(lp3771
S'3a744a26-9470-4a96-905d-2029d5bd5748'
p3772
asbasbasbag57
(g73
g59
NtRp3773
(dp3774
g62
(dp3775
sg71
g3725
sg64
(lp3776
g57
(g78
g59
NtRp3777
(dp3778
g62
(dp3779
g82
g83
ssg71
g3773
sg64
(lp3780
S'last_visit'
p3781
asbag57
(g78
g59
NtRp3782
(dp3783
g62
(dp3784
g89
g90
ssg71
g3773
sg64
(lp3785
S':'
asbag57
(g78
g59
NtRp3786
(dp3787
g62
(dp3788
sg71
g3773
sg64
(lp3789
g57
(g58
g59
NtRp3790
(dp3791
g62
(dp3792
g70
I4
ssg71
g3786
sg64
(lp3793
S'datetime.datetime(2013, 8, 26, 13, 18, 50, 932148)'
p3794
asbasbasbag57
(g73
g59
NtRp3795
(dp3796
g62
(dp3797
sg71
g3725
sg64
(lp3798
g57
(g78
g59
NtRp3799
(dp3800
g62
(dp3801
g82
g83
ssg71
g3795
sg64
(lp3802
S'remember'
p3803
asbag57
(g78
g59
NtRp3804
(dp3805
g62
(dp3806
g89
g90
ssg71
g3795
sg64
(lp3807
S':'
asbag57
(g78
g59
NtRp3808
(dp3809
g62
(dp3810
sg71
g3795
sg64
(lp3811
g57
(g58
g59
NtRp3812
(dp3813
g62
(dp3814
g70
I4
ssg71
g3808
sg64
(lp3815
g100
asbasbasbag57
(g73
g59
NtRp3816
(dp3817
g62
(dp3818
sg71
g3725
sg64
(lp3819
g57
(g78
g59
NtRp3820
(dp3821
g62
(dp3822
g82
g83
ssg71
g3816
sg64
(lp3823
S'user'
p3824
asbag57
(g78
g59
NtRp3825
(dp3826
g62
(dp3827
g89
g90
ssg71
g3816
sg64
(lp3828
S':'
asbag57
(g78
g59
NtRp3829
(dp3830
g62
(dp3831
sg71
g3816
sg64
(lp3832
g57
(g58
g59
NtRp3833
(dp3834
g62
(dp3835
g70
I4
ssg71
g3829
sg64
(lp3836
g57
(g66
g59
NtRp3837
(dp3838
g62
(dp3839
g70
I3
ssg71
Nsg64
(lp3840
g57
(g73
g59
NtRp3841
(dp3842
g62
(dp3843
sg71
g3837
sg64
(lp3844
g57
(g78
g59
NtRp3845
(dp3846
g62
(dp3847
g82
g83
ssg71
g3841
sg64
(lp3848
S'email'
p3849
asbag57
(g78
g59
NtRp3850
(dp3851
g62
(dp3852
g89
g90
ssg71
g3841
sg64
(lp3853
S':'
asbag57
(g78
g59
NtRp3854
(dp3855
g62
(dp3856
sg71
g3841
sg64
(lp3857
g57
(g58
g59
NtRp3858
(dp3859
g62
(dp3860
g70
I3
ssg71
g3854
sg64
(lp3861
S'admin@iiit.ac.in'
p3862
asbasbasbag57
(g73
g59
NtRp3863
(dp3864
g62
(dp3865
sg71
g3837
sg64
(lp3866
g57
(g78
g59
NtRp3867
(dp3868
g62
(dp3869
g82
g83
ssg71
g3863
sg64
(lp3870
S'first_name'
p3871
asbag57
(g78
g59
NtRp3872
(dp3873
g62
(dp3874
g89
g90
ssg71
g3863
sg64
(lp3875
S':'
asbag57
(g78
g59
NtRp3876
(dp3877
g62
(dp3878
sg71
g3863
sg64
(lp3879
g57
(g58
g59
NtRp3880
(dp3881
g62
(dp3882
g70
I3
ssg71
g3876
sg64
(lp3883
S'ADMIN'
p3884
asbasbasbag57
(g73
g59
NtRp3885
(dp3886
g62
(dp3887
sg71
g3837
sg64
(lp3888
g57
(g78
g59
NtRp3889
(dp3890
g62
(dp3891
g82
g83
ssg71
g3885
sg64
(lp3892
S'id'
p3893
asbag57
(g78
g59
NtRp3894
(dp3895
g62
(dp3896
g89
g90
ssg71
g3885
sg64
(lp3897
S':'
asbag57
(g78
g59
NtRp3898
(dp3899
g62
(dp3900
sg71
g3885
sg64
(lp3901
g57
(g58
g59
NtRp3902
(dp3903
g62
(dp3904
g70
I3
ssg71
g3898
sg64
(lp3905
S'1'
asbasbasbag57
(g73
g59
NtRp3906
(dp3907
g62
(dp3908
sg71
g3837
sg64
(lp3909
g57
(g78
g59
NtRp3910
(dp3911
g62
(dp3912
g82
g83
ssg71
g3906
sg64
(lp3913
S'last_name'
p3914
asbag57
(g78
g59
NtRp3915
(dp3916
g62
(dp3917
g89
g90
ssg71
g3906
sg64
(lp3918
S':'
asbag57
(g78
g59
NtRp3919
(dp3920
g62
(dp3921
sg71
g3906
sg64
(lp3922
g57
(g58
g59
NtRp3923
(dp3924
g62
(dp3925
g70
I3
ssg71
g3919
sg64
(lp3926
S'IIITH'
p3927
asbasbasbag57
(g73
g59
NtRp3928
(dp3929
g62
(dp3930
sg71
g3837
sg64
(lp3931
g57
(g78
g59
NtRp3932
(dp3933
g62
(dp3934
g82
g83
ssg71
g3928
sg64
(lp3935
S'registration_id'
p3936
asbag57
(g78
g59
NtRp3937
(dp3938
g62
(dp3939
g89
g90
ssg71
g3928
sg64
(lp3940
S':'
asbag57
(g78
g59
NtRp3941
(dp3942
g62
(dp3943
sg71
g3928
sg64
(lp3944
g57
(g58
g59
NtRp3945
(dp3946
g62
(dp3947
g70
I3
ssg71
g3941
sg64
(lp3948
S''
asbasbasbag57
(g73
g59
NtRp3949
(dp3950
g62
(dp3951
sg71
g3837
sg64
(lp3952
g57
(g78
g59
NtRp3953
(dp3954
g62
(dp3955
g82
g83
ssg71
g3949
sg64
(lp3956
S'registration_key'
p3957
asbag57
(g78
g59
NtRp3958
(dp3959
g62
(dp3960
g89
g90
ssg71
g3949
sg64
(lp3961
S':'
asbag57
(g78
g59
NtRp3962
(dp3963
g62
(dp3964
sg71
g3949
sg64
(lp3965
g57
(g58
g59
NtRp3966
(dp3967
g62
(dp3968
g70
I3
ssg71
g3962
sg64
(lp3969
S''
asbasbasbag57
(g73
g59
NtRp3970
(dp3971
g62
(dp3972
sg71
g3837
sg64
(lp3973
g57
(g78
g59
NtRp3974
(dp3975
g62
(dp3976
g82
g83
ssg71
g3970
sg64
(lp3977
S'reset_password_key'
p3978
asbag57
(g78
g59
NtRp3979
(dp3980
g62
(dp3981
g89
g90
ssg71
g3970
sg64
(lp3982
S':'
asbag57
(g78
g59
NtRp3983
(dp3984
g62
(dp3985
sg71
g3970
sg64
(lp3986
g57
(g58
g59
NtRp3987
(dp3988
g62
(dp3989
g70
I3
ssg71
g3983
sg64
(lp3990
S''
asbasbasbasbasbasbasbag57
(g73
g59
NtRp3991
(dp3992
g62
(dp3993
sg71
g3725
sg64
(lp3994
g57
(g78
g59
NtRp3995
(dp3996
g62
(dp3997
g82
g83
ssg71
g3991
sg64
(lp3998
S'user_groups'
p3999
asbag57
(g78
g59
NtRp4000
(dp4001
g62
(dp4002
g89
g90
ssg71
g3991
sg64
(lp4003
S':'
asbag57
(g78
g59
NtRp4004
(dp4005
g62
(dp4006
sg71
g3991
sg64
(lp4007
g57
(g58
g59
NtRp4008
(dp4009
g62
(dp4010
g70
I4
ssg71
g4004
sg64
(lp4011
g57
(g66
g59
NtRp4012
(dp4013
g62
(dp4014
g70
I3
ssg71
Nsg64
(lp4015
sbasbasbasbasbasbasbasbag57
(g73
g59
NtRp4016
(dp4017
g62
(dp4018
sg71
g3700
sg64
(lp4019
g57
(g78
g59
NtRp4020
(dp4021
g62
(dp4022
g82
g83
ssg71
g4016
sg64
(lp4023
S'flash'
p4024
asbag57
(g78
g59
NtRp4025
(dp4026
g62
(dp4027
g89
g90
ssg71
g4016
sg64
(lp4028
S':'
asbag57
(g78
g59
NtRp4029
(dp4030
g62
(dp4031
sg71
g4016
sg64
(lp4032
g57
(g58
g59
NtRp4033
(dp4034
g62
(dp4035
g70
I5
ssg71
g4029
sg64
(lp4036
S'None'
p4037
asbasbasbag57
(g73
g59
NtRp4038
(dp4039
g62
(dp4040
sg71
g3700
sg64
(lp4041
g57
(g78
g59
NtRp4042
(dp4043
g62
(dp4044
g82
g83
ssg71
g4038
sg64
(lp4045
S'last_orderby'
p4046
asbag57
(g78
g59
NtRp4047
(dp4048
g62
(dp4049
g89
g90
ssg71
g4038
sg64
(lp4050
S':'
asbag57
(g78
g59
NtRp4051
(dp4052
g62
(dp4053
sg71
g4038
sg64
(lp4054
g57
(g58
g59
NtRp4055
(dp4056
g62
(dp4057
g70
I5
ssg71
g4051
sg64
(lp4058
S'None'
p4059
asbasbasbag57
(g73
g59
NtRp4060
(dp4061
g62
(dp4062
sg71
g3700
sg64
(lp4063
g57
(g78
g59
NtRp4064
(dp4065
g62
(dp4066
g82
g83
ssg71
g4060
sg64
(lp4067
S'last_query'
p4068
asbag57
(g78
g59
NtRp4069
(dp4070
g62
(dp4071
g89
g90
ssg71
g4060
sg64
(lp4072
S':'
asbag57
(g78
g59
NtRp4073
(dp4074
g62
(dp4075
sg71
g4060
sg64
(lp4076
g57
(g58
g59
NtRp4077
(dp4078
g62
(dp4079
g70
I5
ssg71
g4073
sg64
(lp4080
S'db.categories.id>0'
p4081
asbasbasbasbasbsS'etype'
p4082
S"<type 'exceptions.IndexError'>"
p4083
sS'date'
p4084
S'Mon Aug 26 13:19:53 2013'
p4085
sS'response'
p4086
g57
(g58
g59
NtRp4087
(dp4088
g62
(dp4089
sg64
(lp4090
g57
(g66
g59
NtRp4091
(dp4092
g62
(dp4093
g70
I5
ssg71
Nsg64
(lp4094
g57
(g73
g59
NtRp4095
(dp4096
g62
(dp4097
sg71
g4091
sg64
(lp4098
g57
(g78
g59
NtRp4099
(dp4100
g62
(dp4101
g82
g83
ssg71
g4095
sg64
(lp4102
g155
asbag57
(g78
g59
NtRp4103
(dp4104
g62
(dp4105
g89
g90
ssg71
g4095
sg64
(lp4106
S':'
asbag57
(g78
g59
NtRp4107
(dp4108
g62
(dp4109
sg71
g4095
sg64
(lp4110
g57
(g58
g59
NtRp4111
(dp4112
g62
(dp4113
g70
I5
ssg71
g4107
sg64
(lp4114
S'<cStringIO.StringO object at 0x7f3450233ae8>'
p4115
asbasbasbag57
(g73
g59
NtRp4116
(dp4117
g62
(dp4118
sg71
g4091
sg64
(lp4119
g57
(g78
g59
NtRp4120
(dp4121
g62
(dp4122
g82
g83
ssg71
g4116
sg64
(lp4123
g243
asbag57
(g78
g59
NtRp4124
(dp4125
g62
(dp4126
g89
g90
ssg71
g4116
sg64
(lp4127
S':'
asbag57
(g78
g59
NtRp4128
(dp4129
g62
(dp4130
sg71
g4116
sg64
(lp4131
g57
(g58
g59
NtRp4132
(dp4133
g62
(dp4134
g70
I5
ssg71
g4128
sg64
(lp4135
g57
(g66
g59
NtRp4136
(dp4137
g62
(dp4138
g70
I4
ssg71
Nsg64
(lp4139
g57
(g73
g59
NtRp4140
(dp4141
g62
(dp4142
sg71
g4136
sg64
(lp4143
g57
(g78
g59
NtRp4144
(dp4145
g62
(dp4146
g82
g83
ssg71
g4140
sg64
(lp4147
S'session_id_ssad'
p4148
asbag57
(g78
g59
NtRp4149
(dp4150
g62
(dp4151
g89
g90
ssg71
g4140
sg64
(lp4152
S':'
asbag57
(g78
g59
NtRp4153
(dp4154
g62
(dp4155
sg71
g4140
sg64
(lp4156
g57
(g58
g59
NtRp4157
(dp4158
g62
(dp4159
g70
I4
ssg71
g4153
sg64
(lp4160
g661
ag57
(g66
g59
NtRp4161
(dp4162
g62
(dp4163
g70
I3
ssg71
Nsg64
(lp4164
g57
(g73
g59
NtRp4165
(dp4166
g62
(dp4167
sg71
g4161
sg64
(lp4168
g57
(g78
g59
NtRp4169
(dp4170
g62
(dp4171
g82
g83
ssg71
g4165
sg64
(lp4172
g294
asbag57
(g78
g59
NtRp4173
(dp4174
g62
(dp4175
g89
g90
ssg71
g4165
sg64
(lp4176
S':'
asbag57
(g78
g59
NtRp4177
(dp4178
g62
(dp4179
sg71
g4165
sg64
(lp4180
g57
(g58
g59
NtRp4181
(dp4182
g62
(dp4183
g70
I3
ssg71
g4177
sg64
(lp4184
S''
asbasbasbag57
(g73
g59
NtRp4185
(dp4186
g62
(dp4187
sg71
g4161
sg64
(lp4188
g57
(g78
g59
NtRp4189
(dp4190
g62
(dp4191
g82
g83
ssg71
g4185
sg64
(lp4192
g315
asbag57
(g78
g59
NtRp4193
(dp4194
g62
(dp4195
g89
g90
ssg71
g4185
sg64
(lp4196
S':'
asbag57
(g78
g59
NtRp4197
(dp4198
g62
(dp4199
sg71
g4185
sg64
(lp4200
g57
(g58
g59
NtRp4201
(dp4202
g62
(dp4203
g70
I3
ssg71
g4197
sg64
(lp4204
S''
asbasbasbag57
(g73
g59
NtRp4205
(dp4206
g62
(dp4207
sg71
g4161
sg64
(lp4208
g57
(g78
g59
NtRp4209
(dp4210
g62
(dp4211
g82
g83
ssg71
g4205
sg64
(lp4212
g336
asbag57
(g78
g59
NtRp4213
(dp4214
g62
(dp4215
g89
g90
ssg71
g4205
sg64
(lp4216
S':'
asbag57
(g78
g59
NtRp4217
(dp4218
g62
(dp4219
sg71
g4205
sg64
(lp4220
g57
(g58
g59
NtRp4221
(dp4222
g62
(dp4223
g70
I3
ssg71
g4217
sg64
(lp4224
S''
asbasbasbag57
(g73
g59
NtRp4225
(dp4226
g62
(dp4227
sg71
g4161
sg64
(lp4228
g57
(g78
g59
NtRp4229
(dp4230
g62
(dp4231
g82
g83
ssg71
g4225
sg64
(lp4232
g357
asbag57
(g78
g59
NtRp4233
(dp4234
g62
(dp4235
g89
g90
ssg71
g4225
sg64
(lp4236
S':'
asbag57
(g78
g59
NtRp4237
(dp4238
g62
(dp4239
sg71
g4225
sg64
(lp4240
g57
(g58
g59
NtRp4241
(dp4242
g62
(dp4243
g70
I3
ssg71
g4237
sg64
(lp4244
S''
asbasbasbag57
(g73
g59
NtRp4245
(dp4246
g62
(dp4247
sg71
g4161
sg64
(lp4248
g57
(g78
g59
NtRp4249
(dp4250
g62
(dp4251
g82
g83
ssg71
g4245
sg64
(lp4252
g378
asbag57
(g78
g59
NtRp4253
(dp4254
g62
(dp4255
g89
g90
ssg71
g4245
sg64
(lp4256
S':'
asbag57
(g78
g59
NtRp4257
(dp4258
g62
(dp4259
sg71
g4245
sg64
(lp4260
g57
(g58
g59
NtRp4261
(dp4262
g62
(dp4263
g70
I3
ssg71
g4257
sg64
(lp4264
S''
asbasbasbag57
(g73
g59
NtRp4265
(dp4266
g62
(dp4267
sg71
g4161
sg64
(lp4268
g57
(g78
g59
NtRp4269
(dp4270
g62
(dp4271
g82
g83
ssg71
g4265
sg64
(lp4272
g399
asbag57
(g78
g59
NtRp4273
(dp4274
g62
(dp4275
g89
g90
ssg71
g4265
sg64
(lp4276
S':'
asbag57
(g78
g59
NtRp4277
(dp4278
g62
(dp4279
sg71
g4265
sg64
(lp4280
g57
(g58
g59
NtRp4281
(dp4282
g62
(dp4283
g70
I3
ssg71
g4277
sg64
(lp4284
S'/'
asbasbasbag57
(g73
g59
NtRp4285
(dp4286
g62
(dp4287
sg71
g4161
sg64
(lp4288
g57
(g78
g59
NtRp4289
(dp4290
g62
(dp4291
g82
g83
ssg71
g4285
sg64
(lp4292
g420
asbag57
(g78
g59
NtRp4293
(dp4294
g62
(dp4295
g89
g90
ssg71
g4285
sg64
(lp4296
S':'
asbag57
(g78
g59
NtRp4297
(dp4298
g62
(dp4299
sg71
g4285
sg64
(lp4300
g57
(g58
g59
NtRp4301
(dp4302
g62
(dp4303
g70
I3
ssg71
g4297
sg64
(lp4304
S''
asbasbasbag57
(g73
g59
NtRp4305
(dp4306
g62
(dp4307
sg71
g4161
sg64
(lp4308
g57
(g78
g59
NtRp4309
(dp4310
g62
(dp4311
g82
g83
ssg71
g4305
sg64
(lp4312
g441
asbag57
(g78
g59
NtRp4313
(dp4314
g62
(dp4315
g89
g90
ssg71
g4305
sg64
(lp4316
S':'
asbag57
(g78
g59
NtRp4317
(dp4318
g62
(dp4319
sg71
g4305
sg64
(lp4320
g57
(g58
g59
NtRp4321
(dp4322
g62
(dp4323
g70
I3
ssg71
g4317
sg64
(lp4324
S''
asbasbasbasbasbasbasbasbasbasbasbag57
(g73
g59
NtRp4325
(dp4326
g62
(dp4327
sg71
g4091
sg64
(lp4328
g57
(g78
g59
NtRp4329
(dp4330
g62
(dp4331
g82
g83
ssg71
g4325
sg64
(lp4332
S'delimiters'
p4333
asbag57
(g78
g59
NtRp4334
(dp4335
g62
(dp4336
g89
g90
ssg71
g4325
sg64
(lp4337
S':'
asbag57
(g78
g59
NtRp4338
(dp4339
g62
(dp4340
sg71
g4325
sg64
(lp4341
g57
(g58
g59
NtRp4342
(dp4343
g62
(dp4344
g70
I5
ssg71
g4338
sg64
(lp4345
g57
(g66
g59
NtRp4346
(dp4347
g62
(dp4348
g70
I4
ssg71
Nsg64
(lp4349
g57
(g73
g59
NtRp4350
(dp4351
g62
(dp4352
sg71
g4346
sg64
(lp4353
g57
(g78
g59
NtRp4354
(dp4355
g62
(dp4356
sg71
g4350
sg64
(lp4357
g57
(g58
g59
NtRp4358
(dp4359
g62
(dp4360
g70
I4
ssg71
g4354
sg64
(lp4361
S'{{'
p4362
asbasbasbag57
(g73
g59
NtRp4363
(dp4364
g62
(dp4365
sg71
g4346
sg64
(lp4366
g57
(g78
g59
NtRp4367
(dp4368
g62
(dp4369
sg71
g4363
sg64
(lp4370
g57
(g58
g59
NtRp4371
(dp4372
g62
(dp4373
g70
I4
ssg71
g4367
sg64
(lp4374
S'}}'
p4375
asbasbasbasbasbasbasbag57
(g73
g59
NtRp4376
(dp4377
g62
(dp4378
sg71
g4091
sg64
(lp4379
g57
(g78
g59
NtRp4380
(dp4381
g62
(dp4382
g82
g83
ssg71
g4376
sg64
(lp4383
S'files'
p4384
asbag57
(g78
g59
NtRp4385
(dp4386
g62
(dp4387
g89
g90
ssg71
g4376
sg64
(lp4388
S':'
asbag57
(g78
g59
NtRp4389
(dp4390
g62
(dp4391
sg71
g4376
sg64
(lp4392
g57
(g58
g59
NtRp4393
(dp4394
g62
(dp4395
g70
I5
ssg71
g4389
sg64
(lp4396
g57
(g66
g59
NtRp4397
(dp4398
g62
(dp4399
g70
I4
ssg71
Nsg64
(lp4400
sbasbasbasbag57
(g73
g59
NtRp4401
(dp4402
g62
(dp4403
sg71
g4091
sg64
(lp4404
g57
(g78
g59
NtRp4405
(dp4406
g62
(dp4407
g82
g83
ssg71
g4401
sg64
(lp4408
S'flash'
p4409
asbag57
(g78
g59
NtRp4410
(dp4411
g62
(dp4412
g89
g90
ssg71
g4401
sg64
(lp4413
S':'
asbag57
(g78
g59
NtRp4414
(dp4415
g62
(dp4416
sg71
g4401
sg64
(lp4417
g57
(g58
g59
NtRp4418
(dp4419
g62
(dp4420
g70
I5
ssg71
g4414
sg64
(lp4421
S''
asbasbasbag57
(g73
g59
NtRp4422
(dp4423
g62
(dp4424
sg71
g4091
sg64
(lp4425
g57
(g78
g59
NtRp4426
(dp4427
g62
(dp4428
g82
g83
ssg71
g4422
sg64
(lp4429
S'generic_patterns'
p4430
asbag57
(g78
g59
NtRp4431
(dp4432
g62
(dp4433
g89
g90
ssg71
g4422
sg64
(lp4434
S':'
asbag57
(g78
g59
NtRp4435
(dp4436
g62
(dp4437
sg71
g4422
sg64
(lp4438
g57
(g58
g59
NtRp4439
(dp4440
g62
(dp4441
g70
I5
ssg71
g4435
sg64
(lp4442
g57
(g66
g59
NtRp4443
(dp4444
g62
(dp4445
g70
I4
ssg71
Nsg64
(lp4446
g57
(g73
g59
NtRp4447
(dp4448
g62
(dp4449
sg71
g4443
sg64
(lp4450
g57
(g78
g59
NtRp4451
(dp4452
g62
(dp4453
sg71
g4447
sg64
(lp4454
g57
(g58
g59
NtRp4455
(dp4456
g62
(dp4457
g70
I4
ssg71
g4451
sg64
(lp4458
S'*'
asbasbasbasbasbasbasbag57
(g73
g59
NtRp4459
(dp4460
g62
(dp4461
sg71
g4091
sg64
(lp4462
g57
(g78
g59
NtRp4463
(dp4464
g62
(dp4465
g82
g83
ssg71
g4459
sg64
(lp4466
S'google_analytics_id'
p4467
asbag57
(g78
g59
NtRp4468
(dp4469
g62
(dp4470
g89
g90
ssg71
g4459
sg64
(lp4471
S':'
asbag57
(g78
g59
NtRp4472
(dp4473
g62
(dp4474
sg71
g4459
sg64
(lp4475
g57
(g58
g59
NtRp4476
(dp4477
g62
(dp4478
g70
I5
ssg71
g4472
sg64
(lp4479
S'None'
p4480
asbasbasbag57
(g73
g59
NtRp4481
(dp4482
g62
(dp4483
sg71
g4091
sg64
(lp4484
g57
(g78
g59
NtRp4485
(dp4486
g62
(dp4487
g82
g83
ssg71
g4481
sg64
(lp4488
S'headers'
p4489
asbag57
(g78
g59
NtRp4490
(dp4491
g62
(dp4492
g89
g90
ssg71
g4481
sg64
(lp4493
S':'
asbag57
(g78
g59
NtRp4494
(dp4495
g62
(dp4496
sg71
g4481
sg64
(lp4497
g57
(g58
g59
NtRp4498
(dp4499
g62
(dp4500
g70
I5
ssg71
g4494
sg64
(lp4501
g57
(g66
g59
NtRp4502
(dp4503
g62
(dp4504
g70
I4
ssg71
Nsg64
(lp4505
g57
(g73
g59
NtRp4506
(dp4507
g62
(dp4508
sg71
g4502
sg64
(lp4509
g57
(g78
g59
NtRp4510
(dp4511
g62
(dp4512
g82
g83
ssg71
g4506
sg64
(lp4513
S'X-Powered-By'
p4514
asbag57
(g78
g59
NtRp4515
(dp4516
g62
(dp4517
g89
g90
ssg71
g4506
sg64
(lp4518
S':'
asbag57
(g78
g59
NtRp4519
(dp4520
g62
(dp4521
sg71
g4506
sg64
(lp4522
g57
(g58
g59
NtRp4523
(dp4524
g62
(dp4525
g70
I4
ssg71
g4519
sg64
(lp4526
S'web2py'
p4527
asbasbasbasbasbasbasbag57
(g73
g59
NtRp4528
(dp4529
g62
(dp4530
sg71
g4091
sg64
(lp4531
g57
(g78
g59
NtRp4532
(dp4533
g62
(dp4534
g82
g83
ssg71
g4528
sg64
(lp4535
S'logo'
p4536
asbag57
(g78
g59
NtRp4537
(dp4538
g62
(dp4539
g89
g90
ssg71
g4528
sg64
(lp4540
S':'
asbag57
(g78
g59
NtRp4541
(dp4542
g62
(dp4543
sg71
g4528
sg64
(lp4544
g57
(g58
g59
NtRp4545
(dp4546
g62
(dp4547
g70
I5
ssg71
g4541
sg64
(lp4548
g57
(cgluon.html
A
p4549
g59
NtRp4550
(dp4551
g62
(dp4552
S'_class'
p4553
S'brand'
p4554
sS'_href'
p4555
S'http://www.web2py.com/'
p4556
ssg71
Nsg64
(lp4557
g57
(cgluon.html
B
p4558
g59
NtRp4559
(dp4560
g62
(dp4561
sg71
g4550
sg64
(lp4562
S'web'
p4563
ag57
(cgluon.html
SPAN
p4564
g59
NtRp4565
(dp4566
g62
(dp4567
sg71
g4559
sg64
(lp4568
I2
asbaS'py'
p4569
asbacgluon.html
XML_unpickle
p4570
(S's\r\x00\x00\x00&trade;&nbsp;'
tRp4571
asbasbasbasbag57
(g73
g59
NtRp4572
(dp4573
g62
(dp4574
sg71
g4091
sg64
(lp4575
g57
(g78
g59
NtRp4576
(dp4577
g62
(dp4578
g82
g83
ssg71
g4572
sg64
(lp4579
S'menu'
p4580
asbag57
(g78
g59
NtRp4581
(dp4582
g62
(dp4583
g89
g90
ssg71
g4572
sg64
(lp4584
S':'
asbag57
(g78
g59
NtRp4585
(dp4586
g62
(dp4587
sg71
g4572
sg64
(lp4588
g57
(g58
g59
NtRp4589
(dp4590
g62
(dp4591
g70
I5
ssg71
g4585
sg64
(lp4592
g57
(g66
g59
NtRp4593
(dp4594
g62
(dp4595
g70
I4
ssg71
Nsg64
(lp4596
g57
(g73
g59
NtRp4597
(dp4598
g62
(dp4599
sg71
g4593
sg64
(lp4600
g57
(g78
g59
NtRp4601
(dp4602
g62
(dp4603
sg71
g4597
sg64
(lp4604
g57
(g58
g59
NtRp4605
(dp4606
g62
(dp4607
g70
I4
ssg71
g4601
sg64
(lp4608
g57
(g66
g59
NtRp4609
(dp4610
g62
(dp4611
g70
I3
ssg71
Nsg64
(lp4612
g57
(g73
g59
NtRp4613
(dp4614
g62
(dp4615
sg71
g4609
sg64
(lp4616
g57
(g78
g59
NtRp4617
(dp4618
g62
(dp4619
sg71
g4613
sg64
(lp4620
g57
(g58
g59
NtRp4621
(dp4622
g62
(dp4623
g70
I3
ssg71
g4617
sg64
(lp4624
cgluon.languages
lazyT_unpickle
p4625
(S's\x04\x00\x00\x00Home'
tRp4626
asbasbasbag57
(g73
g59
NtRp4627
(dp4628
g62
(dp4629
sg71
g4609
sg64
(lp4630
g57
(g78
g59
NtRp4631
(dp4632
g62
(dp4633
sg71
g4627
sg64
(lp4634
g57
(g58
g59
NtRp4635
(dp4636
g62
(dp4637
g70
I3
ssg71
g4631
sg64
(lp4638
g100
asbasbasbag57
(g73
g59
NtRp4639
(dp4640
g62
(dp4641
sg71
g4609
sg64
(lp4642
g57
(g78
g59
NtRp4643
(dp4644
g62
(dp4645
sg71
g4639
sg64
(lp4646
g57
(g58
g59
NtRp4647
(dp4648
g62
(dp4649
g70
I3
ssg71
g4643
sg64
(lp4650
S'/SSAD/default/index'
p4651
asbasbasbag57
(g73
g59
NtRp4652
(dp4653
g62
(dp4654
sg71
g4609
sg64
(lp4655
g57
(g78
g59
NtRp4656
(dp4657
g62
(dp4658
sg71
g4652
sg64
(lp4659
g57
(g58
g59
NtRp4660
(dp4661
g62
(dp4662
g70
I3
ssg71
g4656
sg64
(lp4663
g57
(g66
g59
NtRp4664
(dp4665
g62
(dp4666
g70
I2
ssg71
Nsg64
(lp4667
sbasbasbasbasbasbasbasbag57
(g73
g59
NtRp4668
(dp4669
g62
(dp4670
sg71
g4593
sg64
(lp4671
g57
(g78
g59
NtRp4672
(dp4673
g62
(dp4674
sg71
g4668
sg64
(lp4675
g57
(g58
g59
NtRp4676
(dp4677
g62
(dp4678
g70
I4
ssg71
g4672
sg64
(lp4679
g57
(g66
g59
NtRp4680
(dp4681
g62
(dp4682
g70
I3
ssg71
Nsg64
(lp4683
g57
(g73
g59
NtRp4684
(dp4685
g62
(dp4686
sg71
g4680
sg64
(lp4687
g57
(g78
g59
NtRp4688
(dp4689
g62
(dp4690
sg71
g4684
sg64
(lp4691
g57
(g58
g59
NtRp4692
(dp4693
g62
(dp4694
g70
I3
ssg71
g4688
sg64
(lp4695
g57
(g4564
g59
NtRp4696
(dp4697
g62
(dp4698
g4553
S'highlighted'
p4699
ssg71
Nsg64
(lp4700
g4527
asbasbasbasbag57
(g73
g59
NtRp4701
(dp4702
g62
(dp4703
sg71
g4680
sg64
(lp4704
g57
(g78
g59
NtRp4705
(dp4706
g62
(dp4707
sg71
g4701
sg64
(lp4708
g57
(g58
g59
NtRp4709
(dp4710
g62
(dp4711
g70
I3
ssg71
g4705
sg64
(lp4712
g100
asbasbasbag57
(g73
g59
NtRp4713
(dp4714
g62
(dp4715
sg71
g4680
sg64
(lp4716
g57
(g78
g59
NtRp4717
(dp4718
g62
(dp4719
sg71
g4713
sg64
(lp4720
g57
(g58
g59
NtRp4721
(dp4722
g62
(dp4723
g70
I3
ssg71
g4717
sg64
(lp4724
S'http://web2py.com'
p4725
asbasbasbag57
(g73
g59
NtRp4726
(dp4727
g62
(dp4728
sg71
g4680
sg64
(lp4729
g57
(g78
g59
NtRp4730
(dp4731
g62
(dp4732
sg71
g4726
sg64
(lp4733
g57
(g58
g59
NtRp4734
(dp4735
g62
(dp4736
g70
I3
ssg71
g4730
sg64
(lp4737
g57
(g66
g59
NtRp4738
(dp4739
g62
(dp4740
g70
I2
ssg71
Nsg64
(lp4741
g57
(g73
g59
NtRp4742
(dp4743
g62
(dp4744
sg71
g4738
sg64
(lp4745
g57
(g78
g59
NtRp4746
(dp4747
g62
(dp4748
sg71
g4742
sg64
(lp4749
g57
(g58
g59
NtRp4750
(dp4751
g62
(dp4752
g70
I2
ssg71
g4746
sg64
(lp4753
g57
(g66
g59
NtRp4754
(dp4755
g62
(dp4756
g70
I1
ssg71
Nsg64
(lp4757
g57
(g73
g59
NtRp4758
(dp4759
g62
(dp4760
sg71
g4754
sg64
(lp4761
g57
(g78
g59
NtRp4762
(dp4763
g62
(dp4764
sg71
g4758
sg64
(lp4765
g57
(g58
g59
NtRp4766
(dp4767
g62
(dp4768
g70
I1
ssg71
g4762
sg64
(lp4769
g4625
(S's\x08\x00\x00\x00My Sites'
tRp4770
asbasbasbag57
(g73
g59
NtRp4771
(dp4772
g62
(dp4773
sg71
g4754
sg64
(lp4774
g57
(g78
g59
NtRp4775
(dp4776
g62
(dp4777
sg71
g4771
sg64
(lp4778
g57
(g58
g59
NtRp4779
(dp4780
g62
(dp4781
g70
I1
ssg71
g4775
sg64
(lp4782
I00
asbasbasbag57
(g73
g59
NtRp4783
(dp4784
g62
(dp4785
sg71
g4754
sg64
(lp4786
g57
(g78
g59
NtRp4787
(dp4788
g62
(dp4789
sg71
g4783
sg64
(lp4790
g57
(g58
g59
NtRp4791
(dp4792
g62
(dp4793
g70
I1
ssg71
g4787
sg64
(lp4794
S'/admin/default/site'
p4795
asbasbasbasbasbasbasbag57
(g73
g59
NtRp4796
(dp4797
g62
(dp4798
sg71
g4738
sg64
(lp4799
g57
(g78
g59
NtRp4800
(dp4801
g62
(dp4802
sg71
g4796
sg64
(lp4803
g57
(g58
g59
NtRp4804
(dp4805
g62
(dp4806
g70
I2
ssg71
g4800
sg64
(lp4807
g57
(g66
g59
NtRp4808
(dp4809
g62
(dp4810
g70
I1
ssg71
Nsg64
(lp4811
g57
(g73
g59
NtRp4812
(dp4813
g62
(dp4814
sg71
g4808
sg64
(lp4815
g57
(g78
g59
NtRp4816
(dp4817
g62
(dp4818
sg71
g4812
sg64
(lp4819
g57
(g58
g59
NtRp4820
(dp4821
g62
(dp4822
g70
I1
ssg71
g4816
sg64
(lp4823
g4625
(S's\x08\x00\x00\x00This App'
tRp4824
asbasbasbag57
(g73
g59
NtRp4825
(dp4826
g62
(dp4827
sg71
g4808
sg64
(lp4828
g57
(g78
g59
NtRp4829
(dp4830
g62
(dp4831
sg71
g4825
sg64
(lp4832
g57
(g58
g59
NtRp4833
(dp4834
g62
(dp4835
g70
I1
ssg71
g4829
sg64
(lp4836
I00
asbasbasbag57
(g73
g59
NtRp4837
(dp4838
g62
(dp4839
sg71
g4808
sg64
(lp4840
g57
(g78
g59
NtRp4841
(dp4842
g62
(dp4843
sg71
g4837
sg64
(lp4844
g57
(g58
g59
NtRp4845
(dp4846
g62
(dp4847
g70
I1
ssg71
g4841
sg64
(lp4848
S'/admin/default/design/SSAD'
p4849
asbasbasbag57
(g73
g59
NtRp4850
(dp4851
g62
(dp4852
sg71
g4808
sg64
(lp4853
g57
(g78
g59
NtRp4854
(dp4855
g62
(dp4856
sg71
g4850
sg64
(lp4857
g57
(g58
g59
NtRp4858
(dp4859
g62
(dp4860
g70
I1
ssg71
g4854
sg64
(lp4861
(lp4862
(g4625
(S's\n\x00\x00\x00Controller'
tRp4863
I00
S'/admin/default/edit/SSAD/controllers/default.py'
tp4864
a(g4625
(S's\x04\x00\x00\x00View'
tRp4865
I00
S'/admin/default/edit/SSAD/views/default/add_category_2.html'
tp4866
a(g4625
(S's\x06\x00\x00\x00Layout'
tRp4867
I00
S'/admin/default/edit/SSAD/views/layout.html'
tp4868
a(g4625
(S's\n\x00\x00\x00Stylesheet'
tRp4869
I00
S'/admin/default/edit/SSAD/static/css/web2py.css'
tp4870
a(g4625
(S's\x08\x00\x00\x00DB Model'
tRp4871
I00
S'/admin/default/edit/SSAD/models/db.py'
tp4872
a(g4625
(S's\n\x00\x00\x00Menu Model'
tRp4873
I00
S'/admin/default/edit/SSAD/models/menu.py'
tp4874
a(g4625
(S's\x08\x00\x00\x00Database'
tRp4875
I00
S'/SSAD/appadmin/index'
tp4876
a(g4625
(S's\x06\x00\x00\x00Errors'
tRp4877
I00
S'/admin/default/errors/SSAD'
tp4878
a(g4625
(S's\x05\x00\x00\x00About'
tRp4879
I00
S'/admin/default/about/SSAD'
tp4880
aasbasbasbasbasbasbasbag57
(g73
g59
NtRp4881
(dp4882
g62
(dp4883
sg71
g4738
sg64
(lp4884
g57
(g78
g59
NtRp4885
(dp4886
g62
(dp4887
sg71
g4881
sg64
(lp4888
g57
(g58
g59
NtRp4889
(dp4890
g62
(dp4891
g70
I2
ssg71
g4885
sg64
(lp4892
g57
(g66
g59
NtRp4893
(dp4894
g62
(dp4895
g70
I1
ssg71
Nsg64
(lp4896
g57
(g73
g59
NtRp4897
(dp4898
g62
(dp4899
sg71
g4893
sg64
(lp4900
g57
(g78
g59
NtRp4901
(dp4902
g62
(dp4903
sg71
g4897
sg64
(lp4904
g57
(g58
g59
NtRp4905
(dp4906
g62
(dp4907
g70
I1
ssg71
g4901
sg64
(lp4908
S'web2py.com'
p4909
asbasbasbag57
(g73
g59
NtRp4910
(dp4911
g62
(dp4912
sg71
g4893
sg64
(lp4913
g57
(g78
g59
NtRp4914
(dp4915
g62
(dp4916
sg71
g4910
sg64
(lp4917
g57
(g58
g59
NtRp4918
(dp4919
g62
(dp4920
g70
I1
ssg71
g4914
sg64
(lp4921
I00
asbasbasbag57
(g73
g59
NtRp4922
(dp4923
g62
(dp4924
sg71
g4893
sg64
(lp4925
g57
(g78
g59
NtRp4926
(dp4927
g62
(dp4928
sg71
g4922
sg64
(lp4929
g57
(g58
g59
NtRp4930
(dp4931
g62
(dp4932
g70
I1
ssg71
g4926
sg64
(lp4933
S'http://www.web2py.com'
p4934
asbasbasbag57
(g73
g59
NtRp4935
(dp4936
g62
(dp4937
sg71
g4893
sg64
(lp4938
g57
(g78
g59
NtRp4939
(dp4940
g62
(dp4941
sg71
g4935
sg64
(lp4942
g57
(g58
g59
NtRp4943
(dp4944
g62
(dp4945
g70
I1
ssg71
g4939
sg64
(lp4946
(lp4947
(g4625
(S's\x08\x00\x00\x00Download'
tRp4948
I00
S'http://www.web2py.com/examples/default/download'
p4949
tp4950
a(g4625
(S's\x07\x00\x00\x00Support'
tRp4951
I00
S'http://www.web2py.com/examples/default/support'
p4952
tp4953
a(g4625
(S's\x04\x00\x00\x00Demo'
tRp4954
I00
S'http://web2py.com/demo_admin'
p4955
tp4956
a(g4625
(S's\x0e\x00\x00\x00Quick Examples'
tRp4957
I00
S'http://web2py.com/examples/default/examples'
p4958
tp4959
a(g4625
(S's\x03\x00\x00\x00FAQ'
tRp4960
I00
S'http://web2py.com/AlterEgo'
p4961
tp4962
a(g4625
(S's\x06\x00\x00\x00Videos'
tRp4963
I00
S'http://www.web2py.com/examples/default/videos/'
p4964
tp4965
a(g4625
(S's\x11\x00\x00\x00Free Applications'
tRp4966
I00
S'http://web2py.com/appliances'
p4967
tp4968
a(g4625
(S's\x07\x00\x00\x00Plugins'
tRp4969
I00
S'http://web2py.com/plugins'
p4970
tp4971
a(g4625
(S's\x07\x00\x00\x00Layouts'
tRp4972
I00
S'http://web2py.com/layouts'
p4973
tp4974
a(g4625
(S's\x07\x00\x00\x00Recipes'
tRp4975
I00
S'http://web2pyslices.com/'
p4976
tp4977
a(g4625
(S's\x08\x00\x00\x00Semantic'
tRp4978
I00
S'http://web2py.com/semantic'
p4979
tp4980
aasbasbasbasbasbasbasbag57
(g73
g59
NtRp4981
(dp4982
g62
(dp4983
sg71
g4738
sg64
(lp4984
g57
(g78
g59
NtRp4985
(dp4986
g62
(dp4987
sg71
g4981
sg64
(lp4988
g57
(g58
g59
NtRp4989
(dp4990
g62
(dp4991
g70
I2
ssg71
g4985
sg64
(lp4992
g57
(g66
g59
NtRp4993
(dp4994
g62
(dp4995
g70
I1
ssg71
Nsg64
(lp4996
g57
(g73
g59
NtRp4997
(dp4998
g62
(dp4999
sg71
g4993
sg64
(lp5000
g57
(g78
g59
NtRp5001
(dp5002
g62
(dp5003
sg71
g4997
sg64
(lp5004
g57
(g58
g59
NtRp5005
(dp5006
g62
(dp5007
g70
I1
ssg71
g5001
sg64
(lp5008
g4625
(S's\r\x00\x00\x00Documentation'
tRp5009
asbasbasbag57
(g73
g59
NtRp5010
(dp5011
g62
(dp5012
sg71
g4993
sg64
(lp5013
g57
(g78
g59
NtRp5014
(dp5015
g62
(dp5016
sg71
g5010
sg64
(lp5017
g57
(g58
g59
NtRp5018
(dp5019
g62
(dp5020
g70
I1
ssg71
g5014
sg64
(lp5021
I00
asbasbasbag57
(g73
g59
NtRp5022
(dp5023
g62
(dp5024
sg71
g4993
sg64
(lp5025
g57
(g78
g59
NtRp5026
(dp5027
g62
(dp5028
sg71
g5022
sg64
(lp5029
g57
(g58
g59
NtRp5030
(dp5031
g62
(dp5032
g70
I1
ssg71
g5026
sg64
(lp5033
S'http://www.web2py.com/book'
p5034
asbasbasbag57
(g73
g59
NtRp5035
(dp5036
g62
(dp5037
sg71
g4993
sg64
(lp5038
g57
(g78
g59
NtRp5039
(dp5040
g62
(dp5041
sg71
g5035
sg64
(lp5042
g57
(g58
g59
NtRp5043
(dp5044
g62
(dp5045
g70
I1
ssg71
g5039
sg64
(lp5046
(lp5047
(g4625
(S's\x07\x00\x00\x00Preface'
tRp5048
I00
S'http://www.web2py.com/book/default/chapter/00'
p5049
tp5050
a(g4625
(S's\x0c\x00\x00\x00Introduction'
tRp5051
I00
S'http://www.web2py.com/book/default/chapter/01'
p5052
tp5053
a(g4625
(S's\x06\x00\x00\x00Python'
tRp5054
I00
S'http://www.web2py.com/book/default/chapter/02'
p5055
tp5056
a(g4625
(S's\x08\x00\x00\x00Overview'
tRp5057
I00
S'http://www.web2py.com/book/default/chapter/03'
p5058
tp5059
a(g4625
(S's\x08\x00\x00\x00The Core'
tRp5060
I00
S'http://www.web2py.com/book/default/chapter/04'
p5061
tp5062
a(g4625
(S's\t\x00\x00\x00The Views'
tRp5063
I00
S'http://www.web2py.com/book/default/chapter/05'
p5064
tp5065
a(g4625
(S's\x08\x00\x00\x00Database'
tRp5066
I00
S'http://www.web2py.com/book/default/chapter/06'
p5067
tp5068
a(g4625
(S's\x14\x00\x00\x00Forms and Validators'
tRp5069
I00
S'http://www.web2py.com/book/default/chapter/07'
p5070
tp5071
a(g4625
(S's\r\x00\x00\x00Email and SMS'
tRp5072
I00
S'http://www.web2py.com/book/default/chapter/08'
p5073
tp5074
a(g4625
(S's\x0e\x00\x00\x00Access Control'
tRp5075
I00
S'http://www.web2py.com/book/default/chapter/09'
p5076
tp5077
a(g4625
(S's\x08\x00\x00\x00Services'
tRp5078
I00
S'http://www.web2py.com/book/default/chapter/10'
p5079
tp5080
a(g4625
(S's\x0c\x00\x00\x00Ajax Recipes'
tRp5081
I00
S'http://www.web2py.com/book/default/chapter/11'
p5082
tp5083
a(g4625
(S's\x16\x00\x00\x00Components and Plugins'
tRp5084
I00
S'http://www.web2py.com/book/default/chapter/12'
p5085
tp5086
a(g4625
(S's\x12\x00\x00\x00Deployment Recipes'
tRp5087
I00
S'http://www.web2py.com/book/default/chapter/13'
p5088
tp5089
a(g4625
(S's\r\x00\x00\x00Other Recipes'
tRp5090
I00
S'http://www.web2py.com/book/default/chapter/14'
p5091
tp5092
a(g4625
(S's\r\x00\x00\x00Buy this book'
tRp5093
I00
S'http://stores.lulu.com/web2py'
p5094
tp5095
aasbasbasbasbasbasbasbag57
(g73
g59
NtRp5096
(dp5097
g62
(dp5098
sg71
g4738
sg64
(lp5099
g57
(g78
g59
NtRp5100
(dp5101
g62
(dp5102
sg71
g5096
sg64
(lp5103
g57
(g58
g59
NtRp5104
(dp5105
g62
(dp5106
g70
I2
ssg71
g5100
sg64
(lp5107
g57
(g66
g59
NtRp5108
(dp5109
g62
(dp5110
g70
I1
ssg71
Nsg64
(lp5111
g57
(g73
g59
NtRp5112
(dp5113
g62
(dp5114
sg71
g5108
sg64
(lp5115
g57
(g78
g59
NtRp5116
(dp5117
g62
(dp5118
sg71
g5112
sg64
(lp5119
g57
(g58
g59
NtRp5120
(dp5121
g62
(dp5122
g70
I1
ssg71
g5116
sg64
(lp5123
g4625
(S's\t\x00\x00\x00Community'
tRp5124
asbasbasbag57
(g73
g59
NtRp5125
(dp5126
g62
(dp5127
sg71
g5108
sg64
(lp5128
g57
(g78
g59
NtRp5129
(dp5130
g62
(dp5131
sg71
g5125
sg64
(lp5132
g57
(g58
g59
NtRp5133
(dp5134
g62
(dp5135
g70
I1
ssg71
g5129
sg64
(lp5136
I00
asbasbasbag57
(g73
g59
NtRp5137
(dp5138
g62
(dp5139
sg71
g5108
sg64
(lp5140
g57
(g78
g59
NtRp5141
(dp5142
g62
(dp5143
sg71
g5137
sg64
(lp5144
g57
(g58
g59
NtRp5145
(dp5146
g62
(dp5147
g70
I1
ssg71
g5141
sg64
(lp5148
Nasbasbasbag57
(g73
g59
NtRp5149
(dp5150
g62
(dp5151
sg71
g5108
sg64
(lp5152
g57
(g78
g59
NtRp5153
(dp5154
g62
(dp5155
sg71
g5149
sg64
(lp5156
g57
(g58
g59
NtRp5157
(dp5158
g62
(dp5159
g70
I1
ssg71
g5153
sg64
(lp5160
(lp5161
(g4625
(S's\x06\x00\x00\x00Groups'
tRp5162
I00
S'http://www.web2py.com/examples/default/usergroups'
p5163
tp5164
a(g4625
(S's\x07\x00\x00\x00Twitter'
tRp5165
I00
S'http://twitter.com/web2py'
p5166
tp5167
a(g4625
(S's\t\x00\x00\x00Live Chat'
tRp5168
I00
S'http://webchat.freenode.net/?channels=web2py'
p5169
tp5170
aasbasbasbasbasbasbasbag57
(g73
g59
NtRp5171
(dp5172
g62
(dp5173
sg71
g4738
sg64
(lp5174
g57
(g78
g59
NtRp5175
(dp5176
g62
(dp5177
sg71
g5171
sg64
(lp5178
g57
(g58
g59
NtRp5179
(dp5180
g62
(dp5181
g70
I2
ssg71
g5175
sg64
(lp5182
g57
(g66
g59
NtRp5183
(dp5184
g62
(dp5185
g70
I1
ssg71
Nsg64
(lp5186
g57
(g73
g59
NtRp5187
(dp5188
g62
(dp5189
sg71
g5183
sg64
(lp5190
g57
(g78
g59
NtRp5191
(dp5192
g62
(dp5193
sg71
g5187
sg64
(lp5194
g57
(g58
g59
NtRp5195
(dp5196
g62
(dp5197
g70
I1
ssg71
g5191
sg64
(lp5198
g4625
(S's\x07\x00\x00\x00Plugins'
tRp5199
asbasbasbag57
(g73
g59
NtRp5200
(dp5201
g62
(dp5202
sg71
g5183
sg64
(lp5203
g57
(g78
g59
NtRp5204
(dp5205
g62
(dp5206
sg71
g5200
sg64
(lp5207
g57
(g58
g59
NtRp5208
(dp5209
g62
(dp5210
g70
I1
ssg71
g5204
sg64
(lp5211
I00
asbasbasbag57
(g73
g59
NtRp5212
(dp5213
g62
(dp5214
sg71
g5183
sg64
(lp5215
g57
(g78
g59
NtRp5216
(dp5217
g62
(dp5218
sg71
g5212
sg64
(lp5219
g57
(g58
g59
NtRp5220
(dp5221
g62
(dp5222
g70
I1
ssg71
g5216
sg64
(lp5223
Nasbasbasbag57
(g73
g59
NtRp5224
(dp5225
g62
(dp5226
sg71
g5183
sg64
(lp5227
g57
(g78
g59
NtRp5228
(dp5229
g62
(dp5230
sg71
g5224
sg64
(lp5231
g57
(g58
g59
NtRp5232
(dp5233
g62
(dp5234
g70
I1
ssg71
g5228
sg64
(lp5235
(lp5236
(S'plugin_wiki'
p5237
I00
S'http://web2py.com/examples/default/download'
p5238
tp5239
a(g4625
(S's\r\x00\x00\x00Other Plugins'
tRp5240
I00
g4970
tp5241
a(g4625
(S's\x0e\x00\x00\x00Layout Plugins'
tRp5242
I00
g4973
tp5243
aasbasbasbasbasbasbasbasbasbasbasbasbasbasbasbasbasbasbasbag57
(g73
g59
NtRp5244
(dp5245
g62
(dp5246
sg71
g4091
sg64
(lp5247
g57
(g78
g59
NtRp5248
(dp5249
g62
(dp5250
g82
g83
ssg71
g5244
sg64
(lp5251
S'meta'
p5252
asbag57
(g78
g59
NtRp5253
(dp5254
g62
(dp5255
g89
g90
ssg71
g5244
sg64
(lp5256
S':'
asbag57
(g78
g59
NtRp5257
(dp5258
g62
(dp5259
sg71
g5244
sg64
(lp5260
g57
(g58
g59
NtRp5261
(dp5262
g62
(dp5263
g70
I5
ssg71
g5257
sg64
(lp5264
g57
(g66
g59
NtRp5265
(dp5266
g62
(dp5267
g70
I4
ssg71
Nsg64
(lp5268
g57
(g73
g59
NtRp5269
(dp5270
g62
(dp5271
sg71
g5265
sg64
(lp5272
g57
(g78
g59
NtRp5273
(dp5274
g62
(dp5275
g82
g83
ssg71
g5269
sg64
(lp5276
S'author'
p5277
asbag57
(g78
g59
NtRp5278
(dp5279
g62
(dp5280
g89
g90
ssg71
g5269
sg64
(lp5281
S':'
asbag57
(g78
g59
NtRp5282
(dp5283
g62
(dp5284
sg71
g5269
sg64
(lp5285
g57
(g58
g59
NtRp5286
(dp5287
g62
(dp5288
g70
I4
ssg71
g5282
sg64
(lp5289
S'Your Name <you@example.com>'
p5290
asbasbasbag57
(g73
g59
NtRp5291
(dp5292
g62
(dp5293
sg71
g5265
sg64
(lp5294
g57
(g78
g59
NtRp5295
(dp5296
g62
(dp5297
g82
g83
ssg71
g5291
sg64
(lp5298
S'description'
p5299
asbag57
(g78
g59
NtRp5300
(dp5301
g62
(dp5302
g89
g90
ssg71
g5291
sg64
(lp5303
S':'
asbag57
(g78
g59
NtRp5304
(dp5305
g62
(dp5306
sg71
g5291
sg64
(lp5307
g57
(g58
g59
NtRp5308
(dp5309
g62
(dp5310
g70
I4
ssg71
g5304
sg64
(lp5311
S'a cool new app'
p5312
asbasbasbag57
(g73
g59
NtRp5313
(dp5314
g62
(dp5315
sg71
g5265
sg64
(lp5316
g57
(g78
g59
NtRp5317
(dp5318
g62
(dp5319
g82
g83
ssg71
g5313
sg64
(lp5320
S'generator'
p5321
asbag57
(g78
g59
NtRp5322
(dp5323
g62
(dp5324
g89
g90
ssg71
g5313
sg64
(lp5325
S':'
asbag57
(g78
g59
NtRp5326
(dp5327
g62
(dp5328
sg71
g5313
sg64
(lp5329
g57
(g58
g59
NtRp5330
(dp5331
g62
(dp5332
g70
I4
ssg71
g5326
sg64
(lp5333
S'Web2py Web Framework'
p5334
asbasbasbag57
(g73
g59
NtRp5335
(dp5336
g62
(dp5337
sg71
g5265
sg64
(lp5338
g57
(g78
g59
NtRp5339
(dp5340
g62
(dp5341
g82
g83
ssg71
g5335
sg64
(lp5342
S'keywords'
p5343
asbag57
(g78
g59
NtRp5344
(dp5345
g62
(dp5346
g89
g90
ssg71
g5335
sg64
(lp5347
S':'
asbag57
(g78
g59
NtRp5348
(dp5349
g62
(dp5350
sg71
g5335
sg64
(lp5351
g57
(g58
g59
NtRp5352
(dp5353
g62
(dp5354
g70
I4
ssg71
g5348
sg64
(lp5355
S'web2py, python, framework'
p5356
asbasbasbasbasbasbasbag57
(g73
g59
NtRp5357
(dp5358
g62
(dp5359
sg71
g4091
sg64
(lp5360
g57
(g78
g59
NtRp5361
(dp5362
g62
(dp5363
g82
g83
ssg71
g5357
sg64
(lp5364
S'models_to_run'
p5365
asbag57
(g78
g59
NtRp5366
(dp5367
g62
(dp5368
g89
g90
ssg71
g5357
sg64
(lp5369
S':'
asbag57
(g78
g59
NtRp5370
(dp5371
g62
(dp5372
sg71
g5357
sg64
(lp5373
g57
(g58
g59
NtRp5374
(dp5375
g62
(dp5376
g70
I5
ssg71
g5370
sg64
(lp5377
g57
(g66
g59
NtRp5378
(dp5379
g62
(dp5380
g70
I4
ssg71
Nsg64
(lp5381
g57
(g73
g59
NtRp5382
(dp5383
g62
(dp5384
sg71
g5378
sg64
(lp5385
g57
(g78
g59
NtRp5386
(dp5387
g62
(dp5388
sg71
g5382
sg64
(lp5389
g57
(g58
g59
NtRp5390
(dp5391
g62
(dp5392
g70
I4
ssg71
g5386
sg64
(lp5393
S'^\\w+\\.py$'
p5394
asbasbasbag57
(g73
g59
NtRp5395
(dp5396
g62
(dp5397
sg71
g5378
sg64
(lp5398
g57
(g78
g59
NtRp5399
(dp5400
g62
(dp5401
sg71
g5395
sg64
(lp5402
g57
(g58
g59
NtRp5403
(dp5404
g62
(dp5405
g70
I4
ssg71
g5399
sg64
(lp5406
S'^default/\\w+\\.py$'
p5407
asbasbasbag57
(g73
g59
NtRp5408
(dp5409
g62
(dp5410
sg71
g5378
sg64
(lp5411
g57
(g78
g59
NtRp5412
(dp5413
g62
(dp5414
sg71
g5408
sg64
(lp5415
g57
(g58
g59
NtRp5416
(dp5417
g62
(dp5418
g70
I4
ssg71
g5412
sg64
(lp5419
S'^default/add_category_2/\\w+\\.py$'
p5420
asbasbasbasbasbasbasbag57
(g73
g59
NtRp5421
(dp5422
g62
(dp5423
sg71
g4091
sg64
(lp5424
g57
(g78
g59
NtRp5425
(dp5426
g62
(dp5427
g82
g83
ssg71
g5421
sg64
(lp5428
S'postprocessing'
p5429
asbag57
(g78
g59
NtRp5430
(dp5431
g62
(dp5432
g89
g90
ssg71
g5421
sg64
(lp5433
S':'
asbag57
(g78
g59
NtRp5434
(dp5435
g62
(dp5436
sg71
g5421
sg64
(lp5437
g57
(g58
g59
NtRp5438
(dp5439
g62
(dp5440
g70
I5
ssg71
g5434
sg64
(lp5441
g57
(g66
g59
NtRp5442
(dp5443
g62
(dp5444
g70
I4
ssg71
Nsg64
(lp5445
sbasbasbasbag57
(g73
g59
NtRp5446
(dp5447
g62
(dp5448
sg71
g4091
sg64
(lp5449
g57
(g78
g59
NtRp5450
(dp5451
g62
(dp5452
g82
g83
ssg71
g5446
sg64
(lp5453
S'session_cookie_expires'
p5454
asbag57
(g78
g59
NtRp5455
(dp5456
g62
(dp5457
g89
g90
ssg71
g5446
sg64
(lp5458
S':'
asbag57
(g78
g59
NtRp5459
(dp5460
g62
(dp5461
sg71
g5446
sg64
(lp5462
g57
(g58
g59
NtRp5463
(dp5464
g62
(dp5465
g70
I5
ssg71
g5459
sg64
(lp5466
S'None'
p5467
asbasbasbag57
(g73
g59
NtRp5468
(dp5469
g62
(dp5470
sg71
g4091
sg64
(lp5471
g57
(g78
g59
NtRp5472
(dp5473
g62
(dp5474
g82
g83
ssg71
g5468
sg64
(lp5475
S'session_data_name'
p5476
asbag57
(g78
g59
NtRp5477
(dp5478
g62
(dp5479
g89
g90
ssg71
g5468
sg64
(lp5480
S':'
asbag57
(g78
g59
NtRp5481
(dp5482
g62
(dp5483
sg71
g5468
sg64
(lp5484
g57
(g58
g59
NtRp5485
(dp5486
g62
(dp5487
g70
I5
ssg71
g5481
sg64
(lp5488
S'session_data_ssad'
p5489
asbasbasbag57
(g73
g59
NtRp5490
(dp5491
g62
(dp5492
sg71
g4091
sg64
(lp5493
g57
(g78
g59
NtRp5494
(dp5495
g62
(dp5496
g82
g83
ssg71
g5490
sg64
(lp5497
S'session_file'
p5498
asbag57
(g78
g59
NtRp5499
(dp5500
g62
(dp5501
g89
g90
ssg71
g5490
sg64
(lp5502
S':'
asbag57
(g78
g59
NtRp5503
(dp5504
g62
(dp5505
sg71
g5490
sg64
(lp5506
g57
(g58
g59
NtRp5507
(dp5508
g62
(dp5509
g70
I5
ssg71
g5503
sg64
(lp5510
S"<open file '/home/urvashi/Desktop/WEB2PY/web2py/applications/SSAD/sessions/127.0.0.1-06631aa4-9f32-405a-a84b-a8d8a9131050', mode 'rb+' at 0x7f34545658a0>"
p5511
asbasbasbag57
(g73
g59
NtRp5512
(dp5513
g62
(dp5514
sg71
g4091
sg64
(lp5515
g57
(g78
g59
NtRp5516
(dp5517
g62
(dp5518
g82
g83
ssg71
g5512
sg64
(lp5519
S'session_filename'
p5520
asbag57
(g78
g59
NtRp5521
(dp5522
g62
(dp5523
g89
g90
ssg71
g5512
sg64
(lp5524
S':'
asbag57
(g78
g59
NtRp5525
(dp5526
g62
(dp5527
sg71
g5512
sg64
(lp5528
g57
(g58
g59
NtRp5529
(dp5530
g62
(dp5531
g70
I5
ssg71
g5525
sg64
(lp5532
S'/home/urvashi/Desktop/WEB2PY/web2py/applications/SSAD/sessions/127.0.0.1-06631aa4-9f32-405a-a84b-a8d8a9131050'
p5533
asbasbasbag57
(g73
g59
NtRp5534
(dp5535
g62
(dp5536
sg71
g4091
sg64
(lp5537
g57
(g78
g59
NtRp5538
(dp5539
g62
(dp5540
g82
g83
ssg71
g5534
sg64
(lp5541
S'session_id'
p5542
asbag57
(g78
g59
NtRp5543
(dp5544
g62
(dp5545
g89
g90
ssg71
g5534
sg64
(lp5546
S':'
asbag57
(g78
g59
NtRp5547
(dp5548
g62
(dp5549
sg71
g5534
sg64
(lp5550
g57
(g58
g59
NtRp5551
(dp5552
g62
(dp5553
g70
I5
ssg71
g5547
sg64
(lp5554
g661
asbasbasbag57
(g73
g59
NtRp5555
(dp5556
g62
(dp5557
sg71
g4091
sg64
(lp5558
g57
(g78
g59
NtRp5559
(dp5560
g62
(dp5561
g82
g83
ssg71
g5555
sg64
(lp5562
S'session_id_name'
p5563
asbag57
(g78
g59
NtRp5564
(dp5565
g62
(dp5566
g89
g90
ssg71
g5555
sg64
(lp5567
S':'
asbag57
(g78
g59
NtRp5568
(dp5569
g62
(dp5570
sg71
g5555
sg64
(lp5571
g57
(g58
g59
NtRp5572
(dp5573
g62
(dp5574
g70
I5
ssg71
g5568
sg64
(lp5575
g4148
asbasbasbag57
(g73
g59
NtRp5576
(dp5577
g62
(dp5578
sg71
g4091
sg64
(lp5579
g57
(g78
g59
NtRp5580
(dp5581
g62
(dp5582
g82
g83
ssg71
g5576
sg64
(lp5583
S'session_locked'
p5584
asbag57
(g78
g59
NtRp5585
(dp5586
g62
(dp5587
g89
g90
ssg71
g5576
sg64
(lp5588
S':'
asbag57
(g78
g59
NtRp5589
(dp5590
g62
(dp5591
sg71
g5576
sg64
(lp5592
g57
(g58
g59
NtRp5593
(dp5594
g62
(dp5595
g70
I5
ssg71
g5589
sg64
(lp5596
g2041
asbasbasbag57
(g73
g59
NtRp5597
(dp5598
g62
(dp5599
sg71
g4091
sg64
(lp5600
g57
(g78
g59
NtRp5601
(dp5602
g62
(dp5603
g82
g83
ssg71
g5597
sg64
(lp5604
S'session_new'
p5605
asbag57
(g78
g59
NtRp5606
(dp5607
g62
(dp5608
g89
g90
ssg71
g5597
sg64
(lp5609
S':'
asbag57
(g78
g59
NtRp5610
(dp5611
g62
(dp5612
sg71
g5597
sg64
(lp5613
g57
(g58
g59
NtRp5614
(dp5615
g62
(dp5616
g70
I5
ssg71
g5610
sg64
(lp5617
g100
asbasbasbag57
(g73
g59
NtRp5618
(dp5619
g62
(dp5620
sg71
g4091
sg64
(lp5621
g57
(g78
g59
NtRp5622
(dp5623
g62
(dp5624
g82
g83
ssg71
g5618
sg64
(lp5625
S'session_storage_type'
p5626
asbag57
(g78
g59
NtRp5627
(dp5628
g62
(dp5629
g89
g90
ssg71
g5618
sg64
(lp5630
S':'
asbag57
(g78
g59
NtRp5631
(dp5632
g62
(dp5633
sg71
g5618
sg64
(lp5634
g57
(g58
g59
NtRp5635
(dp5636
g62
(dp5637
g70
I5
ssg71
g5631
sg64
(lp5638
g3597
asbasbasbag57
(g73
g59
NtRp5639
(dp5640
g62
(dp5641
sg71
g4091
sg64
(lp5642
g57
(g78
g59
NtRp5643
(dp5644
g62
(dp5645
g82
g83
ssg71
g5639
sg64
(lp5646
S'status'
p5647
asbag57
(g78
g59
NtRp5648
(dp5649
g62
(dp5650
g89
g90
ssg71
g5639
sg64
(lp5651
S':'
asbag57
(g78
g59
NtRp5652
(dp5653
g62
(dp5654
sg71
g5639
sg64
(lp5655
g57
(g58
g59
NtRp5656
(dp5657
g62
(dp5658
g70
I5
ssg71
g5652
sg64
(lp5659
S'200'
p5660
asbasbasbag57
(g73
g59
NtRp5661
(dp5662
g62
(dp5663
sg71
g4091
sg64
(lp5664
g57
(g78
g59
NtRp5665
(dp5666
g62
(dp5667
g82
g83
ssg71
g5661
sg64
(lp5668
S'subtitle'
p5669
asbag57
(g78
g59
NtRp5670
(dp5671
g62
(dp5672
g89
g90
ssg71
g5661
sg64
(lp5673
S':'
asbag57
(g78
g59
NtRp5674
(dp5675
g62
(dp5676
sg71
g5661
sg64
(lp5677
g57
(g58
g59
NtRp5678
(dp5679
g62
(dp5680
g70
I5
ssg71
g5674
sg64
(lp5681
g4625
(S's\r\x00\x00\x00customize me!'
tRp5682
asbasbasbag57
(g73
g59
NtRp5683
(dp5684
g62
(dp5685
sg71
g4091
sg64
(lp5686
g57
(g78
g59
NtRp5687
(dp5688
g62
(dp5689
g82
g83
ssg71
g5683
sg64
(lp5690
S'title'
p5691
asbag57
(g78
g59
NtRp5692
(dp5693
g62
(dp5694
g89
g90
ssg71
g5683
sg64
(lp5695
S':'
asbag57
(g78
g59
NtRp5696
(dp5697
g62
(dp5698
sg71
g5683
sg64
(lp5699
g57
(g58
g59
NtRp5700
(dp5701
g62
(dp5702
g70
I5
ssg71
g5696
sg64
(lp5703
S'Ssad'
p5704
asbasbasbag57
(g73
g59
NtRp5705
(dp5706
g62
(dp5707
sg71
g4091
sg64
(lp5708
g57
(g78
g59
NtRp5709
(dp5710
g62
(dp5711
g82
g83
ssg71
g5705
sg64
(lp5712
S'view'
p5713
asbag57
(g78
g59
NtRp5714
(dp5715
g62
(dp5716
g89
g90
ssg71
g5705
sg64
(lp5717
S':'
asbag57
(g78
g59
NtRp5718
(dp5719
g62
(dp5720
sg71
g5705
sg64
(lp5721
g57
(g58
g59
NtRp5722
(dp5723
g62
(dp5724
g70
I5
ssg71
g5718
sg64
(lp5725
S'default/add_category_2.html'
p5726
asbasbasbasbasbsS'locals'
p5727
(dp5728
S'i'
S'0'
sS'self'
p5729
S'<Rows (0)>'
p5730
sssS'traceback'
p5731
S'Traceback (most recent call last):\n  File "/home/urvashi/Desktop/WEB2PY/web2py/gluon/restricted.py", line 212, in restricted\n    exec ccode in environment\n  File "/home/urvashi/Desktop/WEB2PY/web2py/applications/SSAD/controllers/default.py", line 119, in <module>\n  File "/home/urvashi/Desktop/WEB2PY/web2py/gluon/globals.py", line 193, in <lambda>\n    self._caller = lambda f: f()\n  File "/home/urvashi/Desktop/WEB2PY/web2py/applications/SSAD/controllers/default.py", line 68, in add_category_2\n    records=list[0][\'name\']\n  File "/home/urvashi/Desktop/WEB2PY/web2py/gluon/dal.py", line 9170, in __getitem__\n    row = self.records[i]\nIndexError: list index out of range\n'
p5732
s.