(dp1
S'output'
p2
S"<type 'exceptions.IndexError'> list index out of range"
p3
sS'layer'
p4
S'/home/urvashi/Desktop/WEB2PY/web2py/applications/SSAD/views/default/view_posts.html'
p5
sS'code'
p6
S'response.write(\'<!DOCTYPE html>\\n<!-- paulirish.com/2008/conditional-stylesheets-vs-css-hacks-answer-neither/ -->\\n<!--[if lt IE 7]><html class="ie ie6 ie-lte9 ie-lte8 ie-lte7 no-js" lang="\', escape=False)\nresponse.write(T.accepted_language or \'en\')\nresponse.write(\'"> <![endif]-->\\n<!--[if IE 7]><html class="ie ie7 ie-lte9 ie-lte8 ie-lte7 no-js" lang="\', escape=False)\nresponse.write(T.accepted_language or \'en\')\nresponse.write(\'"> <![endif]-->\\n<!--[if IE 8]><html class="ie ie8 ie-lte9 ie-lte8 no-js" lang="\', escape=False)\nresponse.write(T.accepted_language or \'en\')\nresponse.write(\'"> <![endif]-->\\n<!--[if IE 9]><html class="ie9 ie-lte9 no-js" lang="\', escape=False)\nresponse.write(T.accepted_language or \'en\')\nresponse.write(\'"> <![endif]-->\\n<!--[if (gt IE 9)|!(IE)]><!--> <html class="no-js" lang="\', escape=False)\nresponse.write(T.accepted_language or \'en\')\nresponse.write(\'"> <!--<![endif]-->\\n<head>\\n  <meta charset="utf-8" />\\n  <!-- www.phpied.com/conditional-comments-block-downloads/ -->\\n  <!-- Always force latest IE rendering engine\\n       (even in intranet) & Chrome Frame\\n       Remove this if you use the .htaccess -->\\n  <!--[if IE]>\\n      <meta http-equiv="X-UA-Compatible" content="IE=edge\', escape=False)\nresponse.write(not request.is_local and \',chrome=1\' or \'\')\nresponse.write(\'">\\n      <![endif]-->\\n\\n  <title>\', escape=False)\nresponse.write(response.title or request.application)\nresponse.write(\'</title>\\n\\n  <!-- http://dev.w3.org/html5/markup/meta.name.html -->\\n  <meta name="application-name" content="\', escape=False)\nresponse.write(request.application)\nresponse.write(\'" />\\n\\n  <!-- Speaking of Google, don\\\'t forget to set your site up:\\n       http://google.com/webmasters -->\\n  <meta name="google-site-verification" content="" />\\n\\n  <!--  Mobile Viewport Fix\\n        j.mp/mobileviewport & davidbcalhoun.com/2010/viewport-metatag\\n        device-width: Occupy full width of the screen in its current orientation\\n        initial-scale = 1.0 retains dimensions instead of zooming out if page height > device height\\n        user-scalable = yes allows the user to zoom in -->\\n  <meta name="viewport" content="width=device-width, initial-scale=1.0" />\\n\\n  <link rel="shortcut icon" href="\', escape=False)\nresponse.write(URL(\'static\',\'images/favicon.ico\'))\nresponse.write(\'" type="image/x-icon">\\n  <link rel="apple-touch-icon" href="\', escape=False)\nresponse.write(URL(\'static\',\'images/favicon.png\'))\nresponse.write(\'">\\n\\n  <!-- All JavaScript at the bottom, except for Modernizr which enables\\n       HTML5 elements & feature detects -->\\n  <script src="\', escape=False)\nresponse.write(URL(\'static\',\'js/modernizr.custom.js\'))\nresponse.write(\'"></script>\\n\\n  <!-- include stylesheets -->\\n  \', escape=False)\nresponse.files.append(URL(\'static\',\'css/web2py.css\'))\nresponse.files.append(URL(\'static\',\'css/bootstrap.min.css\'))\nresponse.files.append(URL(\'static\',\'css/bootstrap-responsive.min.css\'))\nresponse.files.append(URL(\'static\',\'css/web2py_bootstrap.css\'))\nresponse.write(\'\\n\\n  \', escape=False)\nresponse.write(\'<script type="text/javascript"><!--\\n    // These variables are used by the web2py_ajax_init function in web2py_ajax.js (which is loaded below).\\n    var w2p_ajax_confirm_message = "\', escape=False)\nresponse.write(T(\'Are you sure you want to delete this object?\'))\nresponse.write(\'";\\n    var w2p_ajax_date_format = "\', escape=False)\nresponse.write(T(\'%Y-%m-%d\'))\nresponse.write(\'";\\n    var w2p_ajax_datetime_format = "\', escape=False)\nresponse.write(T(\'%Y-%m-%d %H:%M:%S\'))\nresponse.write(\'";\\n    //--></script>\\n\', escape=False)\nresponse.files.insert(0,URL(\'static\',\'js/jquery.js\'))\nresponse.files.insert(1,URL(\'static\',\'css/calendar.css\'))\nresponse.files.insert(2,URL(\'static\',\'js/calendar.js\'))\nresponse.files.insert(3,URL(\'static\',\'js/web2py.js\'))\nresponse.include_meta()\nresponse.include_files()\nresponse.write(\'\\n\', escape=False)\nresponse.write(\'\\n\\n  \', escape=False)\n# using sidebars need to know what sidebar you want to use\nleft_sidebar_enabled = globals().get(\'left_sidebar_enabled\',False)\nright_sidebar_enabled = globals().get(\'right_sidebar_enabled\',False)\nmiddle_columns = {0:\'span12\',1:\'span9\',2:\'span6\'}[\n(left_sidebar_enabled and 1 or 0)+(right_sidebar_enabled and 1 or 0)]\nresponse.write(\'\\n\\n  <!-- uncomment here to load jquery-ui\\n       <link rel="stylesheet" href="http://ajax.googleapis.com/ajax/libs/jqueryui/1.8.16/themes/base/jquery-ui.css" type="text/css" media="all" />\\n       <script src="http://ajax.googleapis.com/ajax/libs/jqueryui/1.8.16/jquery-ui.min.js" type="text/javascript"></script>\\n       uncomment to load jquery-ui //-->\\n  <noscript><link href="\', escape=False)\nresponse.write(URL(\'static\', \'css/web2py_bootstrap_nojs.css\'))\nresponse.write(\'" rel="stylesheet" type="text/css" /></noscript>\\n  \', escape=False)\nresponse.write(\'\\n</head>\\n\\n<body>\\n  <!-- Navbar ================================================== -->\\n  <div class="navbar navbar-inverse navbar-fixed-top">\\n    <div class="flash">\', escape=False)\nresponse.write(response.flash or \'\')\nresponse.write(\'</div>\\n    <div class="navbar-inner">\\n      <div class="container">\\n        <!-- the next tag is necessary for bootstrap menus, do not remove -->\\n        <button type="button" class="btn btn-navbar" data-toggle="collapse" data-target=".nav-collapse">\\n          <span class="icon-bar"></span>\\n          <span class="icon-bar"></span>\\n          <span class="icon-bar"></span>\\n        </button>\\n\\t\', escape=False)\nresponse.write(response.logo or \'\')\nresponse.write(\'\\n        <ul id="navbar" class="nav pull-right">\', escape=False)\nresponse.write(\'auth\' in globals() and auth.navbar(mode="dropdown") or \'\')\nresponse.write(\'</ul>\\n        <div class="nav-collapse">\\n          \', escape=False)\nis_mobile=request.user_agent().is_mobile\nresponse.write(\'\\n          \', escape=False)\nif response.menu:\n    response.write(\'\\n          \', escape=False)\n    response.write(MENU(response.menu, _class=\'mobile-menu nav\' if is_mobile else \'nav\',mobile=is_mobile,li_class=\'dropdown\',ul_class=\'dropdown-menu\'))\n    response.write(\'\\n          \', escape=False)\n    pass\nresponse.write(\'\\n        </div><!--/.nav-collapse -->\\n      </div>\\n    </div>\\n  </div><!--/top navbar -->\\n\\n  <div class="container">\\n    <!-- Masthead ================================================== -->\\n    <header class="mastheader row" id="header">\\n        <div class="span12">\\n            <div class="page-header">\\n                <h1>\\n                    \', escape=False)\nresponse.write(response.title or request.application)\nresponse.write(\'\\n                    <small>\', escape=False)\nresponse.write(response.subtitle or \'\')\nresponse.write(\'</small>\\n                </h1>\\n            </div>\\n        </div>\\n    </header>\\n\\n    <section id="main" class="main row">\\n        \', escape=False)\nif left_sidebar_enabled:\n    response.write(\'\\n        <div class="span3 left-sidebar">\\n            \', escape=False)\n    response.write(\'\\n            <h3>Left Sidebar</h3>\\n            <p></p>\\n            \', escape=False)\n    response.write(\'\\n        </div>\\n        \', escape=False)\n    pass\nresponse.write(\'\\n\\n        <div class="\', escape=False)\nresponse.write(middle_columns)\nresponse.write(\'">\\n            \', escape=False)\nresponse.write(\'\\n            \', escape=False)\nresponse.write(\'\\n<h2>My Posts</h2>\\n\\n\', escape=False)\nfor i in range(len(lists)):\n    response.write(\'\\nHeading : <a href="\', escape=False)\n    response.write(lists[i][\'links.url\'])\n    response.write(\'" target="_blank">\', escape=False)\n    response.write(lists[i][\'links.heading\'])\n    response.write(\'</a><br>\\n\', escape=False)\n    vi=str(lists[i][\'links.video_link\'])\n    response.write(\'\\n\', escape=False)\n    if vi!=\'\':\n        response.write(\'\\n\', escape=False)\n        vo=vi.split(\'=\')\n        response.write(\'\\n\', escape=False)\n        v=vo[1]\n        response.write(\'\\nVideo Link : <iframe width="560" height="315" src="//www.youtube.com/embed/\', escape=False)\n        response.write(v)\n        response.write(\'" frameborder="0" allowfullscreen></iframe><br>\\n\', escape=False)\n        pass\n    response.write(\'\\n\\n\\n\\nCategory : \', escape=False)\n    response.write(lists[i][\'links.category\'])\n    response.write(\'<br>\\nLikes : \', escape=False)\n    response.write(lists[i][\'links.likes\'])\n    response.write(\'<br>\\nDislikes : \', escape=False)\n    response.write(lists[i][\'links.dislikes\'])\n    response.write(\'<br>\\n\\n\', escape=False)\n    for k in range(len(com)):\n        response.write(\'\\n\', escape=False)\n        if lists[i][\'links.id\']==com[k][\'comments.link\']:\n            response.write(\'\\nComment : \', escape=False)\n            response.write(com[k][\'comments.commented\'])\n            response.write(\'\\t\\n<br>\\n\', escape=False)\n            da=str(com[k][\'comments.date_com\'])\n            response.write(\'\\n\', escape=False)\n            dat=da.split()\n            response.write(\'\\n\', escape=False)\n            ti=str(com[k][\'comments.time_com\'])\n            response.write(\'\\n\', escape=False)\n            tim=ti.split()\n            response.write(\'\\nOn : \', escape=False)\n            response.write(dat[0])\n            response.write(\'<br>\\nAt : \', escape=False)\n            response.write(tim[1])\n            response.write(\'<br>\\n\\n\\n\\n\', escape=False)\n            for m in range(len(ids)):\n                response.write(\'\\n\', escape=False)\n                if com[k][\'comments.usr\']==ids[m][\'auth_user.id\']:\n                    response.write(\'\\n\', escape=False)\n                    f=ids[m][\'auth_user.first_name\']\n                    response.write(\'\\n    \', escape=False)\n                    l=ids[m][\'auth_user.last_name\']\n                    response.write(\'\\n    \', escape=False)\n                    n=f + \' \' + l\n                    response.write(\'\\n    \', escape=False)\n                    pass\n                response.write(\'\\n\', escape=False)\n                pass\n            response.write(\'\\nby: \', escape=False)\n            response.write(n)\n            response.write(\'<br><br>\\n\', escape=False)\n            pass\n        response.write(\'\\n\', escape=False)\n        pass\n    response.write(\'\\n<br>\\n\\n\\n\\n\\n<form action="edit_post" method="POST">\\n\\t<input type="submit" name="edit" value="Edit">\\n    <input type="hidden" name="link" value="\', escape=False)\n    response.write(lists[i][\'links.id\'])\n    response.write(\'">\\n</form>\\n<form action="del_post" method="POST">\\n\\t<input type="submit" name="del" value="Delete">\\n\\t <input type="hidden" name="link" value="\', escape=False)\n    response.write(lists[i][\'links.id\'])\n    response.write(\'">\\n</form>\\n<form action="comment.html" method="POST">\\n    <input type="hidden" name="link" value= "\', escape=False)\n    response.write(lists[i][\'links.id\'])\n    response.write(\'">\\n    <input type="hidden" name="cat" value="\', escape=False)\n    response.write(lists[i][\'links.category\'])\n    response.write(\'">\\n    <input type="submit" name="commentbutton" value="Comment">\\n</form>\\n\', escape=False)\n    pass\nresponse.write(\'\\n\', escape=False)\nresponse.write(\'\\n            \', escape=False)\nresponse.write(\'\\n        </div>\\n\\n        \', escape=False)\nif right_sidebar_enabled:\n    response.write(\'\\n        <div class="span3">\\n            \', escape=False)\n    response.write(\'\\n            <h3>Right Sidebar</h3>\\n            <p></p>\\n            \', escape=False)\n    response.write(\'\\n        </div>\\n        \', escape=False)\n    pass\nresponse.write(\'\\n    </section><!--/main-->\\n\\n    <!-- Footer ================================================== -->\\n    <div class="row">\\n        <footer class="footer span12" id="footer">\\n            <div class="footer-content">\\n                \', escape=False)\nresponse.write(\' <!-- this is default footer -->\\n                <div class="copyright pull-left">\', escape=False)\nresponse.write(T(\'Copyright\'))\nresponse.write(\' &#169; \', escape=False)\nresponse.write(request.now.year)\nresponse.write(\'</div>\\n                <div id="poweredBy" class="pull-right">\\n                    \', escape=False)\nresponse.write(T(\'Powered by\'))\nresponse.write(\'\\n                    <a href="http://www.web2py.com/">web2py</a>\\n                </div>\\n                \', escape=False)\nresponse.write(\'\\n            </div>\\n        </footer>\\n    </div>\\n\\n  </div> <!-- /container -->\\n\\n  <!-- The javascript =============================================\\n       (Placed at the end of the document so the pages load faster) -->\\n  <script src="\', escape=False)\nresponse.write(URL(\'static\',\'js/bootstrap.min.js\'))\nresponse.write(\'"></script>\\n  <script src="\', escape=False)\nresponse.write(URL(\'static\',\'js/web2py_bootstrap.js\'))\nresponse.write(\'"></script>\\n  <!--[if lt IE 7 ]>\\n      <script src="\', escape=False)\nresponse.write(URL(\'static\',\'js/dd_belatedpng.js\'))\nresponse.write(\'"></script>\\n      <script> DD_belatedPNG.fix(\\\'img, .png_bg\\\'); //fix any <img> or .png_bg background-images </script>\\n      <![endif]-->\\n  \\n  \', escape=False)\nif response.google_analytics_id:\n    response.write(\'\\n  <script src="\', escape=False)\n    response.write(URL(\'static\',\'js/analytics.js\'))\n    response.write(\'"></script>\\n  <script type="text/javascript">\\n  analytics.initialize({\\n    \\\'Google Analytics\\\':{trackingId:\\\'\', escape=False)\n    response.write(response.google_analytics_id)\n    response.write("\'} \\n  });</script>\\n  ", escape=False)\n    pass\nresponse.write(\'\\n  <script src="\', escape=False)\nresponse.write(URL(\'static\',\'js/share.js\',vars=dict(static=URL(\'static\',\'images\'))))\nresponse.write(\'"></script>\\n</body>\\n</html>\\n\\n\', escape=False)'
p7
sS'snapshot'
p8
(dp9
S'exception'
p10
(dp11
S'__hash__'
p12
S"<method-wrapper '__hash__' of exceptions.IndexError object>"
p13
sS'__setattr__'
p14
S"<method-wrapper '__setattr__' of exceptions.IndexError object>"
p15
sS'__reduce_ex__'
p16
S'<built-in method __reduce_ex__ of exceptions.IndexError object>'
p17
sS'__getslice__'
p18
S"<method-wrapper '__getslice__' of exceptions.IndexError object>"
p19
sS'__getitem__'
p20
S"<method-wrapper '__getitem__' of exceptions.IndexError object>"
p21
sS'__setstate__'
p22
S'<built-in method __setstate__ of exceptions.IndexError object>'
p23
sS'args'
p24
S"('list index out of range',)"
p25
sS'__reduce__'
p26
S'<built-in method __reduce__ of exceptions.IndexError object>'
p27
sS'__str__'
p28
S"<method-wrapper '__str__' of exceptions.IndexError object>"
p29
sS'__format__'
p30
S'<built-in method __format__ of exceptions.IndexError object>'
p31
sS'__getattribute__'
p32
S"<method-wrapper '__getattribute__' of exceptions.IndexError object>"
p33
sS'__class__'
p34
S"<type 'exceptions.IndexError'>"
p35
sS'__unicode__'
p36
S'<built-in method __unicode__ of exceptions.IndexError object>'
p37
sS'__delattr__'
p38
S"<method-wrapper '__delattr__' of exceptions.IndexError object>"
p39
sS'__subclasshook__'
p40
S'<built-in method __subclasshook__ of type object>'
p41
sS'__repr__'
p42
S"<method-wrapper '__repr__' of exceptions.IndexError object>"
p43
sS'__dict__'
p44
S'{}'
p45
sS'__sizeof__'
p46
S'<built-in method __sizeof__ of exceptions.IndexError object>'
p47
sS'__doc__'
p48
S"'Sequence index out of range.'"
p49
sS'__init__'
p50
S"<method-wrapper '__init__' of exceptions.IndexError object>"
p51
sS'__new__'
p52
S'<built-in method __new__ of type object>'
p53
ssS'evalue'
p54
S'list index out of range'
p55
sS'request'
p56
ccopy_reg
_reconstructor
p57
(cgluon.html
BEAUTIFY
p58
c__builtin__
object
p59
NtRp60
(dp61
S'attributes'
p62
(dp63
sS'components'
p64
(lp65
g57
(cgluon.html
TABLE
p66
g59
NtRp67
(dp68
g62
(dp69
S'level'
p70
I5
ssS'parent'
p71
Nsg64
(lp72
g57
(cgluon.html
TR
p73
g59
NtRp74
(dp75
g62
(dp76
sg71
g67
sg64
(lp77
g57
(cgluon.html
TD
p78
g59
NtRp79
(dp80
g62
(dp81
S'_style'
p82
S'font-weight:bold;vertical-align:top'
p83
ssg71
g74
sg64
(lp84
S'ajax'
p85
asbag57
(g78
g59
NtRp86
(dp87
g62
(dp88
S'_valign'
p89
S'top'
p90
ssg71
g74
sg64
(lp91
S':'
asbag57
(g78
g59
NtRp92
(dp93
g62
(dp94
sg71
g74
sg64
(lp95
g57
(g58
g59
NtRp96
(dp97
g62
(dp98
g70
I5
ssg71
g92
sg64
(lp99
S'False'
p100
asbasbasbag57
(g73
g59
NtRp101
(dp102
g62
(dp103
sg71
g67
sg64
(lp104
g57
(g78
g59
NtRp105
(dp106
g62
(dp107
g82
g83
ssg71
g101
sg64
(lp108
S'application'
p109
asbag57
(g78
g59
NtRp110
(dp111
g62
(dp112
g89
g90
ssg71
g101
sg64
(lp113
S':'
asbag57
(g78
g59
NtRp114
(dp115
g62
(dp116
sg71
g101
sg64
(lp117
g57
(g58
g59
NtRp118
(dp119
g62
(dp120
g70
I5
ssg71
g114
sg64
(lp121
S'SSAD'
p122
asbasbasbag57
(g73
g59
NtRp123
(dp124
g62
(dp125
sg71
g67
sg64
(lp126
g57
(g78
g59
NtRp127
(dp128
g62
(dp129
g82
g83
ssg71
g123
sg64
(lp130
g24
asbag57
(g78
g59
NtRp131
(dp132
g62
(dp133
g89
g90
ssg71
g123
sg64
(lp134
S':'
asbag57
(g78
g59
NtRp135
(dp136
g62
(dp137
sg71
g123
sg64
(lp138
g57
(g58
g59
NtRp139
(dp140
g62
(dp141
g70
I5
ssg71
g135
sg64
(lp142
g57
(g66
g59
NtRp143
(dp144
g62
(dp145
g70
I4
ssg71
Nsg64
(lp146
sbasbasbasbag57
(g73
g59
NtRp147
(dp148
g62
(dp149
sg71
g67
sg64
(lp150
g57
(g78
g59
NtRp151
(dp152
g62
(dp153
g82
g83
ssg71
g147
sg64
(lp154
S'body'
p155
asbag57
(g78
g59
NtRp156
(dp157
g62
(dp158
g89
g90
ssg71
g147
sg64
(lp159
S':'
asbag57
(g78
g59
NtRp160
(dp161
g62
(dp162
sg71
g147
sg64
(lp163
g57
(g58
g59
NtRp164
(dp165
g62
(dp166
g70
I5
ssg71
g160
sg64
(lp167
S'<cStringIO.StringO object at 0x7fd1e4082a78>'
p168
asbasbasbag57
(g73
g59
NtRp169
(dp170
g62
(dp171
sg71
g67
sg64
(lp172
g57
(g78
g59
NtRp173
(dp174
g62
(dp175
g82
g83
ssg71
g169
sg64
(lp176
S'cid'
p177
asbag57
(g78
g59
NtRp178
(dp179
g62
(dp180
g89
g90
ssg71
g169
sg64
(lp181
S':'
asbag57
(g78
g59
NtRp182
(dp183
g62
(dp184
sg71
g169
sg64
(lp185
g57
(g58
g59
NtRp186
(dp187
g62
(dp188
g70
I5
ssg71
g182
sg64
(lp189
S'None'
p190
asbasbasbag57
(g73
g59
NtRp191
(dp192
g62
(dp193
sg71
g67
sg64
(lp194
g57
(g78
g59
NtRp195
(dp196
g62
(dp197
g82
g83
ssg71
g191
sg64
(lp198
S'client'
p199
asbag57
(g78
g59
NtRp200
(dp201
g62
(dp202
g89
g90
ssg71
g191
sg64
(lp203
S':'
asbag57
(g78
g59
NtRp204
(dp205
g62
(dp206
sg71
g191
sg64
(lp207
g57
(g58
g59
NtRp208
(dp209
g62
(dp210
g70
I5
ssg71
g204
sg64
(lp211
S'127.0.0.1'
p212
asbasbasbag57
(g73
g59
NtRp213
(dp214
g62
(dp215
sg71
g67
sg64
(lp216
g57
(g78
g59
NtRp217
(dp218
g62
(dp219
g82
g83
ssg71
g213
sg64
(lp220
S'controller'
p221
asbag57
(g78
g59
NtRp222
(dp223
g62
(dp224
g89
g90
ssg71
g213
sg64
(lp225
S':'
asbag57
(g78
g59
NtRp226
(dp227
g62
(dp228
sg71
g213
sg64
(lp229
g57
(g58
g59
NtRp230
(dp231
g62
(dp232
g70
I5
ssg71
g226
sg64
(lp233
S'default'
p234
asbasbasbag57
(g73
g59
NtRp235
(dp236
g62
(dp237
sg71
g67
sg64
(lp238
g57
(g78
g59
NtRp239
(dp240
g62
(dp241
g82
g83
ssg71
g235
sg64
(lp242
S'cookies'
p243
asbag57
(g78
g59
NtRp244
(dp245
g62
(dp246
g89
g90
ssg71
g235
sg64
(lp247
S':'
asbag57
(g78
g59
NtRp248
(dp249
g62
(dp250
sg71
g235
sg64
(lp251
g57
(g58
g59
NtRp252
(dp253
g62
(dp254
g70
I5
ssg71
g248
sg64
(lp255
g57
(g66
g59
NtRp256
(dp257
g62
(dp258
g70
I4
ssg71
Nsg64
(lp259
g57
(g73
g59
NtRp260
(dp261
g62
(dp262
sg71
g256
sg64
(lp263
g57
(g78
g59
NtRp264
(dp265
g62
(dp266
g82
g83
ssg71
g260
sg64
(lp267
S'session_id_admin'
p268
asbag57
(g78
g59
NtRp269
(dp270
g62
(dp271
g89
g90
ssg71
g260
sg64
(lp272
S':'
asbag57
(g78
g59
NtRp273
(dp274
g62
(dp275
sg71
g260
sg64
(lp276
g57
(g58
g59
NtRp277
(dp278
g62
(dp279
g70
I4
ssg71
g273
sg64
(lp280
S'127.0.0.1-147a3c4c-1424-4d1e-9801-607fa9398607'
p281
ag57
(g66
g59
NtRp282
(dp283
g62
(dp284
g70
I3
ssg71
Nsg64
(lp285
g57
(g73
g59
NtRp286
(dp287
g62
(dp288
sg71
g282
sg64
(lp289
g57
(g78
g59
NtRp290
(dp291
g62
(dp292
g82
g83
ssg71
g286
sg64
(lp293
S'comment'
p294
asbag57
(g78
g59
NtRp295
(dp296
g62
(dp297
g89
g90
ssg71
g286
sg64
(lp298
S':'
asbag57
(g78
g59
NtRp299
(dp300
g62
(dp301
sg71
g286
sg64
(lp302
g57
(g58
g59
NtRp303
(dp304
g62
(dp305
g70
I3
ssg71
g299
sg64
(lp306
S''
asbasbasbag57
(g73
g59
NtRp307
(dp308
g62
(dp309
sg71
g282
sg64
(lp310
g57
(g78
g59
NtRp311
(dp312
g62
(dp313
g82
g83
ssg71
g307
sg64
(lp314
S'domain'
p315
asbag57
(g78
g59
NtRp316
(dp317
g62
(dp318
g89
g90
ssg71
g307
sg64
(lp319
S':'
asbag57
(g78
g59
NtRp320
(dp321
g62
(dp322
sg71
g307
sg64
(lp323
g57
(g58
g59
NtRp324
(dp325
g62
(dp326
g70
I3
ssg71
g320
sg64
(lp327
S''
asbasbasbag57
(g73
g59
NtRp328
(dp329
g62
(dp330
sg71
g282
sg64
(lp331
g57
(g78
g59
NtRp332
(dp333
g62
(dp334
g82
g83
ssg71
g328
sg64
(lp335
S'expires'
p336
asbag57
(g78
g59
NtRp337
(dp338
g62
(dp339
g89
g90
ssg71
g328
sg64
(lp340
S':'
asbag57
(g78
g59
NtRp341
(dp342
g62
(dp343
sg71
g328
sg64
(lp344
g57
(g58
g59
NtRp345
(dp346
g62
(dp347
g70
I3
ssg71
g341
sg64
(lp348
S''
asbasbasbag57
(g73
g59
NtRp349
(dp350
g62
(dp351
sg71
g282
sg64
(lp352
g57
(g78
g59
NtRp353
(dp354
g62
(dp355
g82
g83
ssg71
g349
sg64
(lp356
S'httponly'
p357
asbag57
(g78
g59
NtRp358
(dp359
g62
(dp360
g89
g90
ssg71
g349
sg64
(lp361
S':'
asbag57
(g78
g59
NtRp362
(dp363
g62
(dp364
sg71
g349
sg64
(lp365
g57
(g58
g59
NtRp366
(dp367
g62
(dp368
g70
I3
ssg71
g362
sg64
(lp369
S''
asbasbasbag57
(g73
g59
NtRp370
(dp371
g62
(dp372
sg71
g282
sg64
(lp373
g57
(g78
g59
NtRp374
(dp375
g62
(dp376
g82
g83
ssg71
g370
sg64
(lp377
S'max-age'
p378
asbag57
(g78
g59
NtRp379
(dp380
g62
(dp381
g89
g90
ssg71
g370
sg64
(lp382
S':'
asbag57
(g78
g59
NtRp383
(dp384
g62
(dp385
sg71
g370
sg64
(lp386
g57
(g58
g59
NtRp387
(dp388
g62
(dp389
g70
I3
ssg71
g383
sg64
(lp390
S''
asbasbasbag57
(g73
g59
NtRp391
(dp392
g62
(dp393
sg71
g282
sg64
(lp394
g57
(g78
g59
NtRp395
(dp396
g62
(dp397
g82
g83
ssg71
g391
sg64
(lp398
S'path'
p399
asbag57
(g78
g59
NtRp400
(dp401
g62
(dp402
g89
g90
ssg71
g391
sg64
(lp403
S':'
asbag57
(g78
g59
NtRp404
(dp405
g62
(dp406
sg71
g391
sg64
(lp407
g57
(g58
g59
NtRp408
(dp409
g62
(dp410
g70
I3
ssg71
g404
sg64
(lp411
S''
asbasbasbag57
(g73
g59
NtRp412
(dp413
g62
(dp414
sg71
g282
sg64
(lp415
g57
(g78
g59
NtRp416
(dp417
g62
(dp418
g82
g83
ssg71
g412
sg64
(lp419
S'secure'
p420
asbag57
(g78
g59
NtRp421
(dp422
g62
(dp423
g89
g90
ssg71
g412
sg64
(lp424
S':'
asbag57
(g78
g59
NtRp425
(dp426
g62
(dp427
sg71
g412
sg64
(lp428
g57
(g58
g59
NtRp429
(dp430
g62
(dp431
g70
I3
ssg71
g425
sg64
(lp432
S''
asbasbasbag57
(g73
g59
NtRp433
(dp434
g62
(dp435
sg71
g282
sg64
(lp436
g57
(g78
g59
NtRp437
(dp438
g62
(dp439
g82
g83
ssg71
g433
sg64
(lp440
S'version'
p441
asbag57
(g78
g59
NtRp442
(dp443
g62
(dp444
g89
g90
ssg71
g433
sg64
(lp445
S':'
asbag57
(g78
g59
NtRp446
(dp447
g62
(dp448
sg71
g433
sg64
(lp449
g57
(g58
g59
NtRp450
(dp451
g62
(dp452
g70
I3
ssg71
g446
sg64
(lp453
S''
asbasbasbasbasbasbasbag57
(g73
g59
NtRp454
(dp455
g62
(dp456
sg71
g256
sg64
(lp457
g57
(g78
g59
NtRp458
(dp459
g62
(dp460
g82
g83
ssg71
g454
sg64
(lp461
S'session_id_ssad'
p462
asbag57
(g78
g59
NtRp463
(dp464
g62
(dp465
g89
g90
ssg71
g454
sg64
(lp466
S':'
asbag57
(g78
g59
NtRp467
(dp468
g62
(dp469
sg71
g454
sg64
(lp470
g57
(g58
g59
NtRp471
(dp472
g62
(dp473
g70
I4
ssg71
g467
sg64
(lp474
S'127.0.0.1-c40cec1e-8b15-4215-984e-9a6af6cf9238'
p475
ag57
(g66
g59
NtRp476
(dp477
g62
(dp478
g70
I3
ssg71
Nsg64
(lp479
g57
(g73
g59
NtRp480
(dp481
g62
(dp482
sg71
g476
sg64
(lp483
g57
(g78
g59
NtRp484
(dp485
g62
(dp486
g82
g83
ssg71
g480
sg64
(lp487
g294
asbag57
(g78
g59
NtRp488
(dp489
g62
(dp490
g89
g90
ssg71
g480
sg64
(lp491
S':'
asbag57
(g78
g59
NtRp492
(dp493
g62
(dp494
sg71
g480
sg64
(lp495
g57
(g58
g59
NtRp496
(dp497
g62
(dp498
g70
I3
ssg71
g492
sg64
(lp499
S''
asbasbasbag57
(g73
g59
NtRp500
(dp501
g62
(dp502
sg71
g476
sg64
(lp503
g57
(g78
g59
NtRp504
(dp505
g62
(dp506
g82
g83
ssg71
g500
sg64
(lp507
g315
asbag57
(g78
g59
NtRp508
(dp509
g62
(dp510
g89
g90
ssg71
g500
sg64
(lp511
S':'
asbag57
(g78
g59
NtRp512
(dp513
g62
(dp514
sg71
g500
sg64
(lp515
g57
(g58
g59
NtRp516
(dp517
g62
(dp518
g70
I3
ssg71
g512
sg64
(lp519
S''
asbasbasbag57
(g73
g59
NtRp520
(dp521
g62
(dp522
sg71
g476
sg64
(lp523
g57
(g78
g59
NtRp524
(dp525
g62
(dp526
g82
g83
ssg71
g520
sg64
(lp527
g336
asbag57
(g78
g59
NtRp528
(dp529
g62
(dp530
g89
g90
ssg71
g520
sg64
(lp531
S':'
asbag57
(g78
g59
NtRp532
(dp533
g62
(dp534
sg71
g520
sg64
(lp535
g57
(g58
g59
NtRp536
(dp537
g62
(dp538
g70
I3
ssg71
g532
sg64
(lp539
S''
asbasbasbag57
(g73
g59
NtRp540
(dp541
g62
(dp542
sg71
g476
sg64
(lp543
g57
(g78
g59
NtRp544
(dp545
g62
(dp546
g82
g83
ssg71
g540
sg64
(lp547
g357
asbag57
(g78
g59
NtRp548
(dp549
g62
(dp550
g89
g90
ssg71
g540
sg64
(lp551
S':'
asbag57
(g78
g59
NtRp552
(dp553
g62
(dp554
sg71
g540
sg64
(lp555
g57
(g58
g59
NtRp556
(dp557
g62
(dp558
g70
I3
ssg71
g552
sg64
(lp559
S''
asbasbasbag57
(g73
g59
NtRp560
(dp561
g62
(dp562
sg71
g476
sg64
(lp563
g57
(g78
g59
NtRp564
(dp565
g62
(dp566
g82
g83
ssg71
g560
sg64
(lp567
g378
asbag57
(g78
g59
NtRp568
(dp569
g62
(dp570
g89
g90
ssg71
g560
sg64
(lp571
S':'
asbag57
(g78
g59
NtRp572
(dp573
g62
(dp574
sg71
g560
sg64
(lp575
g57
(g58
g59
NtRp576
(dp577
g62
(dp578
g70
I3
ssg71
g572
sg64
(lp579
S''
asbasbasbag57
(g73
g59
NtRp580
(dp581
g62
(dp582
sg71
g476
sg64
(lp583
g57
(g78
g59
NtRp584
(dp585
g62
(dp586
g82
g83
ssg71
g580
sg64
(lp587
g399
asbag57
(g78
g59
NtRp588
(dp589
g62
(dp590
g89
g90
ssg71
g580
sg64
(lp591
S':'
asbag57
(g78
g59
NtRp592
(dp593
g62
(dp594
sg71
g580
sg64
(lp595
g57
(g58
g59
NtRp596
(dp597
g62
(dp598
g70
I3
ssg71
g592
sg64
(lp599
S''
asbasbasbag57
(g73
g59
NtRp600
(dp601
g62
(dp602
sg71
g476
sg64
(lp603
g57
(g78
g59
NtRp604
(dp605
g62
(dp606
g82
g83
ssg71
g600
sg64
(lp607
g420
asbag57
(g78
g59
NtRp608
(dp609
g62
(dp610
g89
g90
ssg71
g600
sg64
(lp611
S':'
asbag57
(g78
g59
NtRp612
(dp613
g62
(dp614
sg71
g600
sg64
(lp615
g57
(g58
g59
NtRp616
(dp617
g62
(dp618
g70
I3
ssg71
g612
sg64
(lp619
S''
asbasbasbag57
(g73
g59
NtRp620
(dp621
g62
(dp622
sg71
g476
sg64
(lp623
g57
(g78
g59
NtRp624
(dp625
g62
(dp626
g82
g83
ssg71
g620
sg64
(lp627
g441
asbag57
(g78
g59
NtRp628
(dp629
g62
(dp630
g89
g90
ssg71
g620
sg64
(lp631
S':'
asbag57
(g78
g59
NtRp632
(dp633
g62
(dp634
sg71
g620
sg64
(lp635
g57
(g58
g59
NtRp636
(dp637
g62
(dp638
g70
I3
ssg71
g632
sg64
(lp639
S''
asbasbasbasbasbasbasbag57
(g73
g59
NtRp640
(dp641
g62
(dp642
sg71
g256
sg64
(lp643
g57
(g78
g59
NtRp644
(dp645
g62
(dp646
g82
g83
ssg71
g640
sg64
(lp647
S'session_id_welcome'
p648
asbag57
(g78
g59
NtRp649
(dp650
g62
(dp651
g89
g90
ssg71
g640
sg64
(lp652
S':'
asbag57
(g78
g59
NtRp653
(dp654
g62
(dp655
sg71
g640
sg64
(lp656
g57
(g58
g59
NtRp657
(dp658
g62
(dp659
g70
I4
ssg71
g653
sg64
(lp660
S'127.0.0.1-ce8272d6-1138-4d34-b847-dbfdff296f03'
p661
ag57
(g66
g59
NtRp662
(dp663
g62
(dp664
g70
I3
ssg71
Nsg64
(lp665
g57
(g73
g59
NtRp666
(dp667
g62
(dp668
sg71
g662
sg64
(lp669
g57
(g78
g59
NtRp670
(dp671
g62
(dp672
g82
g83
ssg71
g666
sg64
(lp673
g294
asbag57
(g78
g59
NtRp674
(dp675
g62
(dp676
g89
g90
ssg71
g666
sg64
(lp677
S':'
asbag57
(g78
g59
NtRp678
(dp679
g62
(dp680
sg71
g666
sg64
(lp681
g57
(g58
g59
NtRp682
(dp683
g62
(dp684
g70
I3
ssg71
g678
sg64
(lp685
S''
asbasbasbag57
(g73
g59
NtRp686
(dp687
g62
(dp688
sg71
g662
sg64
(lp689
g57
(g78
g59
NtRp690
(dp691
g62
(dp692
g82
g83
ssg71
g686
sg64
(lp693
g315
asbag57
(g78
g59
NtRp694
(dp695
g62
(dp696
g89
g90
ssg71
g686
sg64
(lp697
S':'
asbag57
(g78
g59
NtRp698
(dp699
g62
(dp700
sg71
g686
sg64
(lp701
g57
(g58
g59
NtRp702
(dp703
g62
(dp704
g70
I3
ssg71
g698
sg64
(lp705
S''
asbasbasbag57
(g73
g59
NtRp706
(dp707
g62
(dp708
sg71
g662
sg64
(lp709
g57
(g78
g59
NtRp710
(dp711
g62
(dp712
g82
g83
ssg71
g706
sg64
(lp713
g336
asbag57
(g78
g59
NtRp714
(dp715
g62
(dp716
g89
g90
ssg71
g706
sg64
(lp717
S':'
asbag57
(g78
g59
NtRp718
(dp719
g62
(dp720
sg71
g706
sg64
(lp721
g57
(g58
g59
NtRp722
(dp723
g62
(dp724
g70
I3
ssg71
g718
sg64
(lp725
S''
asbasbasbag57
(g73
g59
NtRp726
(dp727
g62
(dp728
sg71
g662
sg64
(lp729
g57
(g78
g59
NtRp730
(dp731
g62
(dp732
g82
g83
ssg71
g726
sg64
(lp733
g357
asbag57
(g78
g59
NtRp734
(dp735
g62
(dp736
g89
g90
ssg71
g726
sg64
(lp737
S':'
asbag57
(g78
g59
NtRp738
(dp739
g62
(dp740
sg71
g726
sg64
(lp741
g57
(g58
g59
NtRp742
(dp743
g62
(dp744
g70
I3
ssg71
g738
sg64
(lp745
S''
asbasbasbag57
(g73
g59
NtRp746
(dp747
g62
(dp748
sg71
g662
sg64
(lp749
g57
(g78
g59
NtRp750
(dp751
g62
(dp752
g82
g83
ssg71
g746
sg64
(lp753
g378
asbag57
(g78
g59
NtRp754
(dp755
g62
(dp756
g89
g90
ssg71
g746
sg64
(lp757
S':'
asbag57
(g78
g59
NtRp758
(dp759
g62
(dp760
sg71
g746
sg64
(lp761
g57
(g58
g59
NtRp762
(dp763
g62
(dp764
g70
I3
ssg71
g758
sg64
(lp765
S''
asbasbasbag57
(g73
g59
NtRp766
(dp767
g62
(dp768
sg71
g662
sg64
(lp769
g57
(g78
g59
NtRp770
(dp771
g62
(dp772
g82
g83
ssg71
g766
sg64
(lp773
g399
asbag57
(g78
g59
NtRp774
(dp775
g62
(dp776
g89
g90
ssg71
g766
sg64
(lp777
S':'
asbag57
(g78
g59
NtRp778
(dp779
g62
(dp780
sg71
g766
sg64
(lp781
g57
(g58
g59
NtRp782
(dp783
g62
(dp784
g70
I3
ssg71
g778
sg64
(lp785
S''
asbasbasbag57
(g73
g59
NtRp786
(dp787
g62
(dp788
sg71
g662
sg64
(lp789
g57
(g78
g59
NtRp790
(dp791
g62
(dp792
g82
g83
ssg71
g786
sg64
(lp793
g420
asbag57
(g78
g59
NtRp794
(dp795
g62
(dp796
g89
g90
ssg71
g786
sg64
(lp797
S':'
asbag57
(g78
g59
NtRp798
(dp799
g62
(dp800
sg71
g786
sg64
(lp801
g57
(g58
g59
NtRp802
(dp803
g62
(dp804
g70
I3
ssg71
g798
sg64
(lp805
S''
asbasbasbag57
(g73
g59
NtRp806
(dp807
g62
(dp808
sg71
g662
sg64
(lp809
g57
(g78
g59
NtRp810
(dp811
g62
(dp812
g82
g83
ssg71
g806
sg64
(lp813
g441
asbag57
(g78
g59
NtRp814
(dp815
g62
(dp816
g89
g90
ssg71
g806
sg64
(lp817
S':'
asbag57
(g78
g59
NtRp818
(dp819
g62
(dp820
sg71
g806
sg64
(lp821
g57
(g58
g59
NtRp822
(dp823
g62
(dp824
g70
I3
ssg71
g818
sg64
(lp825
S''
asbasbasbasbasbasbasbasbasbasbasbag57
(g73
g59
NtRp826
(dp827
g62
(dp828
sg71
g67
sg64
(lp829
g57
(g78
g59
NtRp830
(dp831
g62
(dp832
g82
g83
ssg71
g826
sg64
(lp833
S'env'
p834
asbag57
(g78
g59
NtRp835
(dp836
g62
(dp837
g89
g90
ssg71
g826
sg64
(lp838
S':'
asbag57
(g78
g59
NtRp839
(dp840
g62
(dp841
sg71
g826
sg64
(lp842
g57
(g58
g59
NtRp843
(dp844
g62
(dp845
g70
I5
ssg71
g839
sg64
(lp846
g57
(g66
g59
NtRp847
(dp848
g62
(dp849
g70
I4
ssg71
Nsg64
(lp850
g57
(g73
g59
NtRp851
(dp852
g62
(dp853
sg71
g847
sg64
(lp854
g57
(g78
g59
NtRp855
(dp856
g62
(dp857
g82
g83
ssg71
g851
sg64
(lp858
S'app_folders'
p859
asbag57
(g78
g59
NtRp860
(dp861
g62
(dp862
g89
g90
ssg71
g851
sg64
(lp863
S':'
asbag57
(g78
g59
NtRp864
(dp865
g62
(dp866
sg71
g851
sg64
(lp867
g57
(g58
g59
NtRp868
(dp869
g62
(dp870
g70
I4
ssg71
g864
sg64
(lp871
S"set(['/home/urvashi/Desktop/WEB2PY/web2py/applications/admin/', '/home/urvashi/Desktop/WEB2PY/web2py/applications/welcome/', '/home/urvashi/Desktop/WEB2PY/web2py/applications/SSAD/'])"
p872
asbasbasbag57
(g73
g59
NtRp873
(dp874
g62
(dp875
sg71
g847
sg64
(lp876
g57
(g78
g59
NtRp877
(dp878
g62
(dp879
g82
g83
ssg71
g873
sg64
(lp880
S'applications_parent'
p881
asbag57
(g78
g59
NtRp882
(dp883
g62
(dp884
g89
g90
ssg71
g873
sg64
(lp885
S':'
asbag57
(g78
g59
NtRp886
(dp887
g62
(dp888
sg71
g873
sg64
(lp889
g57
(g58
g59
NtRp890
(dp891
g62
(dp892
g70
I4
ssg71
g886
sg64
(lp893
S'/home/urvashi/Desktop/WEB2PY/web2py'
p894
asbasbasbag57
(g73
g59
NtRp895
(dp896
g62
(dp897
sg71
g847
sg64
(lp898
g57
(g78
g59
NtRp899
(dp900
g62
(dp901
g82
g83
ssg71
g895
sg64
(lp902
S'cmd_args'
p903
asbag57
(g78
g59
NtRp904
(dp905
g62
(dp906
g89
g90
ssg71
g895
sg64
(lp907
S':'
asbag57
(g78
g59
NtRp908
(dp909
g62
(dp910
sg71
g895
sg64
(lp911
g57
(g58
g59
NtRp912
(dp913
g62
(dp914
g70
I4
ssg71
g908
sg64
(lp915
g57
(g66
g59
NtRp916
(dp917
g62
(dp918
g70
I3
ssg71
Nsg64
(lp919
sbasbasbasbag57
(g73
g59
NtRp920
(dp921
g62
(dp922
sg71
g847
sg64
(lp923
g57
(g78
g59
NtRp924
(dp925
g62
(dp926
g82
g83
ssg71
g920
sg64
(lp927
S'cmd_options'
p928
asbag57
(g78
g59
NtRp929
(dp930
g62
(dp931
g89
g90
ssg71
g920
sg64
(lp932
S':'
asbag57
(g78
g59
NtRp933
(dp934
g62
(dp935
sg71
g920
sg64
(lp936
g57
(g58
g59
NtRp937
(dp938
g62
(dp939
g70
I4
ssg71
g933
sg64
(lp940
S"<Values at 0x2a0d518: {'verbose': False, 'ip': '127.0.0.1', 'with_scheduler': False, 'ips': [], 'shutdown_timeout': 5, 'taskbar': False, 'port': 8000, 'maxthreads': None, 'softcron': False, 'server_name': 'urvashi-VPCEH35EN', 'bpython': False, 'nogui': False, 'pid_filename': 'httpserver.pid', 'extcron': False, 'runcron': False, 'run_system_tests': False, 'test': None, 'folder': '/home/urvashi/Desktop/WEB2PY/web2py', 'config': '', 'minthreads': None, 'winservice': '', 'shell': None, 'run': '', 'log_filename': 'httpserver.log', 'debuglevel': 30, 'args': [''], 'socket_timeout': 5, 'ssl_ca_certificate': None, 'scheduler': None, 'profiler_filename': None, 'ssl_private_key': '', 'scheduler_groups': None, 'password': '123', 'request_queue_size': 5, 'ssl_certificate': '', 'cronjob': False, 'numthreads': None, 'quiet': False, 'interfaces': None, 'import_models': False, 'timeout': 10, 'plain': False, 'nobanner': False}>"
p941
asbasbasbag57
(g73
g59
NtRp942
(dp943
g62
(dp944
sg71
g847
sg64
(lp945
g57
(g78
g59
NtRp946
(dp947
g62
(dp948
g82
g83
ssg71
g942
sg64
(lp949
S'db_sessions'
p950
asbag57
(g78
g59
NtRp951
(dp952
g62
(dp953
g89
g90
ssg71
g942
sg64
(lp954
S':'
asbag57
(g78
g59
NtRp955
(dp956
g62
(dp957
sg71
g942
sg64
(lp958
g57
(g58
g59
NtRp959
(dp960
g62
(dp961
g70
I4
ssg71
g955
sg64
(lp962
S'set([])'
p963
asbasbasbag57
(g73
g59
NtRp964
(dp965
g62
(dp966
sg71
g847
sg64
(lp967
g57
(g78
g59
NtRp968
(dp969
g62
(dp970
g82
g83
ssg71
g964
sg64
(lp971
S'debugging'
p972
asbag57
(g78
g59
NtRp973
(dp974
g62
(dp975
g89
g90
ssg71
g964
sg64
(lp976
S':'
asbag57
(g78
g59
NtRp977
(dp978
g62
(dp979
sg71
g964
sg64
(lp980
g57
(g58
g59
NtRp981
(dp982
g62
(dp983
g70
I4
ssg71
g977
sg64
(lp984
g100
asbasbasbag57
(g73
g59
NtRp985
(dp986
g62
(dp987
sg71
g847
sg64
(lp988
g57
(g78
g59
NtRp989
(dp990
g62
(dp991
g82
g83
ssg71
g985
sg64
(lp992
S'gluon_parent'
p993
asbag57
(g78
g59
NtRp994
(dp995
g62
(dp996
g89
g90
ssg71
g985
sg64
(lp997
S':'
asbag57
(g78
g59
NtRp998
(dp999
g62
(dp1000
sg71
g985
sg64
(lp1001
g57
(g58
g59
NtRp1002
(dp1003
g62
(dp1004
g70
I4
ssg71
g998
sg64
(lp1005
S'/home/urvashi/Desktop/WEB2PY/web2py'
p1006
asbasbasbag57
(g73
g59
NtRp1007
(dp1008
g62
(dp1009
sg71
g847
sg64
(lp1010
g57
(g78
g59
NtRp1011
(dp1012
g62
(dp1013
g82
g83
ssg71
g1007
sg64
(lp1014
S'http_accept'
p1015
asbag57
(g78
g59
NtRp1016
(dp1017
g62
(dp1018
g89
g90
ssg71
g1007
sg64
(lp1019
S':'
asbag57
(g78
g59
NtRp1020
(dp1021
g62
(dp1022
sg71
g1007
sg64
(lp1023
g57
(g58
g59
NtRp1024
(dp1025
g62
(dp1026
g70
I4
ssg71
g1020
sg64
(lp1027
S'text/html,application/xhtml+xml,application/xml;q=0.9,*/*;q=0.8'
p1028
asbasbasbag57
(g73
g59
NtRp1029
(dp1030
g62
(dp1031
sg71
g847
sg64
(lp1032
g57
(g78
g59
NtRp1033
(dp1034
g62
(dp1035
g82
g83
ssg71
g1029
sg64
(lp1036
S'http_accept_encoding'
p1037
asbag57
(g78
g59
NtRp1038
(dp1039
g62
(dp1040
g89
g90
ssg71
g1029
sg64
(lp1041
S':'
asbag57
(g78
g59
NtRp1042
(dp1043
g62
(dp1044
sg71
g1029
sg64
(lp1045
g57
(g58
g59
NtRp1046
(dp1047
g62
(dp1048
g70
I4
ssg71
g1042
sg64
(lp1049
S'gzip, deflate'
p1050
asbasbasbag57
(g73
g59
NtRp1051
(dp1052
g62
(dp1053
sg71
g847
sg64
(lp1054
g57
(g78
g59
NtRp1055
(dp1056
g62
(dp1057
g82
g83
ssg71
g1051
sg64
(lp1058
S'http_accept_language'
p1059
asbag57
(g78
g59
NtRp1060
(dp1061
g62
(dp1062
g89
g90
ssg71
g1051
sg64
(lp1063
S':'
asbag57
(g78
g59
NtRp1064
(dp1065
g62
(dp1066
sg71
g1051
sg64
(lp1067
g57
(g58
g59
NtRp1068
(dp1069
g62
(dp1070
g70
I4
ssg71
g1064
sg64
(lp1071
S'en-us,en;q=0.5'
p1072
asbasbasbag57
(g73
g59
NtRp1073
(dp1074
g62
(dp1075
sg71
g847
sg64
(lp1076
g57
(g78
g59
NtRp1077
(dp1078
g62
(dp1079
g82
g83
ssg71
g1073
sg64
(lp1080
S'http_connection'
p1081
asbag57
(g78
g59
NtRp1082
(dp1083
g62
(dp1084
g89
g90
ssg71
g1073
sg64
(lp1085
S':'
asbag57
(g78
g59
NtRp1086
(dp1087
g62
(dp1088
sg71
g1073
sg64
(lp1089
g57
(g58
g59
NtRp1090
(dp1091
g62
(dp1092
g70
I4
ssg71
g1086
sg64
(lp1093
S'keep-alive'
p1094
asbasbasbag57
(g73
g59
NtRp1095
(dp1096
g62
(dp1097
sg71
g847
sg64
(lp1098
g57
(g78
g59
NtRp1099
(dp1100
g62
(dp1101
g82
g83
ssg71
g1095
sg64
(lp1102
S'http_cookie'
p1103
asbag57
(g78
g59
NtRp1104
(dp1105
g62
(dp1106
g89
g90
ssg71
g1095
sg64
(lp1107
S':'
asbag57
(g78
g59
NtRp1108
(dp1109
g62
(dp1110
sg71
g1095
sg64
(lp1111
g57
(g58
g59
NtRp1112
(dp1113
g62
(dp1114
g70
I4
ssg71
g1108
sg64
(lp1115
S'session_id_welcome=127.0.0.1-ce8272d6-1138-4d34-b847-dbfdff296f03; session_id_admin=127.0.0.1-147a3c4c-1424-4d1e-9801-607fa9398607; session_id_ssad=127.0.0.1-c40cec1e-8b15-4215-984e-9a6af6cf9238'
p1116
asbasbasbag57
(g73
g59
NtRp1117
(dp1118
g62
(dp1119
sg71
g847
sg64
(lp1120
g57
(g78
g59
NtRp1121
(dp1122
g62
(dp1123
g82
g83
ssg71
g1117
sg64
(lp1124
S'http_host'
p1125
asbag57
(g78
g59
NtRp1126
(dp1127
g62
(dp1128
g89
g90
ssg71
g1117
sg64
(lp1129
S':'
asbag57
(g78
g59
NtRp1130
(dp1131
g62
(dp1132
sg71
g1117
sg64
(lp1133
g57
(g58
g59
NtRp1134
(dp1135
g62
(dp1136
g70
I4
ssg71
g1130
sg64
(lp1137
S'127.0.0.1:8000'
p1138
asbasbasbag57
(g73
g59
NtRp1139
(dp1140
g62
(dp1141
sg71
g847
sg64
(lp1142
g57
(g78
g59
NtRp1143
(dp1144
g62
(dp1145
g82
g83
ssg71
g1139
sg64
(lp1146
S'http_user_agent'
p1147
asbag57
(g78
g59
NtRp1148
(dp1149
g62
(dp1150
g89
g90
ssg71
g1139
sg64
(lp1151
S':'
asbag57
(g78
g59
NtRp1152
(dp1153
g62
(dp1154
sg71
g1139
sg64
(lp1155
g57
(g58
g59
NtRp1156
(dp1157
g62
(dp1158
g70
I4
ssg71
g1152
sg64
(lp1159
S'Mozilla/5.0 (X11; Ubuntu; Linux x86_64; rv:11.0) Gecko/20100101 Firefox/11.0'
p1160
asbasbasbag57
(g73
g59
NtRp1161
(dp1162
g62
(dp1163
sg71
g847
sg64
(lp1164
g57
(g78
g59
NtRp1165
(dp1166
g62
(dp1167
g82
g83
ssg71
g1161
sg64
(lp1168
S'is_jython'
p1169
asbag57
(g78
g59
NtRp1170
(dp1171
g62
(dp1172
g89
g90
ssg71
g1161
sg64
(lp1173
S':'
asbag57
(g78
g59
NtRp1174
(dp1175
g62
(dp1176
sg71
g1161
sg64
(lp1177
g57
(g58
g59
NtRp1178
(dp1179
g62
(dp1180
g70
I4
ssg71
g1174
sg64
(lp1181
g100
asbasbasbag57
(g73
g59
NtRp1182
(dp1183
g62
(dp1184
sg71
g847
sg64
(lp1185
g57
(g78
g59
NtRp1186
(dp1187
g62
(dp1188
g82
g83
ssg71
g1182
sg64
(lp1189
S'is_pypy'
p1190
asbag57
(g78
g59
NtRp1191
(dp1192
g62
(dp1193
g89
g90
ssg71
g1182
sg64
(lp1194
S':'
asbag57
(g78
g59
NtRp1195
(dp1196
g62
(dp1197
sg71
g1182
sg64
(lp1198
g57
(g58
g59
NtRp1199
(dp1200
g62
(dp1201
g70
I4
ssg71
g1195
sg64
(lp1202
g100
asbasbasbag57
(g73
g59
NtRp1203
(dp1204
g62
(dp1205
sg71
g847
sg64
(lp1206
g57
(g78
g59
NtRp1207
(dp1208
g62
(dp1209
g82
g83
ssg71
g1203
sg64
(lp1210
S'local_hosts'
p1211
asbag57
(g78
g59
NtRp1212
(dp1213
g62
(dp1214
g89
g90
ssg71
g1203
sg64
(lp1215
S':'
asbag57
(g78
g59
NtRp1216
(dp1217
g62
(dp1218
sg71
g1203
sg64
(lp1219
g57
(g58
g59
NtRp1220
(dp1221
g62
(dp1222
g70
I4
ssg71
g1216
sg64
(lp1223
g57
(g66
g59
NtRp1224
(dp1225
g62
(dp1226
g70
I3
ssg71
Nsg64
(lp1227
g57
(g73
g59
NtRp1228
(dp1229
g62
(dp1230
sg71
g1224
sg64
(lp1231
g57
(g78
g59
NtRp1232
(dp1233
g62
(dp1234
sg71
g1228
sg64
(lp1235
g57
(g58
g59
NtRp1236
(dp1237
g62
(dp1238
g70
I3
ssg71
g1232
sg64
(lp1239
S'::1'
p1240
asbasbasbag57
(g73
g59
NtRp1241
(dp1242
g62
(dp1243
sg71
g1224
sg64
(lp1244
g57
(g78
g59
NtRp1245
(dp1246
g62
(dp1247
sg71
g1241
sg64
(lp1248
g57
(g58
g59
NtRp1249
(dp1250
g62
(dp1251
g70
I3
ssg71
g1245
sg64
(lp1252
S'127.0.1.1'
p1253
asbasbasbag57
(g73
g59
NtRp1254
(dp1255
g62
(dp1256
sg71
g1224
sg64
(lp1257
g57
(g78
g59
NtRp1258
(dp1259
g62
(dp1260
sg71
g1254
sg64
(lp1261
g57
(g58
g59
NtRp1262
(dp1263
g62
(dp1264
g70
I3
ssg71
g1258
sg64
(lp1265
S'::ffff:127.0.0.1'
p1266
asbasbasbag57
(g73
g59
NtRp1267
(dp1268
g62
(dp1269
sg71
g1224
sg64
(lp1270
g57
(g78
g59
NtRp1271
(dp1272
g62
(dp1273
sg71
g1267
sg64
(lp1274
g57
(g58
g59
NtRp1275
(dp1276
g62
(dp1277
g70
I3
ssg71
g1271
sg64
(lp1278
S'127.0.0.1'
p1279
asbasbasbag57
(g73
g59
NtRp1280
(dp1281
g62
(dp1282
sg71
g1224
sg64
(lp1283
g57
(g78
g59
NtRp1284
(dp1285
g62
(dp1286
sg71
g1280
sg64
(lp1287
g57
(g58
g59
NtRp1288
(dp1289
g62
(dp1290
g70
I3
ssg71
g1284
sg64
(lp1291
S'urvashi-VPCEH35EN'
p1292
asbasbasbasbasbasbasbag57
(g73
g59
NtRp1293
(dp1294
g62
(dp1295
sg71
g847
sg64
(lp1296
g57
(g78
g59
NtRp1297
(dp1298
g62
(dp1299
g82
g83
ssg71
g1293
sg64
(lp1300
S'path_info'
p1301
asbag57
(g78
g59
NtRp1302
(dp1303
g62
(dp1304
g89
g90
ssg71
g1293
sg64
(lp1305
S':'
asbag57
(g78
g59
NtRp1306
(dp1307
g62
(dp1308
sg71
g1293
sg64
(lp1309
g57
(g58
g59
NtRp1310
(dp1311
g62
(dp1312
g70
I4
ssg71
g1306
sg64
(lp1313
S'/SSAD/default/view_posts'
p1314
asbasbasbag57
(g73
g59
NtRp1315
(dp1316
g62
(dp1317
sg71
g847
sg64
(lp1318
g57
(g78
g59
NtRp1319
(dp1320
g62
(dp1321
g82
g83
ssg71
g1315
sg64
(lp1322
S'query_string'
p1323
asbag57
(g78
g59
NtRp1324
(dp1325
g62
(dp1326
g89
g90
ssg71
g1315
sg64
(lp1327
S':'
asbag57
(g78
g59
NtRp1328
(dp1329
g62
(dp1330
sg71
g1315
sg64
(lp1331
g57
(g58
g59
NtRp1332
(dp1333
g62
(dp1334
g70
I4
ssg71
g1328
sg64
(lp1335
S''
asbasbasbag57
(g73
g59
NtRp1336
(dp1337
g62
(dp1338
sg71
g847
sg64
(lp1339
g57
(g78
g59
NtRp1340
(dp1341
g62
(dp1342
g82
g83
ssg71
g1336
sg64
(lp1343
S'remote_addr'
p1344
asbag57
(g78
g59
NtRp1345
(dp1346
g62
(dp1347
g89
g90
ssg71
g1336
sg64
(lp1348
S':'
asbag57
(g78
g59
NtRp1349
(dp1350
g62
(dp1351
sg71
g1336
sg64
(lp1352
g57
(g58
g59
NtRp1353
(dp1354
g62
(dp1355
g70
I4
ssg71
g1349
sg64
(lp1356
g212
asbasbasbag57
(g73
g59
NtRp1357
(dp1358
g62
(dp1359
sg71
g847
sg64
(lp1360
g57
(g78
g59
NtRp1361
(dp1362
g62
(dp1363
g82
g83
ssg71
g1357
sg64
(lp1364
S'remote_port'
p1365
asbag57
(g78
g59
NtRp1366
(dp1367
g62
(dp1368
g89
g90
ssg71
g1357
sg64
(lp1369
S':'
asbag57
(g78
g59
NtRp1370
(dp1371
g62
(dp1372
sg71
g1357
sg64
(lp1373
g57
(g58
g59
NtRp1374
(dp1375
g62
(dp1376
g70
I4
ssg71
g1370
sg64
(lp1377
S'39521'
p1378
asbasbasbag57
(g73
g59
NtRp1379
(dp1380
g62
(dp1381
sg71
g847
sg64
(lp1382
g57
(g78
g59
NtRp1383
(dp1384
g62
(dp1385
g82
g83
ssg71
g1379
sg64
(lp1386
S'request_method'
p1387
asbag57
(g78
g59
NtRp1388
(dp1389
g62
(dp1390
g89
g90
ssg71
g1379
sg64
(lp1391
S':'
asbag57
(g78
g59
NtRp1392
(dp1393
g62
(dp1394
sg71
g1379
sg64
(lp1395
g57
(g58
g59
NtRp1396
(dp1397
g62
(dp1398
g70
I4
ssg71
g1392
sg64
(lp1399
S'GET'
p1400
asbasbasbag57
(g73
g59
NtRp1401
(dp1402
g62
(dp1403
sg71
g847
sg64
(lp1404
g57
(g78
g59
NtRp1405
(dp1406
g62
(dp1407
g82
g83
ssg71
g1401
sg64
(lp1408
S'request_uri'
p1409
asbag57
(g78
g59
NtRp1410
(dp1411
g62
(dp1412
g89
g90
ssg71
g1401
sg64
(lp1413
S':'
asbag57
(g78
g59
NtRp1414
(dp1415
g62
(dp1416
sg71
g1401
sg64
(lp1417
g57
(g58
g59
NtRp1418
(dp1419
g62
(dp1420
g70
I4
ssg71
g1414
sg64
(lp1421
g1314
asbasbasbag57
(g73
g59
NtRp1422
(dp1423
g62
(dp1424
sg71
g847
sg64
(lp1425
g57
(g78
g59
NtRp1426
(dp1427
g62
(dp1428
g82
g83
ssg71
g1422
sg64
(lp1429
S'script_name'
p1430
asbag57
(g78
g59
NtRp1431
(dp1432
g62
(dp1433
g89
g90
ssg71
g1422
sg64
(lp1434
S':'
asbag57
(g78
g59
NtRp1435
(dp1436
g62
(dp1437
sg71
g1422
sg64
(lp1438
g57
(g58
g59
NtRp1439
(dp1440
g62
(dp1441
g70
I4
ssg71
g1435
sg64
(lp1442
S''
asbasbasbag57
(g73
g59
NtRp1443
(dp1444
g62
(dp1445
sg71
g847
sg64
(lp1446
g57
(g78
g59
NtRp1447
(dp1448
g62
(dp1449
g82
g83
ssg71
g1443
sg64
(lp1450
S'server_name'
p1451
asbag57
(g78
g59
NtRp1452
(dp1453
g62
(dp1454
g89
g90
ssg71
g1443
sg64
(lp1455
S':'
asbag57
(g78
g59
NtRp1456
(dp1457
g62
(dp1458
sg71
g1443
sg64
(lp1459
g57
(g58
g59
NtRp1460
(dp1461
g62
(dp1462
g70
I4
ssg71
g1456
sg64
(lp1463
S'urvashi-VPCEH35EN'
p1464
asbasbasbag57
(g73
g59
NtRp1465
(dp1466
g62
(dp1467
sg71
g847
sg64
(lp1468
g57
(g78
g59
NtRp1469
(dp1470
g62
(dp1471
g82
g83
ssg71
g1465
sg64
(lp1472
S'server_port'
p1473
asbag57
(g78
g59
NtRp1474
(dp1475
g62
(dp1476
g89
g90
ssg71
g1465
sg64
(lp1477
S':'
asbag57
(g78
g59
NtRp1478
(dp1479
g62
(dp1480
sg71
g1465
sg64
(lp1481
g57
(g58
g59
NtRp1482
(dp1483
g62
(dp1484
g70
I4
ssg71
g1478
sg64
(lp1485
S'8000'
p1486
asbasbasbag57
(g73
g59
NtRp1487
(dp1488
g62
(dp1489
sg71
g847
sg64
(lp1490
g57
(g78
g59
NtRp1491
(dp1492
g62
(dp1493
g82
g83
ssg71
g1487
sg64
(lp1494
S'server_protocol'
p1495
asbag57
(g78
g59
NtRp1496
(dp1497
g62
(dp1498
g89
g90
ssg71
g1487
sg64
(lp1499
S':'
asbag57
(g78
g59
NtRp1500
(dp1501
g62
(dp1502
sg71
g1487
sg64
(lp1503
g57
(g58
g59
NtRp1504
(dp1505
g62
(dp1506
g70
I4
ssg71
g1500
sg64
(lp1507
S'HTTP/1.1'
p1508
asbasbasbag57
(g73
g59
NtRp1509
(dp1510
g62
(dp1511
sg71
g847
sg64
(lp1512
g57
(g78
g59
NtRp1513
(dp1514
g62
(dp1515
g82
g83
ssg71
g1509
sg64
(lp1516
S'server_software'
p1517
asbag57
(g78
g59
NtRp1518
(dp1519
g62
(dp1520
g89
g90
ssg71
g1509
sg64
(lp1521
S':'
asbag57
(g78
g59
NtRp1522
(dp1523
g62
(dp1524
sg71
g1509
sg64
(lp1525
g57
(g58
g59
NtRp1526
(dp1527
g62
(dp1528
g70
I4
ssg71
g1522
sg64
(lp1529
S'Rocket 1.2.6'
p1530
asbasbasbag57
(g73
g59
NtRp1531
(dp1532
g62
(dp1533
sg71
g847
sg64
(lp1534
g57
(g78
g59
NtRp1535
(dp1536
g62
(dp1537
g82
g83
ssg71
g1531
sg64
(lp1538
S'web2py_path'
p1539
asbag57
(g78
g59
NtRp1540
(dp1541
g62
(dp1542
g89
g90
ssg71
g1531
sg64
(lp1543
S':'
asbag57
(g78
g59
NtRp1544
(dp1545
g62
(dp1546
sg71
g1531
sg64
(lp1547
g57
(g58
g59
NtRp1548
(dp1549
g62
(dp1550
g70
I4
ssg71
g1544
sg64
(lp1551
g894
asbasbasbag57
(g73
g59
NtRp1552
(dp1553
g62
(dp1554
sg71
g847
sg64
(lp1555
g57
(g78
g59
NtRp1556
(dp1557
g62
(dp1558
g82
g83
ssg71
g1552
sg64
(lp1559
S'web2py_version'
p1560
asbag57
(g78
g59
NtRp1561
(dp1562
g62
(dp1563
g89
g90
ssg71
g1552
sg64
(lp1564
S':'
asbag57
(g78
g59
NtRp1565
(dp1566
g62
(dp1567
sg71
g1552
sg64
(lp1568
g57
(g58
g59
NtRp1569
(dp1570
g62
(dp1571
g70
I4
ssg71
g1565
sg64
(lp1572
g57
(g66
g59
NtRp1573
(dp1574
g62
(dp1575
g70
I3
ssg71
Nsg64
(lp1576
g57
(g73
g59
NtRp1577
(dp1578
g62
(dp1579
sg71
g1573
sg64
(lp1580
g57
(g78
g59
NtRp1581
(dp1582
g62
(dp1583
sg71
g1577
sg64
(lp1584
g57
(g58
g59
NtRp1585
(dp1586
g62
(dp1587
g70
I3
ssg71
g1581
sg64
(lp1588
S'2'
asbasbasbag57
(g73
g59
NtRp1589
(dp1590
g62
(dp1591
sg71
g1573
sg64
(lp1592
g57
(g78
g59
NtRp1593
(dp1594
g62
(dp1595
sg71
g1589
sg64
(lp1596
g57
(g58
g59
NtRp1597
(dp1598
g62
(dp1599
g70
I3
ssg71
g1593
sg64
(lp1600
S'3'
asbasbasbag57
(g73
g59
NtRp1601
(dp1602
g62
(dp1603
sg71
g1573
sg64
(lp1604
g57
(g78
g59
NtRp1605
(dp1606
g62
(dp1607
sg71
g1601
sg64
(lp1608
g57
(g58
g59
NtRp1609
(dp1610
g62
(dp1611
g70
I3
ssg71
g1605
sg64
(lp1612
S'2'
asbasbasbag57
(g73
g59
NtRp1613
(dp1614
g62
(dp1615
sg71
g1573
sg64
(lp1616
g57
(g78
g59
NtRp1617
(dp1618
g62
(dp1619
sg71
g1613
sg64
(lp1620
g57
(g58
g59
NtRp1621
(dp1622
g62
(dp1623
g70
I3
ssg71
g1617
sg64
(lp1624
S'datetime.datetime(2012, 12, 17, 15, 3, 30)'
p1625
asbasbasbag57
(g73
g59
NtRp1626
(dp1627
g62
(dp1628
sg71
g1573
sg64
(lp1629
g57
(g78
g59
NtRp1630
(dp1631
g62
(dp1632
sg71
g1626
sg64
(lp1633
g57
(g58
g59
NtRp1634
(dp1635
g62
(dp1636
g70
I3
ssg71
g1630
sg64
(lp1637
S'stable'
p1638
asbasbasbasbasbasbasbag57
(g73
g59
NtRp1639
(dp1640
g62
(dp1641
sg71
g847
sg64
(lp1642
g57
(g78
g59
NtRp1643
(dp1644
g62
(dp1645
g82
g83
ssg71
g1639
sg64
(lp1646
S'wsgi_errors'
p1647
asbag57
(g78
g59
NtRp1648
(dp1649
g62
(dp1650
g89
g90
ssg71
g1639
sg64
(lp1651
S':'
asbag57
(g78
g59
NtRp1652
(dp1653
g62
(dp1654
sg71
g1639
sg64
(lp1655
g57
(g58
g59
NtRp1656
(dp1657
g62
(dp1658
g70
I4
ssg71
g1652
sg64
(lp1659
S"<open file '<stderr>', mode 'w' at 0x7fd2027fb270>"
p1660
asbasbasbag57
(g73
g59
NtRp1661
(dp1662
g62
(dp1663
sg71
g847
sg64
(lp1664
g57
(g78
g59
NtRp1665
(dp1666
g62
(dp1667
g82
g83
ssg71
g1661
sg64
(lp1668
S'wsgi_file_wrapper'
p1669
asbag57
(g78
g59
NtRp1670
(dp1671
g62
(dp1672
g89
g90
ssg71
g1661
sg64
(lp1673
S':'
asbag57
(g78
g59
NtRp1674
(dp1675
g62
(dp1676
sg71
g1661
sg64
(lp1677
g57
(g58
g59
NtRp1678
(dp1679
g62
(dp1680
g70
I4
ssg71
g1674
sg64
(lp1681
S'<class wsgiref.util.FileWrapper at 0x25e18d8>'
p1682
asbasbasbag57
(g73
g59
NtRp1683
(dp1684
g62
(dp1685
sg71
g847
sg64
(lp1686
g57
(g78
g59
NtRp1687
(dp1688
g62
(dp1689
g82
g83
ssg71
g1683
sg64
(lp1690
S'wsgi_input'
p1691
asbag57
(g78
g59
NtRp1692
(dp1693
g62
(dp1694
g89
g90
ssg71
g1683
sg64
(lp1695
S':'
asbag57
(g78
g59
NtRp1696
(dp1697
g62
(dp1698
sg71
g1683
sg64
(lp1699
g57
(g58
g59
NtRp1700
(dp1701
g62
(dp1702
g70
I4
ssg71
g1696
sg64
(lp1703
S'<socket._fileobject object at 0x7fd1f8306bd0>'
p1704
asbasbasbag57
(g73
g59
NtRp1705
(dp1706
g62
(dp1707
sg71
g847
sg64
(lp1708
g57
(g78
g59
NtRp1709
(dp1710
g62
(dp1711
g82
g83
ssg71
g1705
sg64
(lp1712
S'wsgi_multiprocess'
p1713
asbag57
(g78
g59
NtRp1714
(dp1715
g62
(dp1716
g89
g90
ssg71
g1705
sg64
(lp1717
S':'
asbag57
(g78
g59
NtRp1718
(dp1719
g62
(dp1720
sg71
g1705
sg64
(lp1721
g57
(g58
g59
NtRp1722
(dp1723
g62
(dp1724
g70
I4
ssg71
g1718
sg64
(lp1725
g100
asbasbasbag57
(g73
g59
NtRp1726
(dp1727
g62
(dp1728
sg71
g847
sg64
(lp1729
g57
(g78
g59
NtRp1730
(dp1731
g62
(dp1732
g82
g83
ssg71
g1726
sg64
(lp1733
S'wsgi_multithread'
p1734
asbag57
(g78
g59
NtRp1735
(dp1736
g62
(dp1737
g89
g90
ssg71
g1726
sg64
(lp1738
S':'
asbag57
(g78
g59
NtRp1739
(dp1740
g62
(dp1741
sg71
g1726
sg64
(lp1742
g57
(g58
g59
NtRp1743
(dp1744
g62
(dp1745
g70
I4
ssg71
g1739
sg64
(lp1746
S'True'
p1747
asbasbasbag57
(g73
g59
NtRp1748
(dp1749
g62
(dp1750
sg71
g847
sg64
(lp1751
g57
(g78
g59
NtRp1752
(dp1753
g62
(dp1754
g82
g83
ssg71
g1748
sg64
(lp1755
S'wsgi_run_once'
p1756
asbag57
(g78
g59
NtRp1757
(dp1758
g62
(dp1759
g89
g90
ssg71
g1748
sg64
(lp1760
S':'
asbag57
(g78
g59
NtRp1761
(dp1762
g62
(dp1763
sg71
g1748
sg64
(lp1764
g57
(g58
g59
NtRp1765
(dp1766
g62
(dp1767
g70
I4
ssg71
g1761
sg64
(lp1768
g100
asbasbasbag57
(g73
g59
NtRp1769
(dp1770
g62
(dp1771
sg71
g847
sg64
(lp1772
g57
(g78
g59
NtRp1773
(dp1774
g62
(dp1775
g82
g83
ssg71
g1769
sg64
(lp1776
S'wsgi_url_scheme'
p1777
asbag57
(g78
g59
NtRp1778
(dp1779
g62
(dp1780
g89
g90
ssg71
g1769
sg64
(lp1781
S':'
asbag57
(g78
g59
NtRp1782
(dp1783
g62
(dp1784
sg71
g1769
sg64
(lp1785
g57
(g58
g59
NtRp1786
(dp1787
g62
(dp1788
g70
I4
ssg71
g1782
sg64
(lp1789
S'http'
p1790
asbasbasbag57
(g73
g59
NtRp1791
(dp1792
g62
(dp1793
sg71
g847
sg64
(lp1794
g57
(g78
g59
NtRp1795
(dp1796
g62
(dp1797
g82
g83
ssg71
g1791
sg64
(lp1798
S'wsgi_version'
p1799
asbag57
(g78
g59
NtRp1800
(dp1801
g62
(dp1802
g89
g90
ssg71
g1791
sg64
(lp1803
S':'
asbag57
(g78
g59
NtRp1804
(dp1805
g62
(dp1806
sg71
g1791
sg64
(lp1807
g57
(g58
g59
NtRp1808
(dp1809
g62
(dp1810
g70
I4
ssg71
g1804
sg64
(lp1811
g57
(g66
g59
NtRp1812
(dp1813
g62
(dp1814
g70
I3
ssg71
Nsg64
(lp1815
g57
(g73
g59
NtRp1816
(dp1817
g62
(dp1818
sg71
g1812
sg64
(lp1819
g57
(g78
g59
NtRp1820
(dp1821
g62
(dp1822
sg71
g1816
sg64
(lp1823
g57
(g58
g59
NtRp1824
(dp1825
g62
(dp1826
g70
I3
ssg71
g1820
sg64
(lp1827
S'1'
asbasbasbag57
(g73
g59
NtRp1828
(dp1829
g62
(dp1830
sg71
g1812
sg64
(lp1831
g57
(g78
g59
NtRp1832
(dp1833
g62
(dp1834
sg71
g1828
sg64
(lp1835
g57
(g58
g59
NtRp1836
(dp1837
g62
(dp1838
g70
I3
ssg71
g1832
sg64
(lp1839
S'0'
asbasbasbasbasbasbasbasbasbasbasbag57
(g73
g59
NtRp1840
(dp1841
g62
(dp1842
sg71
g67
sg64
(lp1843
g57
(g78
g59
NtRp1844
(dp1845
g62
(dp1846
g82
g83
ssg71
g1840
sg64
(lp1847
S'extension'
p1848
asbag57
(g78
g59
NtRp1849
(dp1850
g62
(dp1851
g89
g90
ssg71
g1840
sg64
(lp1852
S':'
asbag57
(g78
g59
NtRp1853
(dp1854
g62
(dp1855
sg71
g1840
sg64
(lp1856
g57
(g58
g59
NtRp1857
(dp1858
g62
(dp1859
g70
I5
ssg71
g1853
sg64
(lp1860
S'html'
p1861
asbasbasbag57
(g73
g59
NtRp1862
(dp1863
g62
(dp1864
sg71
g67
sg64
(lp1865
g57
(g78
g59
NtRp1866
(dp1867
g62
(dp1868
g82
g83
ssg71
g1862
sg64
(lp1869
S'folder'
p1870
asbag57
(g78
g59
NtRp1871
(dp1872
g62
(dp1873
g89
g90
ssg71
g1862
sg64
(lp1874
S':'
asbag57
(g78
g59
NtRp1875
(dp1876
g62
(dp1877
sg71
g1862
sg64
(lp1878
g57
(g58
g59
NtRp1879
(dp1880
g62
(dp1881
g70
I5
ssg71
g1875
sg64
(lp1882
S'/home/urvashi/Desktop/WEB2PY/web2py/applications/SSAD/'
p1883
asbasbasbag57
(g73
g59
NtRp1884
(dp1885
g62
(dp1886
sg71
g67
sg64
(lp1887
g57
(g78
g59
NtRp1888
(dp1889
g62
(dp1890
g82
g83
ssg71
g1884
sg64
(lp1891
S'function'
p1892
asbag57
(g78
g59
NtRp1893
(dp1894
g62
(dp1895
g89
g90
ssg71
g1884
sg64
(lp1896
S':'
asbag57
(g78
g59
NtRp1897
(dp1898
g62
(dp1899
sg71
g1884
sg64
(lp1900
g57
(g58
g59
NtRp1901
(dp1902
g62
(dp1903
g70
I5
ssg71
g1897
sg64
(lp1904
S'view_posts'
p1905
asbasbasbag57
(g73
g59
NtRp1906
(dp1907
g62
(dp1908
sg71
g67
sg64
(lp1909
g57
(g78
g59
NtRp1910
(dp1911
g62
(dp1912
g82
g83
ssg71
g1906
sg64
(lp1913
S'get_vars'
p1914
asbag57
(g78
g59
NtRp1915
(dp1916
g62
(dp1917
g89
g90
ssg71
g1906
sg64
(lp1918
S':'
asbag57
(g78
g59
NtRp1919
(dp1920
g62
(dp1921
sg71
g1906
sg64
(lp1922
g57
(g58
g59
NtRp1923
(dp1924
g62
(dp1925
g70
I5
ssg71
g1919
sg64
(lp1926
g57
(g66
g59
NtRp1927
(dp1928
g62
(dp1929
g70
I4
ssg71
Nsg64
(lp1930
sbasbasbasbag57
(g73
g59
NtRp1931
(dp1932
g62
(dp1933
sg71
g67
sg64
(lp1934
g57
(g78
g59
NtRp1935
(dp1936
g62
(dp1937
g82
g83
ssg71
g1931
sg64
(lp1938
S'global_settings'
p1939
asbag57
(g78
g59
NtRp1940
(dp1941
g62
(dp1942
g89
g90
ssg71
g1931
sg64
(lp1943
S':'
asbag57
(g78
g59
NtRp1944
(dp1945
g62
(dp1946
sg71
g1931
sg64
(lp1947
g57
(g58
g59
NtRp1948
(dp1949
g62
(dp1950
g70
I5
ssg71
g1944
sg64
(lp1951
g57
(g66
g59
NtRp1952
(dp1953
g62
(dp1954
g70
I4
ssg71
Nsg64
(lp1955
g57
(g73
g59
NtRp1956
(dp1957
g62
(dp1958
sg71
g1952
sg64
(lp1959
g57
(g78
g59
NtRp1960
(dp1961
g62
(dp1962
g82
g83
ssg71
g1956
sg64
(lp1963
g859
asbag57
(g78
g59
NtRp1964
(dp1965
g62
(dp1966
g89
g90
ssg71
g1956
sg64
(lp1967
S':'
asbag57
(g78
g59
NtRp1968
(dp1969
g62
(dp1970
sg71
g1956
sg64
(lp1971
g57
(g58
g59
NtRp1972
(dp1973
g62
(dp1974
g70
I4
ssg71
g1968
sg64
(lp1975
S"set(['/home/urvashi/Desktop/WEB2PY/web2py/applications/admin/', '/home/urvashi/Desktop/WEB2PY/web2py/applications/welcome/', '/home/urvashi/Desktop/WEB2PY/web2py/applications/SSAD/'])"
p1976
asbasbasbag57
(g73
g59
NtRp1977
(dp1978
g62
(dp1979
sg71
g1952
sg64
(lp1980
g57
(g78
g59
NtRp1981
(dp1982
g62
(dp1983
g82
g83
ssg71
g1977
sg64
(lp1984
g881
asbag57
(g78
g59
NtRp1985
(dp1986
g62
(dp1987
g89
g90
ssg71
g1977
sg64
(lp1988
S':'
asbag57
(g78
g59
NtRp1989
(dp1990
g62
(dp1991
sg71
g1977
sg64
(lp1992
g57
(g58
g59
NtRp1993
(dp1994
g62
(dp1995
g70
I4
ssg71
g1989
sg64
(lp1996
g894
asbasbasbag57
(g73
g59
NtRp1997
(dp1998
g62
(dp1999
sg71
g1952
sg64
(lp2000
g57
(g78
g59
NtRp2001
(dp2002
g62
(dp2003
g82
g83
ssg71
g1997
sg64
(lp2004
g903
asbag57
(g78
g59
NtRp2005
(dp2006
g62
(dp2007
g89
g90
ssg71
g1997
sg64
(lp2008
S':'
asbag57
(g78
g59
NtRp2009
(dp2010
g62
(dp2011
sg71
g1997
sg64
(lp2012
g57
(g58
g59
NtRp2013
(dp2014
g62
(dp2015
g70
I4
ssg71
g2009
sg64
(lp2016
g57
(g66
g59
NtRp2017
(dp2018
g62
(dp2019
g70
I3
ssg71
Nsg64
(lp2020
sbasbasbasbag57
(g73
g59
NtRp2021
(dp2022
g62
(dp2023
sg71
g1952
sg64
(lp2024
g57
(g78
g59
NtRp2025
(dp2026
g62
(dp2027
g82
g83
ssg71
g2021
sg64
(lp2028
g928
asbag57
(g78
g59
NtRp2029
(dp2030
g62
(dp2031
g89
g90
ssg71
g2021
sg64
(lp2032
S':'
asbag57
(g78
g59
NtRp2033
(dp2034
g62
(dp2035
sg71
g2021
sg64
(lp2036
g57
(g58
g59
NtRp2037
(dp2038
g62
(dp2039
g70
I4
ssg71
g2033
sg64
(lp2040
S"<Values at 0x2a0d518: {'verbose': False, 'ip': '127.0.0.1', 'with_scheduler': False, 'ips': [], 'shutdown_timeout': 5, 'taskbar': False, 'port': 8000, 'maxthreads': None, 'softcron': False, 'server_name': 'urvashi-VPCEH35EN', 'bpython': False, 'nogui': False, 'pid_filename': 'httpserver.pid', 'extcron': False, 'runcron': False, 'run_system_tests': False, 'test': None, 'folder': '/home/urvashi/Desktop/WEB2PY/web2py', 'config': '', 'minthreads': None, 'winservice': '', 'shell': None, 'run': '', 'log_filename': 'httpserver.log', 'debuglevel': 30, 'args': [''], 'socket_timeout': 5, 'ssl_ca_certificate': None, 'scheduler': None, 'profiler_filename': None, 'ssl_private_key': '', 'scheduler_groups': None, 'password': '123', 'request_queue_size': 5, 'ssl_certificate': '', 'cronjob': False, 'numthreads': None, 'quiet': False, 'interfaces': None, 'import_models': False, 'timeout': 10, 'plain': False, 'nobanner': False}>"
p2041
asbasbasbag57
(g73
g59
NtRp2042
(dp2043
g62
(dp2044
sg71
g1952
sg64
(lp2045
g57
(g78
g59
NtRp2046
(dp2047
g62
(dp2048
g82
g83
ssg71
g2042
sg64
(lp2049
g950
asbag57
(g78
g59
NtRp2050
(dp2051
g62
(dp2052
g89
g90
ssg71
g2042
sg64
(lp2053
S':'
asbag57
(g78
g59
NtRp2054
(dp2055
g62
(dp2056
sg71
g2042
sg64
(lp2057
g57
(g58
g59
NtRp2058
(dp2059
g62
(dp2060
g70
I4
ssg71
g2054
sg64
(lp2061
S'set([])'
p2062
asbasbasbag57
(g73
g59
NtRp2063
(dp2064
g62
(dp2065
sg71
g1952
sg64
(lp2066
g57
(g78
g59
NtRp2067
(dp2068
g62
(dp2069
g82
g83
ssg71
g2063
sg64
(lp2070
g972
asbag57
(g78
g59
NtRp2071
(dp2072
g62
(dp2073
g89
g90
ssg71
g2063
sg64
(lp2074
S':'
asbag57
(g78
g59
NtRp2075
(dp2076
g62
(dp2077
sg71
g2063
sg64
(lp2078
g57
(g58
g59
NtRp2079
(dp2080
g62
(dp2081
g70
I4
ssg71
g2075
sg64
(lp2082
g100
asbasbasbag57
(g73
g59
NtRp2083
(dp2084
g62
(dp2085
sg71
g1952
sg64
(lp2086
g57
(g78
g59
NtRp2087
(dp2088
g62
(dp2089
g82
g83
ssg71
g2083
sg64
(lp2090
g993
asbag57
(g78
g59
NtRp2091
(dp2092
g62
(dp2093
g89
g90
ssg71
g2083
sg64
(lp2094
S':'
asbag57
(g78
g59
NtRp2095
(dp2096
g62
(dp2097
sg71
g2083
sg64
(lp2098
g57
(g58
g59
NtRp2099
(dp2100
g62
(dp2101
g70
I4
ssg71
g2095
sg64
(lp2102
g1006
asbasbasbag57
(g73
g59
NtRp2103
(dp2104
g62
(dp2105
sg71
g1952
sg64
(lp2106
g57
(g78
g59
NtRp2107
(dp2108
g62
(dp2109
g82
g83
ssg71
g2103
sg64
(lp2110
g1169
asbag57
(g78
g59
NtRp2111
(dp2112
g62
(dp2113
g89
g90
ssg71
g2103
sg64
(lp2114
S':'
asbag57
(g78
g59
NtRp2115
(dp2116
g62
(dp2117
sg71
g2103
sg64
(lp2118
g57
(g58
g59
NtRp2119
(dp2120
g62
(dp2121
g70
I4
ssg71
g2115
sg64
(lp2122
g100
asbasbasbag57
(g73
g59
NtRp2123
(dp2124
g62
(dp2125
sg71
g1952
sg64
(lp2126
g57
(g78
g59
NtRp2127
(dp2128
g62
(dp2129
g82
g83
ssg71
g2123
sg64
(lp2130
g1190
asbag57
(g78
g59
NtRp2131
(dp2132
g62
(dp2133
g89
g90
ssg71
g2123
sg64
(lp2134
S':'
asbag57
(g78
g59
NtRp2135
(dp2136
g62
(dp2137
sg71
g2123
sg64
(lp2138
g57
(g58
g59
NtRp2139
(dp2140
g62
(dp2141
g70
I4
ssg71
g2135
sg64
(lp2142
g100
asbasbasbag57
(g73
g59
NtRp2143
(dp2144
g62
(dp2145
sg71
g1952
sg64
(lp2146
g57
(g78
g59
NtRp2147
(dp2148
g62
(dp2149
g82
g83
ssg71
g2143
sg64
(lp2150
g1211
asbag57
(g78
g59
NtRp2151
(dp2152
g62
(dp2153
g89
g90
ssg71
g2143
sg64
(lp2154
S':'
asbag57
(g78
g59
NtRp2155
(dp2156
g62
(dp2157
sg71
g2143
sg64
(lp2158
g57
(g58
g59
NtRp2159
(dp2160
g62
(dp2161
g70
I4
ssg71
g2155
sg64
(lp2162
g57
(g66
g59
NtRp2163
(dp2164
g62
(dp2165
g70
I3
ssg71
Nsg64
(lp2166
g57
(g73
g59
NtRp2167
(dp2168
g62
(dp2169
sg71
g2163
sg64
(lp2170
g57
(g78
g59
NtRp2171
(dp2172
g62
(dp2173
sg71
g2167
sg64
(lp2174
g57
(g58
g59
NtRp2175
(dp2176
g62
(dp2177
g70
I3
ssg71
g2171
sg64
(lp2178
g1240
asbasbasbag57
(g73
g59
NtRp2179
(dp2180
g62
(dp2181
sg71
g2163
sg64
(lp2182
g57
(g78
g59
NtRp2183
(dp2184
g62
(dp2185
sg71
g2179
sg64
(lp2186
g57
(g58
g59
NtRp2187
(dp2188
g62
(dp2189
g70
I3
ssg71
g2183
sg64
(lp2190
g1253
asbasbasbag57
(g73
g59
NtRp2191
(dp2192
g62
(dp2193
sg71
g2163
sg64
(lp2194
g57
(g78
g59
NtRp2195
(dp2196
g62
(dp2197
sg71
g2191
sg64
(lp2198
g57
(g58
g59
NtRp2199
(dp2200
g62
(dp2201
g70
I3
ssg71
g2195
sg64
(lp2202
g1266
asbasbasbag57
(g73
g59
NtRp2203
(dp2204
g62
(dp2205
sg71
g2163
sg64
(lp2206
g57
(g78
g59
NtRp2207
(dp2208
g62
(dp2209
sg71
g2203
sg64
(lp2210
g57
(g58
g59
NtRp2211
(dp2212
g62
(dp2213
g70
I3
ssg71
g2207
sg64
(lp2214
g1279
asbasbasbag57
(g73
g59
NtRp2215
(dp2216
g62
(dp2217
sg71
g2163
sg64
(lp2218
g57
(g78
g59
NtRp2219
(dp2220
g62
(dp2221
sg71
g2215
sg64
(lp2222
g57
(g58
g59
NtRp2223
(dp2224
g62
(dp2225
g70
I3
ssg71
g2219
sg64
(lp2226
g1292
asbasbasbasbasbasbasbag57
(g73
g59
NtRp2227
(dp2228
g62
(dp2229
sg71
g1952
sg64
(lp2230
g57
(g78
g59
NtRp2231
(dp2232
g62
(dp2233
g82
g83
ssg71
g2227
sg64
(lp2234
g1560
asbag57
(g78
g59
NtRp2235
(dp2236
g62
(dp2237
g89
g90
ssg71
g2227
sg64
(lp2238
S':'
asbag57
(g78
g59
NtRp2239
(dp2240
g62
(dp2241
sg71
g2227
sg64
(lp2242
g57
(g58
g59
NtRp2243
(dp2244
g62
(dp2245
g70
I4
ssg71
g2239
sg64
(lp2246
g57
(g66
g59
NtRp2247
(dp2248
g62
(dp2249
g70
I3
ssg71
Nsg64
(lp2250
g57
(g73
g59
NtRp2251
(dp2252
g62
(dp2253
sg71
g2247
sg64
(lp2254
g57
(g78
g59
NtRp2255
(dp2256
g62
(dp2257
sg71
g2251
sg64
(lp2258
g57
(g58
g59
NtRp2259
(dp2260
g62
(dp2261
g70
I3
ssg71
g2255
sg64
(lp2262
S'2'
asbasbasbag57
(g73
g59
NtRp2263
(dp2264
g62
(dp2265
sg71
g2247
sg64
(lp2266
g57
(g78
g59
NtRp2267
(dp2268
g62
(dp2269
sg71
g2263
sg64
(lp2270
g57
(g58
g59
NtRp2271
(dp2272
g62
(dp2273
g70
I3
ssg71
g2267
sg64
(lp2274
S'3'
asbasbasbag57
(g73
g59
NtRp2275
(dp2276
g62
(dp2277
sg71
g2247
sg64
(lp2278
g57
(g78
g59
NtRp2279
(dp2280
g62
(dp2281
sg71
g2275
sg64
(lp2282
g57
(g58
g59
NtRp2283
(dp2284
g62
(dp2285
g70
I3
ssg71
g2279
sg64
(lp2286
S'2'
asbasbasbag57
(g73
g59
NtRp2287
(dp2288
g62
(dp2289
sg71
g2247
sg64
(lp2290
g57
(g78
g59
NtRp2291
(dp2292
g62
(dp2293
sg71
g2287
sg64
(lp2294
g57
(g58
g59
NtRp2295
(dp2296
g62
(dp2297
g70
I3
ssg71
g2291
sg64
(lp2298
S'datetime.datetime(2012, 12, 17, 15, 3, 30)'
p2299
asbasbasbag57
(g73
g59
NtRp2300
(dp2301
g62
(dp2302
sg71
g2247
sg64
(lp2303
g57
(g78
g59
NtRp2304
(dp2305
g62
(dp2306
sg71
g2300
sg64
(lp2307
g57
(g58
g59
NtRp2308
(dp2309
g62
(dp2310
g70
I3
ssg71
g2304
sg64
(lp2311
g1638
asbasbasbasbasbasbasbasbasbasbasbag57
(g73
g59
NtRp2312
(dp2313
g62
(dp2314
sg71
g67
sg64
(lp2315
g57
(g78
g59
NtRp2316
(dp2317
g62
(dp2318
g82
g83
ssg71
g2312
sg64
(lp2319
S'is_https'
p2320
asbag57
(g78
g59
NtRp2321
(dp2322
g62
(dp2323
g89
g90
ssg71
g2312
sg64
(lp2324
S':'
asbag57
(g78
g59
NtRp2325
(dp2326
g62
(dp2327
sg71
g2312
sg64
(lp2328
g57
(g58
g59
NtRp2329
(dp2330
g62
(dp2331
g70
I5
ssg71
g2325
sg64
(lp2332
g100
asbasbasbag57
(g73
g59
NtRp2333
(dp2334
g62
(dp2335
sg71
g67
sg64
(lp2336
g57
(g78
g59
NtRp2337
(dp2338
g62
(dp2339
g82
g83
ssg71
g2333
sg64
(lp2340
S'is_local'
p2341
asbag57
(g78
g59
NtRp2342
(dp2343
g62
(dp2344
g89
g90
ssg71
g2333
sg64
(lp2345
S':'
asbag57
(g78
g59
NtRp2346
(dp2347
g62
(dp2348
sg71
g2333
sg64
(lp2349
g57
(g58
g59
NtRp2350
(dp2351
g62
(dp2352
g70
I5
ssg71
g2346
sg64
(lp2353
g1747
asbasbasbag57
(g73
g59
NtRp2354
(dp2355
g62
(dp2356
sg71
g67
sg64
(lp2357
g57
(g78
g59
NtRp2358
(dp2359
g62
(dp2360
g82
g83
ssg71
g2354
sg64
(lp2361
S'is_restful'
p2362
asbag57
(g78
g59
NtRp2363
(dp2364
g62
(dp2365
g89
g90
ssg71
g2354
sg64
(lp2366
S':'
asbag57
(g78
g59
NtRp2367
(dp2368
g62
(dp2369
sg71
g2354
sg64
(lp2370
g57
(g58
g59
NtRp2371
(dp2372
g62
(dp2373
g70
I5
ssg71
g2367
sg64
(lp2374
g100
asbasbasbag57
(g73
g59
NtRp2375
(dp2376
g62
(dp2377
sg71
g67
sg64
(lp2378
g57
(g78
g59
NtRp2379
(dp2380
g62
(dp2381
g82
g83
ssg71
g2375
sg64
(lp2382
S'now'
p2383
asbag57
(g78
g59
NtRp2384
(dp2385
g62
(dp2386
g89
g90
ssg71
g2375
sg64
(lp2387
S':'
asbag57
(g78
g59
NtRp2388
(dp2389
g62
(dp2390
sg71
g2375
sg64
(lp2391
g57
(g58
g59
NtRp2392
(dp2393
g62
(dp2394
g70
I5
ssg71
g2388
sg64
(lp2395
S'datetime.datetime(2013, 9, 1, 1, 33, 5, 333406)'
p2396
asbasbasbag57
(g73
g59
NtRp2397
(dp2398
g62
(dp2399
sg71
g67
sg64
(lp2400
g57
(g78
g59
NtRp2401
(dp2402
g62
(dp2403
g82
g83
ssg71
g2397
sg64
(lp2404
S'post_vars'
p2405
asbag57
(g78
g59
NtRp2406
(dp2407
g62
(dp2408
g89
g90
ssg71
g2397
sg64
(lp2409
S':'
asbag57
(g78
g59
NtRp2410
(dp2411
g62
(dp2412
sg71
g2397
sg64
(lp2413
g57
(g58
g59
NtRp2414
(dp2415
g62
(dp2416
g70
I5
ssg71
g2410
sg64
(lp2417
g57
(g66
g59
NtRp2418
(dp2419
g62
(dp2420
g70
I4
ssg71
Nsg64
(lp2421
sbasbasbasbag57
(g73
g59
NtRp2422
(dp2423
g62
(dp2424
sg71
g67
sg64
(lp2425
g57
(g78
g59
NtRp2426
(dp2427
g62
(dp2428
g82
g83
ssg71
g2422
sg64
(lp2429
S'raw_args'
p2430
asbag57
(g78
g59
NtRp2431
(dp2432
g62
(dp2433
g89
g90
ssg71
g2422
sg64
(lp2434
S':'
asbag57
(g78
g59
NtRp2435
(dp2436
g62
(dp2437
sg71
g2422
sg64
(lp2438
g57
(g58
g59
NtRp2439
(dp2440
g62
(dp2441
g70
I5
ssg71
g2435
sg64
(lp2442
S''
asbasbasbag57
(g73
g59
NtRp2443
(dp2444
g62
(dp2445
sg71
g67
sg64
(lp2446
g57
(g78
g59
NtRp2447
(dp2448
g62
(dp2449
g82
g83
ssg71
g2443
sg64
(lp2450
S'raw_extension'
p2451
asbag57
(g78
g59
NtRp2452
(dp2453
g62
(dp2454
g89
g90
ssg71
g2443
sg64
(lp2455
S':'
asbag57
(g78
g59
NtRp2456
(dp2457
g62
(dp2458
sg71
g2443
sg64
(lp2459
g57
(g58
g59
NtRp2460
(dp2461
g62
(dp2462
g70
I5
ssg71
g2456
sg64
(lp2463
S'None'
p2464
asbasbasbag57
(g73
g59
NtRp2465
(dp2466
g62
(dp2467
sg71
g67
sg64
(lp2468
g57
(g78
g59
NtRp2469
(dp2470
g62
(dp2471
g82
g83
ssg71
g2465
sg64
(lp2472
S'url'
p2473
asbag57
(g78
g59
NtRp2474
(dp2475
g62
(dp2476
g89
g90
ssg71
g2465
sg64
(lp2477
S':'
asbag57
(g78
g59
NtRp2478
(dp2479
g62
(dp2480
sg71
g2465
sg64
(lp2481
g57
(g58
g59
NtRp2482
(dp2483
g62
(dp2484
g70
I5
ssg71
g2478
sg64
(lp2485
g1314
asbasbasbag57
(g73
g59
NtRp2486
(dp2487
g62
(dp2488
sg71
g67
sg64
(lp2489
g57
(g78
g59
NtRp2490
(dp2491
g62
(dp2492
g82
g83
ssg71
g2486
sg64
(lp2493
S'utcnow'
p2494
asbag57
(g78
g59
NtRp2495
(dp2496
g62
(dp2497
g89
g90
ssg71
g2486
sg64
(lp2498
S':'
asbag57
(g78
g59
NtRp2499
(dp2500
g62
(dp2501
sg71
g2486
sg64
(lp2502
g57
(g58
g59
NtRp2503
(dp2504
g62
(dp2505
g70
I5
ssg71
g2499
sg64
(lp2506
S'datetime.datetime(2013, 8, 31, 20, 3, 5, 333438)'
p2507
asbasbasbag57
(g73
g59
NtRp2508
(dp2509
g62
(dp2510
sg71
g67
sg64
(lp2511
g57
(g78
g59
NtRp2512
(dp2513
g62
(dp2514
g82
g83
ssg71
g2508
sg64
(lp2515
S'uuid'
p2516
asbag57
(g78
g59
NtRp2517
(dp2518
g62
(dp2519
g89
g90
ssg71
g2508
sg64
(lp2520
S':'
asbag57
(g78
g59
NtRp2521
(dp2522
g62
(dp2523
sg71
g2508
sg64
(lp2524
g57
(g58
g59
NtRp2525
(dp2526
g62
(dp2527
g70
I5
ssg71
g2521
sg64
(lp2528
S'SSAD/127.0.0.1.2013-09-01.01-33-05.4edb6a0f-10fb-46a3-95dd-4fd8ef3b3ffa'
p2529
asbasbasbag57
(g73
g59
NtRp2530
(dp2531
g62
(dp2532
sg71
g67
sg64
(lp2533
g57
(g78
g59
NtRp2534
(dp2535
g62
(dp2536
g82
g83
ssg71
g2530
sg64
(lp2537
S'vars'
p2538
asbag57
(g78
g59
NtRp2539
(dp2540
g62
(dp2541
g89
g90
ssg71
g2530
sg64
(lp2542
S':'
asbag57
(g78
g59
NtRp2543
(dp2544
g62
(dp2545
sg71
g2530
sg64
(lp2546
g57
(g58
g59
NtRp2547
(dp2548
g62
(dp2549
g70
I5
ssg71
g2543
sg64
(lp2550
g57
(g66
g59
NtRp2551
(dp2552
g62
(dp2553
g70
I4
ssg71
Nsg64
(lp2554
sbasbasbasbag57
(g73
g59
NtRp2555
(dp2556
g62
(dp2557
sg71
g67
sg64
(lp2558
g57
(g78
g59
NtRp2559
(dp2560
g62
(dp2561
g82
g83
ssg71
g2555
sg64
(lp2562
S'wsgi'
p2563
asbag57
(g78
g59
NtRp2564
(dp2565
g62
(dp2566
g89
g90
ssg71
g2555
sg64
(lp2567
S':'
asbag57
(g78
g59
NtRp2568
(dp2569
g62
(dp2570
sg71
g2555
sg64
(lp2571
g57
(g58
g59
NtRp2572
(dp2573
g62
(dp2574
g70
I5
ssg71
g2568
sg64
(lp2575
g57
(g66
g59
NtRp2576
(dp2577
g62
(dp2578
g70
I4
ssg71
Nsg64
(lp2579
g57
(g73
g59
NtRp2580
(dp2581
g62
(dp2582
sg71
g2576
sg64
(lp2583
g57
(g78
g59
NtRp2584
(dp2585
g62
(dp2586
g82
g83
ssg71
g2580
sg64
(lp2587
S'environ'
p2588
asbag57
(g78
g59
NtRp2589
(dp2590
g62
(dp2591
g89
g90
ssg71
g2580
sg64
(lp2592
S':'
asbag57
(g78
g59
NtRp2593
(dp2594
g62
(dp2595
sg71
g2580
sg64
(lp2596
g57
(g58
g59
NtRp2597
(dp2598
g62
(dp2599
g70
I4
ssg71
g2593
sg64
(lp2600
g57
(g66
g59
NtRp2601
(dp2602
g62
(dp2603
g70
I3
ssg71
Nsg64
(lp2604
g57
(g73
g59
NtRp2605
(dp2606
g62
(dp2607
sg71
g2601
sg64
(lp2608
g57
(g78
g59
NtRp2609
(dp2610
g62
(dp2611
g82
g83
ssg71
g2605
sg64
(lp2612
S'HTTP_ACCEPT'
p2613
asbag57
(g78
g59
NtRp2614
(dp2615
g62
(dp2616
g89
g90
ssg71
g2605
sg64
(lp2617
S':'
asbag57
(g78
g59
NtRp2618
(dp2619
g62
(dp2620
sg71
g2605
sg64
(lp2621
g57
(g58
g59
NtRp2622
(dp2623
g62
(dp2624
g70
I3
ssg71
g2618
sg64
(lp2625
g1028
asbasbasbag57
(g73
g59
NtRp2626
(dp2627
g62
(dp2628
sg71
g2601
sg64
(lp2629
g57
(g78
g59
NtRp2630
(dp2631
g62
(dp2632
g82
g83
ssg71
g2626
sg64
(lp2633
S'HTTP_ACCEPT_ENCODING'
p2634
asbag57
(g78
g59
NtRp2635
(dp2636
g62
(dp2637
g89
g90
ssg71
g2626
sg64
(lp2638
S':'
asbag57
(g78
g59
NtRp2639
(dp2640
g62
(dp2641
sg71
g2626
sg64
(lp2642
g57
(g58
g59
NtRp2643
(dp2644
g62
(dp2645
g70
I3
ssg71
g2639
sg64
(lp2646
g1050
asbasbasbag57
(g73
g59
NtRp2647
(dp2648
g62
(dp2649
sg71
g2601
sg64
(lp2650
g57
(g78
g59
NtRp2651
(dp2652
g62
(dp2653
g82
g83
ssg71
g2647
sg64
(lp2654
S'HTTP_ACCEPT_LANGUAGE'
p2655
asbag57
(g78
g59
NtRp2656
(dp2657
g62
(dp2658
g89
g90
ssg71
g2647
sg64
(lp2659
S':'
asbag57
(g78
g59
NtRp2660
(dp2661
g62
(dp2662
sg71
g2647
sg64
(lp2663
g57
(g58
g59
NtRp2664
(dp2665
g62
(dp2666
g70
I3
ssg71
g2660
sg64
(lp2667
g1072
asbasbasbag57
(g73
g59
NtRp2668
(dp2669
g62
(dp2670
sg71
g2601
sg64
(lp2671
g57
(g78
g59
NtRp2672
(dp2673
g62
(dp2674
g82
g83
ssg71
g2668
sg64
(lp2675
S'HTTP_CONNECTION'
p2676
asbag57
(g78
g59
NtRp2677
(dp2678
g62
(dp2679
g89
g90
ssg71
g2668
sg64
(lp2680
S':'
asbag57
(g78
g59
NtRp2681
(dp2682
g62
(dp2683
sg71
g2668
sg64
(lp2684
g57
(g58
g59
NtRp2685
(dp2686
g62
(dp2687
g70
I3
ssg71
g2681
sg64
(lp2688
g1094
asbasbasbag57
(g73
g59
NtRp2689
(dp2690
g62
(dp2691
sg71
g2601
sg64
(lp2692
g57
(g78
g59
NtRp2693
(dp2694
g62
(dp2695
g82
g83
ssg71
g2689
sg64
(lp2696
S'HTTP_COOKIE'
p2697
asbag57
(g78
g59
NtRp2698
(dp2699
g62
(dp2700
g89
g90
ssg71
g2689
sg64
(lp2701
S':'
asbag57
(g78
g59
NtRp2702
(dp2703
g62
(dp2704
sg71
g2689
sg64
(lp2705
g57
(g58
g59
NtRp2706
(dp2707
g62
(dp2708
g70
I3
ssg71
g2702
sg64
(lp2709
g1116
asbasbasbag57
(g73
g59
NtRp2710
(dp2711
g62
(dp2712
sg71
g2601
sg64
(lp2713
g57
(g78
g59
NtRp2714
(dp2715
g62
(dp2716
g82
g83
ssg71
g2710
sg64
(lp2717
S'HTTP_HOST'
p2718
asbag57
(g78
g59
NtRp2719
(dp2720
g62
(dp2721
g89
g90
ssg71
g2710
sg64
(lp2722
S':'
asbag57
(g78
g59
NtRp2723
(dp2724
g62
(dp2725
sg71
g2710
sg64
(lp2726
g57
(g58
g59
NtRp2727
(dp2728
g62
(dp2729
g70
I3
ssg71
g2723
sg64
(lp2730
g1138
asbasbasbag57
(g73
g59
NtRp2731
(dp2732
g62
(dp2733
sg71
g2601
sg64
(lp2734
g57
(g78
g59
NtRp2735
(dp2736
g62
(dp2737
g82
g83
ssg71
g2731
sg64
(lp2738
S'HTTP_USER_AGENT'
p2739
asbag57
(g78
g59
NtRp2740
(dp2741
g62
(dp2742
g89
g90
ssg71
g2731
sg64
(lp2743
S':'
asbag57
(g78
g59
NtRp2744
(dp2745
g62
(dp2746
sg71
g2731
sg64
(lp2747
g57
(g58
g59
NtRp2748
(dp2749
g62
(dp2750
g70
I3
ssg71
g2744
sg64
(lp2751
g1160
asbasbasbag57
(g73
g59
NtRp2752
(dp2753
g62
(dp2754
sg71
g2601
sg64
(lp2755
g57
(g78
g59
NtRp2756
(dp2757
g62
(dp2758
g82
g83
ssg71
g2752
sg64
(lp2759
S'PATH_INFO'
p2760
asbag57
(g78
g59
NtRp2761
(dp2762
g62
(dp2763
g89
g90
ssg71
g2752
sg64
(lp2764
S':'
asbag57
(g78
g59
NtRp2765
(dp2766
g62
(dp2767
sg71
g2752
sg64
(lp2768
g57
(g58
g59
NtRp2769
(dp2770
g62
(dp2771
g70
I3
ssg71
g2765
sg64
(lp2772
g1314
asbasbasbag57
(g73
g59
NtRp2773
(dp2774
g62
(dp2775
sg71
g2601
sg64
(lp2776
g57
(g78
g59
NtRp2777
(dp2778
g62
(dp2779
g82
g83
ssg71
g2773
sg64
(lp2780
S'QUERY_STRING'
p2781
asbag57
(g78
g59
NtRp2782
(dp2783
g62
(dp2784
g89
g90
ssg71
g2773
sg64
(lp2785
S':'
asbag57
(g78
g59
NtRp2786
(dp2787
g62
(dp2788
sg71
g2773
sg64
(lp2789
g57
(g58
g59
NtRp2790
(dp2791
g62
(dp2792
g70
I3
ssg71
g2786
sg64
(lp2793
S''
asbasbasbag57
(g73
g59
NtRp2794
(dp2795
g62
(dp2796
sg71
g2601
sg64
(lp2797
g57
(g78
g59
NtRp2798
(dp2799
g62
(dp2800
g82
g83
ssg71
g2794
sg64
(lp2801
S'REMOTE_ADDR'
p2802
asbag57
(g78
g59
NtRp2803
(dp2804
g62
(dp2805
g89
g90
ssg71
g2794
sg64
(lp2806
S':'
asbag57
(g78
g59
NtRp2807
(dp2808
g62
(dp2809
sg71
g2794
sg64
(lp2810
g57
(g58
g59
NtRp2811
(dp2812
g62
(dp2813
g70
I3
ssg71
g2807
sg64
(lp2814
g212
asbasbasbag57
(g73
g59
NtRp2815
(dp2816
g62
(dp2817
sg71
g2601
sg64
(lp2818
g57
(g78
g59
NtRp2819
(dp2820
g62
(dp2821
g82
g83
ssg71
g2815
sg64
(lp2822
S'REMOTE_PORT'
p2823
asbag57
(g78
g59
NtRp2824
(dp2825
g62
(dp2826
g89
g90
ssg71
g2815
sg64
(lp2827
S':'
asbag57
(g78
g59
NtRp2828
(dp2829
g62
(dp2830
sg71
g2815
sg64
(lp2831
g57
(g58
g59
NtRp2832
(dp2833
g62
(dp2834
g70
I3
ssg71
g2828
sg64
(lp2835
g1378
asbasbasbag57
(g73
g59
NtRp2836
(dp2837
g62
(dp2838
sg71
g2601
sg64
(lp2839
g57
(g78
g59
NtRp2840
(dp2841
g62
(dp2842
g82
g83
ssg71
g2836
sg64
(lp2843
S'REQUEST_METHOD'
p2844
asbag57
(g78
g59
NtRp2845
(dp2846
g62
(dp2847
g89
g90
ssg71
g2836
sg64
(lp2848
S':'
asbag57
(g78
g59
NtRp2849
(dp2850
g62
(dp2851
sg71
g2836
sg64
(lp2852
g57
(g58
g59
NtRp2853
(dp2854
g62
(dp2855
g70
I3
ssg71
g2849
sg64
(lp2856
g1400
asbasbasbag57
(g73
g59
NtRp2857
(dp2858
g62
(dp2859
sg71
g2601
sg64
(lp2860
g57
(g78
g59
NtRp2861
(dp2862
g62
(dp2863
g82
g83
ssg71
g2857
sg64
(lp2864
S'REQUEST_URI'
p2865
asbag57
(g78
g59
NtRp2866
(dp2867
g62
(dp2868
g89
g90
ssg71
g2857
sg64
(lp2869
S':'
asbag57
(g78
g59
NtRp2870
(dp2871
g62
(dp2872
sg71
g2857
sg64
(lp2873
g57
(g58
g59
NtRp2874
(dp2875
g62
(dp2876
g70
I3
ssg71
g2870
sg64
(lp2877
g1314
asbasbasbag57
(g73
g59
NtRp2878
(dp2879
g62
(dp2880
sg71
g2601
sg64
(lp2881
g57
(g78
g59
NtRp2882
(dp2883
g62
(dp2884
g82
g83
ssg71
g2878
sg64
(lp2885
S'SCRIPT_NAME'
p2886
asbag57
(g78
g59
NtRp2887
(dp2888
g62
(dp2889
g89
g90
ssg71
g2878
sg64
(lp2890
S':'
asbag57
(g78
g59
NtRp2891
(dp2892
g62
(dp2893
sg71
g2878
sg64
(lp2894
g57
(g58
g59
NtRp2895
(dp2896
g62
(dp2897
g70
I3
ssg71
g2891
sg64
(lp2898
S''
asbasbasbag57
(g73
g59
NtRp2899
(dp2900
g62
(dp2901
sg71
g2601
sg64
(lp2902
g57
(g78
g59
NtRp2903
(dp2904
g62
(dp2905
g82
g83
ssg71
g2899
sg64
(lp2906
S'SERVER_NAME'
p2907
asbag57
(g78
g59
NtRp2908
(dp2909
g62
(dp2910
g89
g90
ssg71
g2899
sg64
(lp2911
S':'
asbag57
(g78
g59
NtRp2912
(dp2913
g62
(dp2914
sg71
g2899
sg64
(lp2915
g57
(g58
g59
NtRp2916
(dp2917
g62
(dp2918
g70
I3
ssg71
g2912
sg64
(lp2919
g1464
asbasbasbag57
(g73
g59
NtRp2920
(dp2921
g62
(dp2922
sg71
g2601
sg64
(lp2923
g57
(g78
g59
NtRp2924
(dp2925
g62
(dp2926
g82
g83
ssg71
g2920
sg64
(lp2927
S'SERVER_PORT'
p2928
asbag57
(g78
g59
NtRp2929
(dp2930
g62
(dp2931
g89
g90
ssg71
g2920
sg64
(lp2932
S':'
asbag57
(g78
g59
NtRp2933
(dp2934
g62
(dp2935
sg71
g2920
sg64
(lp2936
g57
(g58
g59
NtRp2937
(dp2938
g62
(dp2939
g70
I3
ssg71
g2933
sg64
(lp2940
g1486
asbasbasbag57
(g73
g59
NtRp2941
(dp2942
g62
(dp2943
sg71
g2601
sg64
(lp2944
g57
(g78
g59
NtRp2945
(dp2946
g62
(dp2947
g82
g83
ssg71
g2941
sg64
(lp2948
S'SERVER_PROTOCOL'
p2949
asbag57
(g78
g59
NtRp2950
(dp2951
g62
(dp2952
g89
g90
ssg71
g2941
sg64
(lp2953
S':'
asbag57
(g78
g59
NtRp2954
(dp2955
g62
(dp2956
sg71
g2941
sg64
(lp2957
g57
(g58
g59
NtRp2958
(dp2959
g62
(dp2960
g70
I3
ssg71
g2954
sg64
(lp2961
g1508
asbasbasbag57
(g73
g59
NtRp2962
(dp2963
g62
(dp2964
sg71
g2601
sg64
(lp2965
g57
(g78
g59
NtRp2966
(dp2967
g62
(dp2968
g82
g83
ssg71
g2962
sg64
(lp2969
S'SERVER_SOFTWARE'
p2970
asbag57
(g78
g59
NtRp2971
(dp2972
g62
(dp2973
g89
g90
ssg71
g2962
sg64
(lp2974
S':'
asbag57
(g78
g59
NtRp2975
(dp2976
g62
(dp2977
sg71
g2962
sg64
(lp2978
g57
(g58
g59
NtRp2979
(dp2980
g62
(dp2981
g70
I3
ssg71
g2975
sg64
(lp2982
g1530
asbasbasbag57
(g73
g59
NtRp2983
(dp2984
g62
(dp2985
sg71
g2601
sg64
(lp2986
g57
(g78
g59
NtRp2987
(dp2988
g62
(dp2989
g82
g83
ssg71
g2983
sg64
(lp2990
S'wsgi.errors'
p2991
asbag57
(g78
g59
NtRp2992
(dp2993
g62
(dp2994
g89
g90
ssg71
g2983
sg64
(lp2995
S':'
asbag57
(g78
g59
NtRp2996
(dp2997
g62
(dp2998
sg71
g2983
sg64
(lp2999
g57
(g58
g59
NtRp3000
(dp3001
g62
(dp3002
g70
I3
ssg71
g2996
sg64
(lp3003
S"<open file '<stderr>', mode 'w' at 0x7fd2027fb270>"
p3004
asbasbasbag57
(g73
g59
NtRp3005
(dp3006
g62
(dp3007
sg71
g2601
sg64
(lp3008
g57
(g78
g59
NtRp3009
(dp3010
g62
(dp3011
g82
g83
ssg71
g3005
sg64
(lp3012
S'wsgi.file_wrapper'
p3013
asbag57
(g78
g59
NtRp3014
(dp3015
g62
(dp3016
g89
g90
ssg71
g3005
sg64
(lp3017
S':'
asbag57
(g78
g59
NtRp3018
(dp3019
g62
(dp3020
sg71
g3005
sg64
(lp3021
g57
(g58
g59
NtRp3022
(dp3023
g62
(dp3024
g70
I3
ssg71
g3018
sg64
(lp3025
S'<class wsgiref.util.FileWrapper at 0x25e18d8>'
p3026
asbasbasbag57
(g73
g59
NtRp3027
(dp3028
g62
(dp3029
sg71
g2601
sg64
(lp3030
g57
(g78
g59
NtRp3031
(dp3032
g62
(dp3033
g82
g83
ssg71
g3027
sg64
(lp3034
S'wsgi.input'
p3035
asbag57
(g78
g59
NtRp3036
(dp3037
g62
(dp3038
g89
g90
ssg71
g3027
sg64
(lp3039
S':'
asbag57
(g78
g59
NtRp3040
(dp3041
g62
(dp3042
sg71
g3027
sg64
(lp3043
g57
(g58
g59
NtRp3044
(dp3045
g62
(dp3046
g70
I3
ssg71
g3040
sg64
(lp3047
S'<cStringIO.StringO object at 0x7fd1e4082a78>'
p3048
asbasbasbag57
(g73
g59
NtRp3049
(dp3050
g62
(dp3051
sg71
g2601
sg64
(lp3052
g57
(g78
g59
NtRp3053
(dp3054
g62
(dp3055
g82
g83
ssg71
g3049
sg64
(lp3056
S'wsgi.multiprocess'
p3057
asbag57
(g78
g59
NtRp3058
(dp3059
g62
(dp3060
g89
g90
ssg71
g3049
sg64
(lp3061
S':'
asbag57
(g78
g59
NtRp3062
(dp3063
g62
(dp3064
sg71
g3049
sg64
(lp3065
g57
(g58
g59
NtRp3066
(dp3067
g62
(dp3068
g70
I3
ssg71
g3062
sg64
(lp3069
g100
asbasbasbag57
(g73
g59
NtRp3070
(dp3071
g62
(dp3072
sg71
g2601
sg64
(lp3073
g57
(g78
g59
NtRp3074
(dp3075
g62
(dp3076
g82
g83
ssg71
g3070
sg64
(lp3077
S'wsgi.multithread'
p3078
asbag57
(g78
g59
NtRp3079
(dp3080
g62
(dp3081
g89
g90
ssg71
g3070
sg64
(lp3082
S':'
asbag57
(g78
g59
NtRp3083
(dp3084
g62
(dp3085
sg71
g3070
sg64
(lp3086
g57
(g58
g59
NtRp3087
(dp3088
g62
(dp3089
g70
I3
ssg71
g3083
sg64
(lp3090
g1747
asbasbasbag57
(g73
g59
NtRp3091
(dp3092
g62
(dp3093
sg71
g2601
sg64
(lp3094
g57
(g78
g59
NtRp3095
(dp3096
g62
(dp3097
g82
g83
ssg71
g3091
sg64
(lp3098
S'wsgi.run_once'
p3099
asbag57
(g78
g59
NtRp3100
(dp3101
g62
(dp3102
g89
g90
ssg71
g3091
sg64
(lp3103
S':'
asbag57
(g78
g59
NtRp3104
(dp3105
g62
(dp3106
sg71
g3091
sg64
(lp3107
g57
(g58
g59
NtRp3108
(dp3109
g62
(dp3110
g70
I3
ssg71
g3104
sg64
(lp3111
g100
asbasbasbag57
(g73
g59
NtRp3112
(dp3113
g62
(dp3114
sg71
g2601
sg64
(lp3115
g57
(g78
g59
NtRp3116
(dp3117
g62
(dp3118
g82
g83
ssg71
g3112
sg64
(lp3119
S'wsgi.url_scheme'
p3120
asbag57
(g78
g59
NtRp3121
(dp3122
g62
(dp3123
g89
g90
ssg71
g3112
sg64
(lp3124
S':'
asbag57
(g78
g59
NtRp3125
(dp3126
g62
(dp3127
sg71
g3112
sg64
(lp3128
g57
(g58
g59
NtRp3129
(dp3130
g62
(dp3131
g70
I3
ssg71
g3125
sg64
(lp3132
g1790
asbasbasbag57
(g73
g59
NtRp3133
(dp3134
g62
(dp3135
sg71
g2601
sg64
(lp3136
g57
(g78
g59
NtRp3137
(dp3138
g62
(dp3139
g82
g83
ssg71
g3133
sg64
(lp3140
S'wsgi.version'
p3141
asbag57
(g78
g59
NtRp3142
(dp3143
g62
(dp3144
g89
g90
ssg71
g3133
sg64
(lp3145
S':'
asbag57
(g78
g59
NtRp3146
(dp3147
g62
(dp3148
sg71
g3133
sg64
(lp3149
g57
(g58
g59
NtRp3150
(dp3151
g62
(dp3152
g70
I3
ssg71
g3146
sg64
(lp3153
S'1'
asbasbasbasbasbasbasbasbasbasbasbasbasbsS'frames'
p3154
(lp3155
(dp3156
S'file'
p3157
S'/home/urvashi/Desktop/WEB2PY/web2py/gluon/restricted.py'
p3158
sS'dump'
p3159
(dp3160
S'environment'
p3161
S"{'A': <class 'gluon.html.A'>, 'Auth': <class 'gluon.tools.Auth'>, 'B': <class 'gluon.html.B'>, 'BEAUTIFY': <class 'gluon.html.BEAUTIFY'>, 'BODY': <class 'gluon.html.BODY'>, 'BR': <class 'gluon.html.BR'>, 'BUTTON': <class 'gluon.html.BUTTON'>, 'CAT': <class 'gluon.html.CAT'>, 'CENTER': <class 'gluon.html.CENTER'>, 'CLEANUP': <class 'gluon.validators.CLEANUP'>, ...}"
p3162
sS'ccode'
p3163
S'<code object <module> at 0x7fd1f010a430, file "/...ions/SSAD/views/default/view_posts.html", line 1>'
p3164
ssS'lnum'
p3165
I212
sS'lines'
p3166
(dp3167
I207
S'    try:'
p3168
sI208
S'        if isinstance(code, types.CodeType):'
p3169
sI209
S'            ccode = code'
p3170
sI210
S'        else:'
p3171
sI211
S'            ccode = compile2(code, layer)'
p3172
sI212
S'        exec ccode in environment'
p3173
sI213
S'    except HTTP:'
p3174
sI214
S'        raise'
p3175
sI215
S'    except RestrictedError:'
p3176
sI216
S'        # do not encapsulate (obfuscate) the original RestrictedError'
p3177
ssS'call'
p3178
S'(code=\'response.write(\\\'<!DOCTYPE html>\\\\n<!-- paulirish...."></script>\\\\n</body>\\\\n</html>\\\\n\\\\n\\\', escape=False)\', environment={\'A\': <class \'gluon.html.A\'>, \'Auth\': <class \'gluon.tools.Auth\'>, \'B\': <class \'gluon.html.B\'>, \'BEAUTIFY\': <class \'gluon.html.BEAUTIFY\'>, \'BODY\': <class \'gluon.html.BODY\'>, \'BR\': <class \'gluon.html.BR\'>, \'BUTTON\': <class \'gluon.html.BUTTON\'>, \'CAT\': <class \'gluon.html.CAT\'>, \'CENTER\': <class \'gluon.html.CENTER\'>, \'CLEANUP\': <class \'gluon.validators.CLEANUP\'>, ...}, layer=\'/home/urvashi/Desktop/WEB2PY/web2py/applications/SSAD/views/default/view_posts.html\')'
p3179
sS'func'
p3180
S'restricted'
p3181
sa(dp3182
g3157
S'/home/urvashi/Desktop/WEB2PY/web2py/applications/SSAD/views/default/view_posts.html'
p3183
sg3159
(dp3184
sg3165
I93
sg3166
(dp3185
I96
S'        response.write(\'" frameborder="0" allowfullscreen></iframe><br>\\n\', escape=False)'
p3186
sI97
S'        pass'
p3187
sI98
S"    response.write('\\n\\n\\n\\nCategory : ', escape=False)"
p3188
sI99
S"    response.write(lists[i]['links.category'])"
p3189
sI100
S"    response.write('<br>\\nLikes : ', escape=False)"
p3190
sI101
S"    response.write(lists[i]['links.likes'])"
p3191
sI102
S"    response.write('<br>\\nDislikes : ', escape=False)"
p3192
sI103
S"    response.write(lists[i]['links.dislikes'])"
p3193
sI84
S'    response.write(\'" target="_blank">\', escape=False)'
p3194
sI85
S"    response.write(lists[i]['links.heading'])"
p3195
sI86
S"    response.write('</a><br>\\n', escape=False)"
p3196
sI87
S"    vi=str(lists[i]['links.video_link'])"
p3197
sI88
S"    response.write('\\n', escape=False)"
p3198
sI89
S"    if vi!='':"
p3199
sI90
S"        response.write('\\n', escape=False)"
p3200
sI91
S"        vo=vi.split('=')"
p3201
sI92
S"        response.write('\\n', escape=False)"
p3202
sI93
S'        v=vo[1]'
p3203
sI94
S'        response.write(\'\\nVideo Link : <iframe width="560" height="315" src="//www.youtube.com/embed/\', escape=False)'
p3204
sI95
S'        response.write(v)'
p3205
ssg3178
S'()'
p3206
sg3180
S'<module>'
p3207
sasS'pyver'
p3208
S'Python 2.7.3: /usr/bin/python'
p3209
sS'session'
p3210
g57
(g58
g59
NtRp3211
(dp3212
g62
(dp3213
sg64
(lp3214
g57
(g66
g59
NtRp3215
(dp3216
g62
(dp3217
g70
I5
ssg71
Nsg64
(lp3218
g57
(g73
g59
NtRp3219
(dp3220
g62
(dp3221
sg71
g3215
sg64
(lp3222
g57
(g78
g59
NtRp3223
(dp3224
g62
(dp3225
g82
g83
ssg71
g3219
sg64
(lp3226
S'auth'
p3227
asbag57
(g78
g59
NtRp3228
(dp3229
g62
(dp3230
g89
g90
ssg71
g3219
sg64
(lp3231
S':'
asbag57
(g78
g59
NtRp3232
(dp3233
g62
(dp3234
sg71
g3219
sg64
(lp3235
g57
(g58
g59
NtRp3236
(dp3237
g62
(dp3238
g70
I5
ssg71
g3232
sg64
(lp3239
g57
(g66
g59
NtRp3240
(dp3241
g62
(dp3242
g70
I4
ssg71
Nsg64
(lp3243
g57
(g73
g59
NtRp3244
(dp3245
g62
(dp3246
sg71
g3240
sg64
(lp3247
g57
(g78
g59
NtRp3248
(dp3249
g62
(dp3250
g82
g83
ssg71
g3244
sg64
(lp3251
S'expiration'
p3252
asbag57
(g78
g59
NtRp3253
(dp3254
g62
(dp3255
g89
g90
ssg71
g3244
sg64
(lp3256
S':'
asbag57
(g78
g59
NtRp3257
(dp3258
g62
(dp3259
sg71
g3244
sg64
(lp3260
g57
(g58
g59
NtRp3261
(dp3262
g62
(dp3263
g70
I4
ssg71
g3257
sg64
(lp3264
S'3600'
p3265
asbasbasbag57
(g73
g59
NtRp3266
(dp3267
g62
(dp3268
sg71
g3240
sg64
(lp3269
g57
(g78
g59
NtRp3270
(dp3271
g62
(dp3272
g82
g83
ssg71
g3266
sg64
(lp3273
S'hmac_key'
p3274
asbag57
(g78
g59
NtRp3275
(dp3276
g62
(dp3277
g89
g90
ssg71
g3266
sg64
(lp3278
S':'
asbag57
(g78
g59
NtRp3279
(dp3280
g62
(dp3281
sg71
g3266
sg64
(lp3282
g57
(g58
g59
NtRp3283
(dp3284
g62
(dp3285
g70
I4
ssg71
g3279
sg64
(lp3286
S'16caf2be-e10f-457f-9619-48dad64134d9'
p3287
asbasbasbag57
(g73
g59
NtRp3288
(dp3289
g62
(dp3290
sg71
g3240
sg64
(lp3291
g57
(g78
g59
NtRp3292
(dp3293
g62
(dp3294
g82
g83
ssg71
g3288
sg64
(lp3295
S'last_visit'
p3296
asbag57
(g78
g59
NtRp3297
(dp3298
g62
(dp3299
g89
g90
ssg71
g3288
sg64
(lp3300
S':'
asbag57
(g78
g59
NtRp3301
(dp3302
g62
(dp3303
sg71
g3288
sg64
(lp3304
g57
(g58
g59
NtRp3305
(dp3306
g62
(dp3307
g70
I4
ssg71
g3301
sg64
(lp3308
S'datetime.datetime(2013, 9, 1, 1, 31, 46, 116429)'
p3309
asbasbasbag57
(g73
g59
NtRp3310
(dp3311
g62
(dp3312
sg71
g3240
sg64
(lp3313
g57
(g78
g59
NtRp3314
(dp3315
g62
(dp3316
g82
g83
ssg71
g3310
sg64
(lp3317
S'remember'
p3318
asbag57
(g78
g59
NtRp3319
(dp3320
g62
(dp3321
g89
g90
ssg71
g3310
sg64
(lp3322
S':'
asbag57
(g78
g59
NtRp3323
(dp3324
g62
(dp3325
sg71
g3310
sg64
(lp3326
g57
(g58
g59
NtRp3327
(dp3328
g62
(dp3329
g70
I4
ssg71
g3323
sg64
(lp3330
g100
asbasbasbag57
(g73
g59
NtRp3331
(dp3332
g62
(dp3333
sg71
g3240
sg64
(lp3334
g57
(g78
g59
NtRp3335
(dp3336
g62
(dp3337
g82
g83
ssg71
g3331
sg64
(lp3338
S'user'
p3339
asbag57
(g78
g59
NtRp3340
(dp3341
g62
(dp3342
g89
g90
ssg71
g3331
sg64
(lp3343
S':'
asbag57
(g78
g59
NtRp3344
(dp3345
g62
(dp3346
sg71
g3331
sg64
(lp3347
g57
(g58
g59
NtRp3348
(dp3349
g62
(dp3350
g70
I4
ssg71
g3344
sg64
(lp3351
g57
(g66
g59
NtRp3352
(dp3353
g62
(dp3354
g70
I3
ssg71
Nsg64
(lp3355
g57
(g73
g59
NtRp3356
(dp3357
g62
(dp3358
sg71
g3352
sg64
(lp3359
g57
(g78
g59
NtRp3360
(dp3361
g62
(dp3362
g82
g83
ssg71
g3356
sg64
(lp3363
S'email'
p3364
asbag57
(g78
g59
NtRp3365
(dp3366
g62
(dp3367
g89
g90
ssg71
g3356
sg64
(lp3368
S':'
asbag57
(g78
g59
NtRp3369
(dp3370
g62
(dp3371
sg71
g3356
sg64
(lp3372
g57
(g58
g59
NtRp3373
(dp3374
g62
(dp3375
g70
I3
ssg71
g3369
sg64
(lp3376
S'urvashi.senha@students.iiit.ac.in'
p3377
asbasbasbag57
(g73
g59
NtRp3378
(dp3379
g62
(dp3380
sg71
g3352
sg64
(lp3381
g57
(g78
g59
NtRp3382
(dp3383
g62
(dp3384
g82
g83
ssg71
g3378
sg64
(lp3385
S'first_name'
p3386
asbag57
(g78
g59
NtRp3387
(dp3388
g62
(dp3389
g89
g90
ssg71
g3378
sg64
(lp3390
S':'
asbag57
(g78
g59
NtRp3391
(dp3392
g62
(dp3393
sg71
g3378
sg64
(lp3394
g57
(g58
g59
NtRp3395
(dp3396
g62
(dp3397
g70
I3
ssg71
g3391
sg64
(lp3398
S'Urvashi'
p3399
asbasbasbag57
(g73
g59
NtRp3400
(dp3401
g62
(dp3402
sg71
g3352
sg64
(lp3403
g57
(g78
g59
NtRp3404
(dp3405
g62
(dp3406
g82
g83
ssg71
g3400
sg64
(lp3407
S'id'
p3408
asbag57
(g78
g59
NtRp3409
(dp3410
g62
(dp3411
g89
g90
ssg71
g3400
sg64
(lp3412
S':'
asbag57
(g78
g59
NtRp3413
(dp3414
g62
(dp3415
sg71
g3400
sg64
(lp3416
g57
(g58
g59
NtRp3417
(dp3418
g62
(dp3419
g70
I3
ssg71
g3413
sg64
(lp3420
S'3'
asbasbasbag57
(g73
g59
NtRp3421
(dp3422
g62
(dp3423
sg71
g3352
sg64
(lp3424
g57
(g78
g59
NtRp3425
(dp3426
g62
(dp3427
g82
g83
ssg71
g3421
sg64
(lp3428
S'last_name'
p3429
asbag57
(g78
g59
NtRp3430
(dp3431
g62
(dp3432
g89
g90
ssg71
g3421
sg64
(lp3433
S':'
asbag57
(g78
g59
NtRp3434
(dp3435
g62
(dp3436
sg71
g3421
sg64
(lp3437
g57
(g58
g59
NtRp3438
(dp3439
g62
(dp3440
g70
I3
ssg71
g3434
sg64
(lp3441
S'Senha'
p3442
asbasbasbag57
(g73
g59
NtRp3443
(dp3444
g62
(dp3445
sg71
g3352
sg64
(lp3446
g57
(g78
g59
NtRp3447
(dp3448
g62
(dp3449
g82
g83
ssg71
g3443
sg64
(lp3450
S'registration_id'
p3451
asbag57
(g78
g59
NtRp3452
(dp3453
g62
(dp3454
g89
g90
ssg71
g3443
sg64
(lp3455
S':'
asbag57
(g78
g59
NtRp3456
(dp3457
g62
(dp3458
sg71
g3443
sg64
(lp3459
g57
(g58
g59
NtRp3460
(dp3461
g62
(dp3462
g70
I3
ssg71
g3456
sg64
(lp3463
S''
asbasbasbag57
(g73
g59
NtRp3464
(dp3465
g62
(dp3466
sg71
g3352
sg64
(lp3467
g57
(g78
g59
NtRp3468
(dp3469
g62
(dp3470
g82
g83
ssg71
g3464
sg64
(lp3471
S'registration_key'
p3472
asbag57
(g78
g59
NtRp3473
(dp3474
g62
(dp3475
g89
g90
ssg71
g3464
sg64
(lp3476
S':'
asbag57
(g78
g59
NtRp3477
(dp3478
g62
(dp3479
sg71
g3464
sg64
(lp3480
g57
(g58
g59
NtRp3481
(dp3482
g62
(dp3483
g70
I3
ssg71
g3477
sg64
(lp3484
S''
asbasbasbag57
(g73
g59
NtRp3485
(dp3486
g62
(dp3487
sg71
g3352
sg64
(lp3488
g57
(g78
g59
NtRp3489
(dp3490
g62
(dp3491
g82
g83
ssg71
g3485
sg64
(lp3492
S'reset_password_key'
p3493
asbag57
(g78
g59
NtRp3494
(dp3495
g62
(dp3496
g89
g90
ssg71
g3485
sg64
(lp3497
S':'
asbag57
(g78
g59
NtRp3498
(dp3499
g62
(dp3500
sg71
g3485
sg64
(lp3501
g57
(g58
g59
NtRp3502
(dp3503
g62
(dp3504
g70
I3
ssg71
g3498
sg64
(lp3505
S''
asbasbasbasbasbasbasbag57
(g73
g59
NtRp3506
(dp3507
g62
(dp3508
sg71
g3240
sg64
(lp3509
g57
(g78
g59
NtRp3510
(dp3511
g62
(dp3512
g82
g83
ssg71
g3506
sg64
(lp3513
S'user_groups'
p3514
asbag57
(g78
g59
NtRp3515
(dp3516
g62
(dp3517
g89
g90
ssg71
g3506
sg64
(lp3518
S':'
asbag57
(g78
g59
NtRp3519
(dp3520
g62
(dp3521
sg71
g3506
sg64
(lp3522
g57
(g58
g59
NtRp3523
(dp3524
g62
(dp3525
g70
I4
ssg71
g3519
sg64
(lp3526
g57
(g66
g59
NtRp3527
(dp3528
g62
(dp3529
g70
I3
ssg71
Nsg64
(lp3530
g57
(g73
g59
NtRp3531
(dp3532
g62
(dp3533
sg71
g3527
sg64
(lp3534
g57
(g78
g59
NtRp3535
(dp3536
g62
(dp3537
g82
g83
ssg71
g3531
sg64
(lp3538
S'1'
asbag57
(g78
g59
NtRp3539
(dp3540
g62
(dp3541
g89
g90
ssg71
g3531
sg64
(lp3542
S':'
asbag57
(g78
g59
NtRp3543
(dp3544
g62
(dp3545
sg71
g3531
sg64
(lp3546
g57
(g58
g59
NtRp3547
(dp3548
g62
(dp3549
g70
I3
ssg71
g3543
sg64
(lp3550
S'user_3'
p3551
asbasbasbasbasbasbasbasbasbasbasbag57
(g73
g59
NtRp3552
(dp3553
g62
(dp3554
sg71
g3215
sg64
(lp3555
g57
(g78
g59
NtRp3556
(dp3557
g62
(dp3558
g82
g83
ssg71
g3552
sg64
(lp3559
S'flash'
p3560
asbag57
(g78
g59
NtRp3561
(dp3562
g62
(dp3563
g89
g90
ssg71
g3552
sg64
(lp3564
S':'
asbag57
(g78
g59
NtRp3565
(dp3566
g62
(dp3567
sg71
g3552
sg64
(lp3568
g57
(g58
g59
NtRp3569
(dp3570
g62
(dp3571
g70
I5
ssg71
g3565
sg64
(lp3572
S'None'
p3573
asbasbasbasbasbsS'etype'
p3574
S"<type 'exceptions.IndexError'>"
p3575
sS'date'
p3576
S'Sun Sep  1 01:33:05 2013'
p3577
sS'response'
p3578
g57
(g58
g59
NtRp3579
(dp3580
g62
(dp3581
sg64
(lp3582
g57
(g66
g59
NtRp3583
(dp3584
g62
(dp3585
g70
I5
ssg71
Nsg64
(lp3586
g57
(g73
g59
NtRp3587
(dp3588
g62
(dp3589
sg71
g3583
sg64
(lp3590
g57
(g78
g59
NtRp3591
(dp3592
g62
(dp3593
g82
g83
ssg71
g3587
sg64
(lp3594
g155
asbag57
(g78
g59
NtRp3595
(dp3596
g62
(dp3597
g89
g90
ssg71
g3587
sg64
(lp3598
S':'
asbag57
(g78
g59
NtRp3599
(dp3600
g62
(dp3601
sg71
g3587
sg64
(lp3602
g57
(g58
g59
NtRp3603
(dp3604
g62
(dp3605
g70
I5
ssg71
g3599
sg64
(lp3606
S'<cStringIO.StringO object at 0x7fd1e4082c70>'
p3607
asbasbasbag57
(g73
g59
NtRp3608
(dp3609
g62
(dp3610
sg71
g3583
sg64
(lp3611
g57
(g78
g59
NtRp3612
(dp3613
g62
(dp3614
g82
g83
ssg71
g3608
sg64
(lp3615
g243
asbag57
(g78
g59
NtRp3616
(dp3617
g62
(dp3618
g89
g90
ssg71
g3608
sg64
(lp3619
S':'
asbag57
(g78
g59
NtRp3620
(dp3621
g62
(dp3622
sg71
g3608
sg64
(lp3623
g57
(g58
g59
NtRp3624
(dp3625
g62
(dp3626
g70
I5
ssg71
g3620
sg64
(lp3627
g57
(g66
g59
NtRp3628
(dp3629
g62
(dp3630
g70
I4
ssg71
Nsg64
(lp3631
g57
(g73
g59
NtRp3632
(dp3633
g62
(dp3634
sg71
g3628
sg64
(lp3635
g57
(g78
g59
NtRp3636
(dp3637
g62
(dp3638
g82
g83
ssg71
g3632
sg64
(lp3639
S'session_id_ssad'
p3640
asbag57
(g78
g59
NtRp3641
(dp3642
g62
(dp3643
g89
g90
ssg71
g3632
sg64
(lp3644
S':'
asbag57
(g78
g59
NtRp3645
(dp3646
g62
(dp3647
sg71
g3632
sg64
(lp3648
g57
(g58
g59
NtRp3649
(dp3650
g62
(dp3651
g70
I4
ssg71
g3645
sg64
(lp3652
g475
ag57
(g66
g59
NtRp3653
(dp3654
g62
(dp3655
g70
I3
ssg71
Nsg64
(lp3656
g57
(g73
g59
NtRp3657
(dp3658
g62
(dp3659
sg71
g3653
sg64
(lp3660
g57
(g78
g59
NtRp3661
(dp3662
g62
(dp3663
g82
g83
ssg71
g3657
sg64
(lp3664
g294
asbag57
(g78
g59
NtRp3665
(dp3666
g62
(dp3667
g89
g90
ssg71
g3657
sg64
(lp3668
S':'
asbag57
(g78
g59
NtRp3669
(dp3670
g62
(dp3671
sg71
g3657
sg64
(lp3672
g57
(g58
g59
NtRp3673
(dp3674
g62
(dp3675
g70
I3
ssg71
g3669
sg64
(lp3676
S''
asbasbasbag57
(g73
g59
NtRp3677
(dp3678
g62
(dp3679
sg71
g3653
sg64
(lp3680
g57
(g78
g59
NtRp3681
(dp3682
g62
(dp3683
g82
g83
ssg71
g3677
sg64
(lp3684
g315
asbag57
(g78
g59
NtRp3685
(dp3686
g62
(dp3687
g89
g90
ssg71
g3677
sg64
(lp3688
S':'
asbag57
(g78
g59
NtRp3689
(dp3690
g62
(dp3691
sg71
g3677
sg64
(lp3692
g57
(g58
g59
NtRp3693
(dp3694
g62
(dp3695
g70
I3
ssg71
g3689
sg64
(lp3696
S''
asbasbasbag57
(g73
g59
NtRp3697
(dp3698
g62
(dp3699
sg71
g3653
sg64
(lp3700
g57
(g78
g59
NtRp3701
(dp3702
g62
(dp3703
g82
g83
ssg71
g3697
sg64
(lp3704
g336
asbag57
(g78
g59
NtRp3705
(dp3706
g62
(dp3707
g89
g90
ssg71
g3697
sg64
(lp3708
S':'
asbag57
(g78
g59
NtRp3709
(dp3710
g62
(dp3711
sg71
g3697
sg64
(lp3712
g57
(g58
g59
NtRp3713
(dp3714
g62
(dp3715
g70
I3
ssg71
g3709
sg64
(lp3716
S''
asbasbasbag57
(g73
g59
NtRp3717
(dp3718
g62
(dp3719
sg71
g3653
sg64
(lp3720
g57
(g78
g59
NtRp3721
(dp3722
g62
(dp3723
g82
g83
ssg71
g3717
sg64
(lp3724
g357
asbag57
(g78
g59
NtRp3725
(dp3726
g62
(dp3727
g89
g90
ssg71
g3717
sg64
(lp3728
S':'
asbag57
(g78
g59
NtRp3729
(dp3730
g62
(dp3731
sg71
g3717
sg64
(lp3732
g57
(g58
g59
NtRp3733
(dp3734
g62
(dp3735
g70
I3
ssg71
g3729
sg64
(lp3736
S''
asbasbasbag57
(g73
g59
NtRp3737
(dp3738
g62
(dp3739
sg71
g3653
sg64
(lp3740
g57
(g78
g59
NtRp3741
(dp3742
g62
(dp3743
g82
g83
ssg71
g3737
sg64
(lp3744
g378
asbag57
(g78
g59
NtRp3745
(dp3746
g62
(dp3747
g89
g90
ssg71
g3737
sg64
(lp3748
S':'
asbag57
(g78
g59
NtRp3749
(dp3750
g62
(dp3751
sg71
g3737
sg64
(lp3752
g57
(g58
g59
NtRp3753
(dp3754
g62
(dp3755
g70
I3
ssg71
g3749
sg64
(lp3756
S''
asbasbasbag57
(g73
g59
NtRp3757
(dp3758
g62
(dp3759
sg71
g3653
sg64
(lp3760
g57
(g78
g59
NtRp3761
(dp3762
g62
(dp3763
g82
g83
ssg71
g3757
sg64
(lp3764
g399
asbag57
(g78
g59
NtRp3765
(dp3766
g62
(dp3767
g89
g90
ssg71
g3757
sg64
(lp3768
S':'
asbag57
(g78
g59
NtRp3769
(dp3770
g62
(dp3771
sg71
g3757
sg64
(lp3772
g57
(g58
g59
NtRp3773
(dp3774
g62
(dp3775
g70
I3
ssg71
g3769
sg64
(lp3776
S'/'
asbasbasbag57
(g73
g59
NtRp3777
(dp3778
g62
(dp3779
sg71
g3653
sg64
(lp3780
g57
(g78
g59
NtRp3781
(dp3782
g62
(dp3783
g82
g83
ssg71
g3777
sg64
(lp3784
g420
asbag57
(g78
g59
NtRp3785
(dp3786
g62
(dp3787
g89
g90
ssg71
g3777
sg64
(lp3788
S':'
asbag57
(g78
g59
NtRp3789
(dp3790
g62
(dp3791
sg71
g3777
sg64
(lp3792
g57
(g58
g59
NtRp3793
(dp3794
g62
(dp3795
g70
I3
ssg71
g3789
sg64
(lp3796
S''
asbasbasbag57
(g73
g59
NtRp3797
(dp3798
g62
(dp3799
sg71
g3653
sg64
(lp3800
g57
(g78
g59
NtRp3801
(dp3802
g62
(dp3803
g82
g83
ssg71
g3797
sg64
(lp3804
g441
asbag57
(g78
g59
NtRp3805
(dp3806
g62
(dp3807
g89
g90
ssg71
g3797
sg64
(lp3808
S':'
asbag57
(g78
g59
NtRp3809
(dp3810
g62
(dp3811
sg71
g3797
sg64
(lp3812
g57
(g58
g59
NtRp3813
(dp3814
g62
(dp3815
g70
I3
ssg71
g3809
sg64
(lp3816
S''
asbasbasbasbasbasbasbasbasbasbasbag57
(g73
g59
NtRp3817
(dp3818
g62
(dp3819
sg71
g3583
sg64
(lp3820
g57
(g78
g59
NtRp3821
(dp3822
g62
(dp3823
g82
g83
ssg71
g3817
sg64
(lp3824
S'delimiters'
p3825
asbag57
(g78
g59
NtRp3826
(dp3827
g62
(dp3828
g89
g90
ssg71
g3817
sg64
(lp3829
S':'
asbag57
(g78
g59
NtRp3830
(dp3831
g62
(dp3832
sg71
g3817
sg64
(lp3833
g57
(g58
g59
NtRp3834
(dp3835
g62
(dp3836
g70
I5
ssg71
g3830
sg64
(lp3837
g57
(g66
g59
NtRp3838
(dp3839
g62
(dp3840
g70
I4
ssg71
Nsg64
(lp3841
g57
(g73
g59
NtRp3842
(dp3843
g62
(dp3844
sg71
g3838
sg64
(lp3845
g57
(g78
g59
NtRp3846
(dp3847
g62
(dp3848
sg71
g3842
sg64
(lp3849
g57
(g58
g59
NtRp3850
(dp3851
g62
(dp3852
g70
I4
ssg71
g3846
sg64
(lp3853
S'{{'
p3854
asbasbasbag57
(g73
g59
NtRp3855
(dp3856
g62
(dp3857
sg71
g3838
sg64
(lp3858
g57
(g78
g59
NtRp3859
(dp3860
g62
(dp3861
sg71
g3855
sg64
(lp3862
g57
(g58
g59
NtRp3863
(dp3864
g62
(dp3865
g70
I4
ssg71
g3859
sg64
(lp3866
S'}}'
p3867
asbasbasbasbasbasbasbag57
(g73
g59
NtRp3868
(dp3869
g62
(dp3870
sg71
g3583
sg64
(lp3871
g57
(g78
g59
NtRp3872
(dp3873
g62
(dp3874
g82
g83
ssg71
g3868
sg64
(lp3875
S'files'
p3876
asbag57
(g78
g59
NtRp3877
(dp3878
g62
(dp3879
g89
g90
ssg71
g3868
sg64
(lp3880
S':'
asbag57
(g78
g59
NtRp3881
(dp3882
g62
(dp3883
sg71
g3868
sg64
(lp3884
g57
(g58
g59
NtRp3885
(dp3886
g62
(dp3887
g70
I5
ssg71
g3881
sg64
(lp3888
g57
(g66
g59
NtRp3889
(dp3890
g62
(dp3891
g70
I4
ssg71
Nsg64
(lp3892
g57
(g73
g59
NtRp3893
(dp3894
g62
(dp3895
sg71
g3889
sg64
(lp3896
g57
(g78
g59
NtRp3897
(dp3898
g62
(dp3899
sg71
g3893
sg64
(lp3900
g57
(g58
g59
NtRp3901
(dp3902
g62
(dp3903
g70
I4
ssg71
g3897
sg64
(lp3904
S'/SSAD/static/js/jquery.js'
p3905
asbasbasbag57
(g73
g59
NtRp3906
(dp3907
g62
(dp3908
sg71
g3889
sg64
(lp3909
g57
(g78
g59
NtRp3910
(dp3911
g62
(dp3912
sg71
g3906
sg64
(lp3913
g57
(g58
g59
NtRp3914
(dp3915
g62
(dp3916
g70
I4
ssg71
g3910
sg64
(lp3917
S'/SSAD/static/css/calendar.css'
p3918
asbasbasbag57
(g73
g59
NtRp3919
(dp3920
g62
(dp3921
sg71
g3889
sg64
(lp3922
g57
(g78
g59
NtRp3923
(dp3924
g62
(dp3925
sg71
g3919
sg64
(lp3926
g57
(g58
g59
NtRp3927
(dp3928
g62
(dp3929
g70
I4
ssg71
g3923
sg64
(lp3930
S'/SSAD/static/js/calendar.js'
p3931
asbasbasbag57
(g73
g59
NtRp3932
(dp3933
g62
(dp3934
sg71
g3889
sg64
(lp3935
g57
(g78
g59
NtRp3936
(dp3937
g62
(dp3938
sg71
g3932
sg64
(lp3939
g57
(g58
g59
NtRp3940
(dp3941
g62
(dp3942
g70
I4
ssg71
g3936
sg64
(lp3943
S'/SSAD/static/js/web2py.js'
p3944
asbasbasbag57
(g73
g59
NtRp3945
(dp3946
g62
(dp3947
sg71
g3889
sg64
(lp3948
g57
(g78
g59
NtRp3949
(dp3950
g62
(dp3951
sg71
g3945
sg64
(lp3952
g57
(g58
g59
NtRp3953
(dp3954
g62
(dp3955
g70
I4
ssg71
g3949
sg64
(lp3956
S'/SSAD/static/css/web2py.css'
p3957
asbasbasbag57
(g73
g59
NtRp3958
(dp3959
g62
(dp3960
sg71
g3889
sg64
(lp3961
g57
(g78
g59
NtRp3962
(dp3963
g62
(dp3964
sg71
g3958
sg64
(lp3965
g57
(g58
g59
NtRp3966
(dp3967
g62
(dp3968
g70
I4
ssg71
g3962
sg64
(lp3969
S'/SSAD/static/css/bootstrap.min.css'
p3970
asbasbasbag57
(g73
g59
NtRp3971
(dp3972
g62
(dp3973
sg71
g3889
sg64
(lp3974
g57
(g78
g59
NtRp3975
(dp3976
g62
(dp3977
sg71
g3971
sg64
(lp3978
g57
(g58
g59
NtRp3979
(dp3980
g62
(dp3981
g70
I4
ssg71
g3975
sg64
(lp3982
S'/SSAD/static/css/bootstrap-responsive.min.css'
p3983
asbasbasbag57
(g73
g59
NtRp3984
(dp3985
g62
(dp3986
sg71
g3889
sg64
(lp3987
g57
(g78
g59
NtRp3988
(dp3989
g62
(dp3990
sg71
g3984
sg64
(lp3991
g57
(g58
g59
NtRp3992
(dp3993
g62
(dp3994
g70
I4
ssg71
g3988
sg64
(lp3995
S'/SSAD/static/css/web2py_bootstrap.css'
p3996
asbasbasbasbasbasbasbag57
(g73
g59
NtRp3997
(dp3998
g62
(dp3999
sg71
g3583
sg64
(lp4000
g57
(g78
g59
NtRp4001
(dp4002
g62
(dp4003
g82
g83
ssg71
g3997
sg64
(lp4004
S'flash'
p4005
asbag57
(g78
g59
NtRp4006
(dp4007
g62
(dp4008
g89
g90
ssg71
g3997
sg64
(lp4009
S':'
asbag57
(g78
g59
NtRp4010
(dp4011
g62
(dp4012
sg71
g3997
sg64
(lp4013
g57
(g58
g59
NtRp4014
(dp4015
g62
(dp4016
g70
I5
ssg71
g4010
sg64
(lp4017
S''
asbasbasbag57
(g73
g59
NtRp4018
(dp4019
g62
(dp4020
sg71
g3583
sg64
(lp4021
g57
(g78
g59
NtRp4022
(dp4023
g62
(dp4024
g82
g83
ssg71
g4018
sg64
(lp4025
S'generic_patterns'
p4026
asbag57
(g78
g59
NtRp4027
(dp4028
g62
(dp4029
g89
g90
ssg71
g4018
sg64
(lp4030
S':'
asbag57
(g78
g59
NtRp4031
(dp4032
g62
(dp4033
sg71
g4018
sg64
(lp4034
g57
(g58
g59
NtRp4035
(dp4036
g62
(dp4037
g70
I5
ssg71
g4031
sg64
(lp4038
g57
(g66
g59
NtRp4039
(dp4040
g62
(dp4041
g70
I4
ssg71
Nsg64
(lp4042
g57
(g73
g59
NtRp4043
(dp4044
g62
(dp4045
sg71
g4039
sg64
(lp4046
g57
(g78
g59
NtRp4047
(dp4048
g62
(dp4049
sg71
g4043
sg64
(lp4050
g57
(g58
g59
NtRp4051
(dp4052
g62
(dp4053
g70
I4
ssg71
g4047
sg64
(lp4054
S'*'
asbasbasbasbasbasbasbag57
(g73
g59
NtRp4055
(dp4056
g62
(dp4057
sg71
g3583
sg64
(lp4058
g57
(g78
g59
NtRp4059
(dp4060
g62
(dp4061
g82
g83
ssg71
g4055
sg64
(lp4062
S'google_analytics_id'
p4063
asbag57
(g78
g59
NtRp4064
(dp4065
g62
(dp4066
g89
g90
ssg71
g4055
sg64
(lp4067
S':'
asbag57
(g78
g59
NtRp4068
(dp4069
g62
(dp4070
sg71
g4055
sg64
(lp4071
g57
(g58
g59
NtRp4072
(dp4073
g62
(dp4074
g70
I5
ssg71
g4068
sg64
(lp4075
S'None'
p4076
asbasbasbag57
(g73
g59
NtRp4077
(dp4078
g62
(dp4079
sg71
g3583
sg64
(lp4080
g57
(g78
g59
NtRp4081
(dp4082
g62
(dp4083
g82
g83
ssg71
g4077
sg64
(lp4084
S'headers'
p4085
asbag57
(g78
g59
NtRp4086
(dp4087
g62
(dp4088
g89
g90
ssg71
g4077
sg64
(lp4089
S':'
asbag57
(g78
g59
NtRp4090
(dp4091
g62
(dp4092
sg71
g4077
sg64
(lp4093
g57
(g58
g59
NtRp4094
(dp4095
g62
(dp4096
g70
I5
ssg71
g4090
sg64
(lp4097
g57
(g66
g59
NtRp4098
(dp4099
g62
(dp4100
g70
I4
ssg71
Nsg64
(lp4101
g57
(g73
g59
NtRp4102
(dp4103
g62
(dp4104
sg71
g4098
sg64
(lp4105
g57
(g78
g59
NtRp4106
(dp4107
g62
(dp4108
g82
g83
ssg71
g4102
sg64
(lp4109
S'X-Powered-By'
p4110
asbag57
(g78
g59
NtRp4111
(dp4112
g62
(dp4113
g89
g90
ssg71
g4102
sg64
(lp4114
S':'
asbag57
(g78
g59
NtRp4115
(dp4116
g62
(dp4117
sg71
g4102
sg64
(lp4118
g57
(g58
g59
NtRp4119
(dp4120
g62
(dp4121
g70
I4
ssg71
g4115
sg64
(lp4122
S'web2py'
p4123
asbasbasbasbasbasbasbag57
(g73
g59
NtRp4124
(dp4125
g62
(dp4126
sg71
g3583
sg64
(lp4127
g57
(g78
g59
NtRp4128
(dp4129
g62
(dp4130
g82
g83
ssg71
g4124
sg64
(lp4131
S'logo'
p4132
asbag57
(g78
g59
NtRp4133
(dp4134
g62
(dp4135
g89
g90
ssg71
g4124
sg64
(lp4136
S':'
asbag57
(g78
g59
NtRp4137
(dp4138
g62
(dp4139
sg71
g4124
sg64
(lp4140
g57
(g58
g59
NtRp4141
(dp4142
g62
(dp4143
g70
I5
ssg71
g4137
sg64
(lp4144
g57
(cgluon.html
A
p4145
g59
NtRp4146
(dp4147
g62
(dp4148
S'_class'
p4149
S'brand'
p4150
sS'_href'
p4151
S'http://www.web2py.com/'
p4152
ssg71
Nsg64
(lp4153
g57
(cgluon.html
B
p4154
g59
NtRp4155
(dp4156
g62
(dp4157
sg71
g4146
sg64
(lp4158
S'web'
p4159
ag57
(cgluon.html
SPAN
p4160
g59
NtRp4161
(dp4162
g62
(dp4163
sg71
g4155
sg64
(lp4164
I2
asbaS'py'
p4165
asbacgluon.html
XML_unpickle
p4166
(S's\r\x00\x00\x00&trade;&nbsp;'
tRp4167
asbasbasbasbag57
(g73
g59
NtRp4168
(dp4169
g62
(dp4170
sg71
g3583
sg64
(lp4171
g57
(g78
g59
NtRp4172
(dp4173
g62
(dp4174
g82
g83
ssg71
g4168
sg64
(lp4175
S'menu'
p4176
asbag57
(g78
g59
NtRp4177
(dp4178
g62
(dp4179
g89
g90
ssg71
g4168
sg64
(lp4180
S':'
asbag57
(g78
g59
NtRp4181
(dp4182
g62
(dp4183
sg71
g4168
sg64
(lp4184
g57
(g58
g59
NtRp4185
(dp4186
g62
(dp4187
g70
I5
ssg71
g4181
sg64
(lp4188
g57
(g66
g59
NtRp4189
(dp4190
g62
(dp4191
g70
I4
ssg71
Nsg64
(lp4192
g57
(g73
g59
NtRp4193
(dp4194
g62
(dp4195
sg71
g4189
sg64
(lp4196
g57
(g78
g59
NtRp4197
(dp4198
g62
(dp4199
sg71
g4193
sg64
(lp4200
g57
(g58
g59
NtRp4201
(dp4202
g62
(dp4203
g70
I4
ssg71
g4197
sg64
(lp4204
g57
(g66
g59
NtRp4205
(dp4206
g62
(dp4207
g70
I3
ssg71
Nsg64
(lp4208
g57
(g73
g59
NtRp4209
(dp4210
g62
(dp4211
sg71
g4205
sg64
(lp4212
g57
(g78
g59
NtRp4213
(dp4214
g62
(dp4215
sg71
g4209
sg64
(lp4216
g57
(g58
g59
NtRp4217
(dp4218
g62
(dp4219
g70
I3
ssg71
g4213
sg64
(lp4220
cgluon.languages
lazyT_unpickle
p4221
(S's\x04\x00\x00\x00Home'
tRp4222
asbasbasbag57
(g73
g59
NtRp4223
(dp4224
g62
(dp4225
sg71
g4205
sg64
(lp4226
g57
(g78
g59
NtRp4227
(dp4228
g62
(dp4229
sg71
g4223
sg64
(lp4230
g57
(g58
g59
NtRp4231
(dp4232
g62
(dp4233
g70
I3
ssg71
g4227
sg64
(lp4234
g100
asbasbasbag57
(g73
g59
NtRp4235
(dp4236
g62
(dp4237
sg71
g4205
sg64
(lp4238
g57
(g78
g59
NtRp4239
(dp4240
g62
(dp4241
sg71
g4235
sg64
(lp4242
g57
(g58
g59
NtRp4243
(dp4244
g62
(dp4245
g70
I3
ssg71
g4239
sg64
(lp4246
S'/SSAD/default/index'
p4247
asbasbasbag57
(g73
g59
NtRp4248
(dp4249
g62
(dp4250
sg71
g4205
sg64
(lp4251
g57
(g78
g59
NtRp4252
(dp4253
g62
(dp4254
sg71
g4248
sg64
(lp4255
g57
(g58
g59
NtRp4256
(dp4257
g62
(dp4258
g70
I3
ssg71
g4252
sg64
(lp4259
g57
(g66
g59
NtRp4260
(dp4261
g62
(dp4262
g70
I2
ssg71
Nsg64
(lp4263
sbasbasbasbasbasbasbasbag57
(g73
g59
NtRp4264
(dp4265
g62
(dp4266
sg71
g4189
sg64
(lp4267
g57
(g78
g59
NtRp4268
(dp4269
g62
(dp4270
sg71
g4264
sg64
(lp4271
g57
(g58
g59
NtRp4272
(dp4273
g62
(dp4274
g70
I4
ssg71
g4268
sg64
(lp4275
g57
(g66
g59
NtRp4276
(dp4277
g62
(dp4278
g70
I3
ssg71
Nsg64
(lp4279
g57
(g73
g59
NtRp4280
(dp4281
g62
(dp4282
sg71
g4276
sg64
(lp4283
g57
(g78
g59
NtRp4284
(dp4285
g62
(dp4286
sg71
g4280
sg64
(lp4287
g57
(g58
g59
NtRp4288
(dp4289
g62
(dp4290
g70
I3
ssg71
g4284
sg64
(lp4291
g57
(g4160
g59
NtRp4292
(dp4293
g62
(dp4294
g4149
S'highlighted'
p4295
ssg71
g57
(g4145
g59
NtRp4296
(dp4297
g62
(dp4298
g4151
S'http://web2py.com'
p4299
ssg71
g57
(cgluon.html
LI
p4300
g59
NtRp4301
(dp4302
g62
(dp4303
g4149
S'dropdown'
p4304
ssg71
g57
(cgluon.html
UL
p4305
g59
NtRp4306
(dp4307
g62
(dp4308
S'mobile'
p4309
I00
sS'ul_class'
p4310
S'dropdown-menu'
p4311
sS'li_last'
p4312
S'web2py-menu-last'
p4313
sS'li_class'
p4314
g4304
sS'li_first'
p4315
S'web2py-menu-first'
p4316
sg4149
S'nav'
p4317
sS'li_active'
p4318
S'web2py-menu-active'
p4319
ssg71
Nsg64
(lp4320
g57
(g4300
g59
NtRp4321
(dp4322
g62
(dp4323
g4149
g4316
ssg71
g4306
sg64
(lp4324
g57
(g4145
g59
NtRp4325
(dp4326
g62
(dp4327
g4151
g4247
ssg71
g4321
sg64
(lp4328
g4222
asbasbag4301
asbsg64
(lp4329
g4296
ag57
(g4305
g59
NtRp4330
(dp4331
g62
(dp4332
g4149
g4311
ssg71
g4301
sg64
(lp4333
g57
(g4300
g59
NtRp4334
(dp4335
g62
(dp4336
sg71
g4330
sg64
(lp4337
g57
(g4145
g59
NtRp4338
(dp4339
g62
(dp4340
g4151
S'/admin/default/site'
p4341
ssg71
g4334
sg64
(lp4342
g4221
(S's\x08\x00\x00\x00My Sites'
tRp4343
asbasbag57
(g4300
g59
NtRp4344
(dp4345
g62
(dp4346
g4149
g4304
ssg71
g4330
sg64
(lp4347
g57
(g4145
g59
NtRp4348
(dp4349
g62
(dp4350
g4151
S'/admin/default/design/SSAD'
p4351
ssg71
g4344
sg64
(lp4352
g4221
(S's\x08\x00\x00\x00This App'
tRp4353
asbag57
(g4305
g59
NtRp4354
(dp4355
g62
(dp4356
g4149
g4311
ssg71
g4344
sg64
(lp4357
g57
(g4300
g59
NtRp4358
(dp4359
g62
(dp4360
sg71
g4354
sg64
(lp4361
g57
(g4145
g59
NtRp4362
(dp4363
g62
(dp4364
g4151
S'/admin/default/edit/SSAD/controllers/default.py'
p4365
ssg71
g4358
sg64
(lp4366
g4221
(S's\n\x00\x00\x00Controller'
tRp4367
asbasbag57
(g4300
g59
NtRp4368
(dp4369
g62
(dp4370
sg71
g4354
sg64
(lp4371
g57
(g4145
g59
NtRp4372
(dp4373
g62
(dp4374
g4151
S'/admin/default/edit/SSAD/views/default/view_posts.html'
p4375
ssg71
g4368
sg64
(lp4376
g4221
(S's\x04\x00\x00\x00View'
tRp4377
asbasbag57
(g4300
g59
NtRp4378
(dp4379
g62
(dp4380
sg71
g4354
sg64
(lp4381
g57
(g4145
g59
NtRp4382
(dp4383
g62
(dp4384
g4151
S'/admin/default/edit/SSAD/views/layout.html'
p4385
ssg71
g4378
sg64
(lp4386
g4221
(S's\x06\x00\x00\x00Layout'
tRp4387
asbasbag57
(g4300
g59
NtRp4388
(dp4389
g62
(dp4390
sg71
g4354
sg64
(lp4391
g57
(g4145
g59
NtRp4392
(dp4393
g62
(dp4394
g4151
S'/admin/default/edit/SSAD/static/css/web2py.css'
p4395
ssg71
g4388
sg64
(lp4396
g4221
(S's\n\x00\x00\x00Stylesheet'
tRp4397
asbasbag57
(g4300
g59
NtRp4398
(dp4399
g62
(dp4400
sg71
g4354
sg64
(lp4401
g57
(g4145
g59
NtRp4402
(dp4403
g62
(dp4404
g4151
S'/admin/default/edit/SSAD/models/db.py'
p4405
ssg71
g4398
sg64
(lp4406
g4221
(S's\x08\x00\x00\x00DB Model'
tRp4407
asbasbag57
(g4300
g59
NtRp4408
(dp4409
g62
(dp4410
sg71
g4354
sg64
(lp4411
g57
(g4145
g59
NtRp4412
(dp4413
g62
(dp4414
g4151
S'/admin/default/edit/SSAD/models/menu.py'
p4415
ssg71
g4408
sg64
(lp4416
g4221
(S's\n\x00\x00\x00Menu Model'
tRp4417
asbasbag57
(g4300
g59
NtRp4418
(dp4419
g62
(dp4420
sg71
g4354
sg64
(lp4421
g57
(g4145
g59
NtRp4422
(dp4423
g62
(dp4424
g4151
S'/SSAD/appadmin/index'
p4425
ssg71
g4418
sg64
(lp4426
g4221
(S's\x08\x00\x00\x00Database'
tRp4427
asbasbag57
(g4300
g59
NtRp4428
(dp4429
g62
(dp4430
sg71
g4354
sg64
(lp4431
g57
(g4145
g59
NtRp4432
(dp4433
g62
(dp4434
g4151
S'/admin/default/errors/SSAD'
p4435
ssg71
g4428
sg64
(lp4436
g4221
(S's\x06\x00\x00\x00Errors'
tRp4437
asbasbag57
(g4300
g59
NtRp4438
(dp4439
g62
(dp4440
sg71
g4354
sg64
(lp4441
g57
(g4145
g59
NtRp4442
(dp4443
g62
(dp4444
g4151
S'/admin/default/about/SSAD'
p4445
ssg71
g4438
sg64
(lp4446
g4221
(S's\x05\x00\x00\x00About'
tRp4447
asbasbasbasbag57
(g4300
g59
NtRp4448
(dp4449
g62
(dp4450
g4149
g4304
ssg71
g4330
sg64
(lp4451
g57
(g4145
g59
NtRp4452
(dp4453
g62
(dp4454
g4151
S'http://www.web2py.com'
p4455
ssg71
g4448
sg64
(lp4456
S'web2py.com'
p4457
asbag57
(g4305
g59
NtRp4458
(dp4459
g62
(dp4460
g4149
g4311
ssg71
g4448
sg64
(lp4461
g57
(g4300
g59
NtRp4462
(dp4463
g62
(dp4464
sg71
g4458
sg64
(lp4465
g57
(g4145
g59
NtRp4466
(dp4467
g62
(dp4468
g4151
S'http://www.web2py.com/examples/default/download'
p4469
ssg71
g4462
sg64
(lp4470
g4221
(S's\x08\x00\x00\x00Download'
tRp4471
asbasbag57
(g4300
g59
NtRp4472
(dp4473
g62
(dp4474
sg71
g4458
sg64
(lp4475
g57
(g4145
g59
NtRp4476
(dp4477
g62
(dp4478
g4151
S'http://www.web2py.com/examples/default/support'
p4479
ssg71
g4472
sg64
(lp4480
g4221
(S's\x07\x00\x00\x00Support'
tRp4481
asbasbag57
(g4300
g59
NtRp4482
(dp4483
g62
(dp4484
sg71
g4458
sg64
(lp4485
g57
(g4145
g59
NtRp4486
(dp4487
g62
(dp4488
g4151
S'http://web2py.com/demo_admin'
p4489
ssg71
g4482
sg64
(lp4490
g4221
(S's\x04\x00\x00\x00Demo'
tRp4491
asbasbag57
(g4300
g59
NtRp4492
(dp4493
g62
(dp4494
sg71
g4458
sg64
(lp4495
g57
(g4145
g59
NtRp4496
(dp4497
g62
(dp4498
g4151
S'http://web2py.com/examples/default/examples'
p4499
ssg71
g4492
sg64
(lp4500
g4221
(S's\x0e\x00\x00\x00Quick Examples'
tRp4501
asbasbag57
(g4300
g59
NtRp4502
(dp4503
g62
(dp4504
sg71
g4458
sg64
(lp4505
g57
(g4145
g59
NtRp4506
(dp4507
g62
(dp4508
g4151
S'http://web2py.com/AlterEgo'
p4509
ssg71
g4502
sg64
(lp4510
g4221
(S's\x03\x00\x00\x00FAQ'
tRp4511
asbasbag57
(g4300
g59
NtRp4512
(dp4513
g62
(dp4514
sg71
g4458
sg64
(lp4515
g57
(g4145
g59
NtRp4516
(dp4517
g62
(dp4518
g4151
S'http://www.web2py.com/examples/default/videos/'
p4519
ssg71
g4512
sg64
(lp4520
g4221
(S's\x06\x00\x00\x00Videos'
tRp4521
asbasbag57
(g4300
g59
NtRp4522
(dp4523
g62
(dp4524
sg71
g4458
sg64
(lp4525
g57
(g4145
g59
NtRp4526
(dp4527
g62
(dp4528
g4151
S'http://web2py.com/appliances'
p4529
ssg71
g4522
sg64
(lp4530
g4221
(S's\x11\x00\x00\x00Free Applications'
tRp4531
asbasbag57
(g4300
g59
NtRp4532
(dp4533
g62
(dp4534
sg71
g4458
sg64
(lp4535
g57
(g4145
g59
NtRp4536
(dp4537
g62
(dp4538
g4151
S'http://web2py.com/plugins'
p4539
ssg71
g4532
sg64
(lp4540
g4221
(S's\x07\x00\x00\x00Plugins'
tRp4541
asbasbag57
(g4300
g59
NtRp4542
(dp4543
g62
(dp4544
sg71
g4458
sg64
(lp4545
g57
(g4145
g59
NtRp4546
(dp4547
g62
(dp4548
g4151
S'http://web2py.com/layouts'
p4549
ssg71
g4542
sg64
(lp4550
g4221
(S's\x07\x00\x00\x00Layouts'
tRp4551
asbasbag57
(g4300
g59
NtRp4552
(dp4553
g62
(dp4554
sg71
g4458
sg64
(lp4555
g57
(g4145
g59
NtRp4556
(dp4557
g62
(dp4558
g4151
S'http://web2pyslices.com/'
p4559
ssg71
g4552
sg64
(lp4560
g4221
(S's\x07\x00\x00\x00Recipes'
tRp4561
asbasbag57
(g4300
g59
NtRp4562
(dp4563
g62
(dp4564
sg71
g4458
sg64
(lp4565
g57
(g4145
g59
NtRp4566
(dp4567
g62
(dp4568
g4151
S'http://web2py.com/semantic'
p4569
ssg71
g4562
sg64
(lp4570
g4221
(S's\x08\x00\x00\x00Semantic'
tRp4571
asbasbasbasbag57
(g4300
g59
NtRp4572
(dp4573
g62
(dp4574
g4149
g4304
ssg71
g4330
sg64
(lp4575
g57
(g4145
g59
NtRp4576
(dp4577
g62
(dp4578
g4151
S'http://www.web2py.com/book'
p4579
ssg71
g4572
sg64
(lp4580
g4221
(S's\r\x00\x00\x00Documentation'
tRp4581
asbag57
(g4305
g59
NtRp4582
(dp4583
g62
(dp4584
g4149
g4311
ssg71
g4572
sg64
(lp4585
g57
(g4300
g59
NtRp4586
(dp4587
g62
(dp4588
sg71
g4582
sg64
(lp4589
g57
(g4145
g59
NtRp4590
(dp4591
g62
(dp4592
g4151
S'http://www.web2py.com/book/default/chapter/00'
p4593
ssg71
g4586
sg64
(lp4594
g4221
(S's\x07\x00\x00\x00Preface'
tRp4595
asbasbag57
(g4300
g59
NtRp4596
(dp4597
g62
(dp4598
sg71
g4582
sg64
(lp4599
g57
(g4145
g59
NtRp4600
(dp4601
g62
(dp4602
g4151
S'http://www.web2py.com/book/default/chapter/01'
p4603
ssg71
g4596
sg64
(lp4604
g4221
(S's\x0c\x00\x00\x00Introduction'
tRp4605
asbasbag57
(g4300
g59
NtRp4606
(dp4607
g62
(dp4608
sg71
g4582
sg64
(lp4609
g57
(g4145
g59
NtRp4610
(dp4611
g62
(dp4612
g4151
S'http://www.web2py.com/book/default/chapter/02'
p4613
ssg71
g4606
sg64
(lp4614
g4221
(S's\x06\x00\x00\x00Python'
tRp4615
asbasbag57
(g4300
g59
NtRp4616
(dp4617
g62
(dp4618
sg71
g4582
sg64
(lp4619
g57
(g4145
g59
NtRp4620
(dp4621
g62
(dp4622
g4151
S'http://www.web2py.com/book/default/chapter/03'
p4623
ssg71
g4616
sg64
(lp4624
g4221
(S's\x08\x00\x00\x00Overview'
tRp4625
asbasbag57
(g4300
g59
NtRp4626
(dp4627
g62
(dp4628
sg71
g4582
sg64
(lp4629
g57
(g4145
g59
NtRp4630
(dp4631
g62
(dp4632
g4151
S'http://www.web2py.com/book/default/chapter/04'
p4633
ssg71
g4626
sg64
(lp4634
g4221
(S's\x08\x00\x00\x00The Core'
tRp4635
asbasbag57
(g4300
g59
NtRp4636
(dp4637
g62
(dp4638
sg71
g4582
sg64
(lp4639
g57
(g4145
g59
NtRp4640
(dp4641
g62
(dp4642
g4151
S'http://www.web2py.com/book/default/chapter/05'
p4643
ssg71
g4636
sg64
(lp4644
g4221
(S's\t\x00\x00\x00The Views'
tRp4645
asbasbag57
(g4300
g59
NtRp4646
(dp4647
g62
(dp4648
sg71
g4582
sg64
(lp4649
g57
(g4145
g59
NtRp4650
(dp4651
g62
(dp4652
g4151
S'http://www.web2py.com/book/default/chapter/06'
p4653
ssg71
g4646
sg64
(lp4654
g4221
(S's\x08\x00\x00\x00Database'
tRp4655
asbasbag57
(g4300
g59
NtRp4656
(dp4657
g62
(dp4658
sg71
g4582
sg64
(lp4659
g57
(g4145
g59
NtRp4660
(dp4661
g62
(dp4662
g4151
S'http://www.web2py.com/book/default/chapter/07'
p4663
ssg71
g4656
sg64
(lp4664
g4221
(S's\x14\x00\x00\x00Forms and Validators'
tRp4665
asbasbag57
(g4300
g59
NtRp4666
(dp4667
g62
(dp4668
sg71
g4582
sg64
(lp4669
g57
(g4145
g59
NtRp4670
(dp4671
g62
(dp4672
g4151
S'http://www.web2py.com/book/default/chapter/08'
p4673
ssg71
g4666
sg64
(lp4674
g4221
(S's\r\x00\x00\x00Email and SMS'
tRp4675
asbasbag57
(g4300
g59
NtRp4676
(dp4677
g62
(dp4678
sg71
g4582
sg64
(lp4679
g57
(g4145
g59
NtRp4680
(dp4681
g62
(dp4682
g4151
S'http://www.web2py.com/book/default/chapter/09'
p4683
ssg71
g4676
sg64
(lp4684
g4221
(S's\x0e\x00\x00\x00Access Control'
tRp4685
asbasbag57
(g4300
g59
NtRp4686
(dp4687
g62
(dp4688
sg71
g4582
sg64
(lp4689
g57
(g4145
g59
NtRp4690
(dp4691
g62
(dp4692
g4151
S'http://www.web2py.com/book/default/chapter/10'
p4693
ssg71
g4686
sg64
(lp4694
g4221
(S's\x08\x00\x00\x00Services'
tRp4695
asbasbag57
(g4300
g59
NtRp4696
(dp4697
g62
(dp4698
sg71
g4582
sg64
(lp4699
g57
(g4145
g59
NtRp4700
(dp4701
g62
(dp4702
g4151
S'http://www.web2py.com/book/default/chapter/11'
p4703
ssg71
g4696
sg64
(lp4704
g4221
(S's\x0c\x00\x00\x00Ajax Recipes'
tRp4705
asbasbag57
(g4300
g59
NtRp4706
(dp4707
g62
(dp4708
sg71
g4582
sg64
(lp4709
g57
(g4145
g59
NtRp4710
(dp4711
g62
(dp4712
g4151
S'http://www.web2py.com/book/default/chapter/12'
p4713
ssg71
g4706
sg64
(lp4714
g4221
(S's\x16\x00\x00\x00Components and Plugins'
tRp4715
asbasbag57
(g4300
g59
NtRp4716
(dp4717
g62
(dp4718
sg71
g4582
sg64
(lp4719
g57
(g4145
g59
NtRp4720
(dp4721
g62
(dp4722
g4151
S'http://www.web2py.com/book/default/chapter/13'
p4723
ssg71
g4716
sg64
(lp4724
g4221
(S's\x12\x00\x00\x00Deployment Recipes'
tRp4725
asbasbag57
(g4300
g59
NtRp4726
(dp4727
g62
(dp4728
sg71
g4582
sg64
(lp4729
g57
(g4145
g59
NtRp4730
(dp4731
g62
(dp4732
g4151
S'http://www.web2py.com/book/default/chapter/14'
p4733
ssg71
g4726
sg64
(lp4734
g4221
(S's\r\x00\x00\x00Other Recipes'
tRp4735
asbasbag57
(g4300
g59
NtRp4736
(dp4737
g62
(dp4738
sg71
g4582
sg64
(lp4739
g57
(g4145
g59
NtRp4740
(dp4741
g62
(dp4742
g4151
S'http://stores.lulu.com/web2py'
p4743
ssg71
g4736
sg64
(lp4744
g4221
(S's\r\x00\x00\x00Buy this book'
tRp4745
asbasbasbasbag57
(g4300
g59
NtRp4746
(dp4747
g62
(dp4748
g4149
g4304
ssg71
g4330
sg64
(lp4749
g57
(g4145
g59
NtRp4750
(dp4751
g62
(dp4752
S'_onclick'
p4753
S'javascript:void(0);return false;'
p4754
sg4151
S'#'
ssg71
g4746
sg64
(lp4755
g4221
(S's\t\x00\x00\x00Community'
tRp4756
asbag57
(g4305
g59
NtRp4757
(dp4758
g62
(dp4759
g4149
g4311
ssg71
g4746
sg64
(lp4760
g57
(g4300
g59
NtRp4761
(dp4762
g62
(dp4763
sg71
g4757
sg64
(lp4764
g57
(g4145
g59
NtRp4765
(dp4766
g62
(dp4767
g4151
S'http://www.web2py.com/examples/default/usergroups'
p4768
ssg71
g4761
sg64
(lp4769
g4221
(S's\x06\x00\x00\x00Groups'
tRp4770
asbasbag57
(g4300
g59
NtRp4771
(dp4772
g62
(dp4773
sg71
g4757
sg64
(lp4774
g57
(g4145
g59
NtRp4775
(dp4776
g62
(dp4777
g4151
S'http://twitter.com/web2py'
p4778
ssg71
g4771
sg64
(lp4779
g4221
(S's\x07\x00\x00\x00Twitter'
tRp4780
asbasbag57
(g4300
g59
NtRp4781
(dp4782
g62
(dp4783
sg71
g4757
sg64
(lp4784
g57
(g4145
g59
NtRp4785
(dp4786
g62
(dp4787
g4151
S'http://webchat.freenode.net/?channels=web2py'
p4788
ssg71
g4781
sg64
(lp4789
g4221
(S's\t\x00\x00\x00Live Chat'
tRp4790
asbasbasbasbag57
(g4300
g59
NtRp4791
(dp4792
g62
(dp4793
g4149
g4304
ssg71
g4330
sg64
(lp4794
g57
(g4145
g59
NtRp4795
(dp4796
g62
(dp4797
g4753
g4754
sg4151
S'#'
ssg71
g4791
sg64
(lp4798
g4221
(S's\x07\x00\x00\x00Plugins'
tRp4799
asbag57
(g4305
g59
NtRp4800
(dp4801
g62
(dp4802
g4149
g4311
ssg71
g4791
sg64
(lp4803
g57
(g4300
g59
NtRp4804
(dp4805
g62
(dp4806
sg71
g4800
sg64
(lp4807
g57
(g4145
g59
NtRp4808
(dp4809
g62
(dp4810
g4151
S'http://web2py.com/examples/default/download'
p4811
ssg71
g4804
sg64
(lp4812
S'plugin_wiki'
p4813
asbasbag57
(g4300
g59
NtRp4814
(dp4815
g62
(dp4816
sg71
g4800
sg64
(lp4817
g57
(g4145
g59
NtRp4818
(dp4819
g62
(dp4820
g4151
g4539
ssg71
g4814
sg64
(lp4821
g4221
(S's\r\x00\x00\x00Other Plugins'
tRp4822
asbasbag57
(g4300
g59
NtRp4823
(dp4824
g62
(dp4825
sg71
g4800
sg64
(lp4826
g57
(g4145
g59
NtRp4827
(dp4828
g62
(dp4829
g4151
g4549
ssg71
g4823
sg64
(lp4830
g4221
(S's\x0e\x00\x00\x00Layout Plugins'
tRp4831
asbasbasbasbasbasbsg64
(lp4832
g4292
asbsg64
(lp4833
g4123
asbasbasbasbag57
(g73
g59
NtRp4834
(dp4835
g62
(dp4836
sg71
g4276
sg64
(lp4837
g57
(g78
g59
NtRp4838
(dp4839
g62
(dp4840
sg71
g4834
sg64
(lp4841
g57
(g58
g59
NtRp4842
(dp4843
g62
(dp4844
g70
I3
ssg71
g4838
sg64
(lp4845
g100
asbasbasbag57
(g73
g59
NtRp4846
(dp4847
g62
(dp4848
sg71
g4276
sg64
(lp4849
g57
(g78
g59
NtRp4850
(dp4851
g62
(dp4852
sg71
g4846
sg64
(lp4853
g57
(g58
g59
NtRp4854
(dp4855
g62
(dp4856
g70
I3
ssg71
g4850
sg64
(lp4857
g4299
asbasbasbag57
(g73
g59
NtRp4858
(dp4859
g62
(dp4860
sg71
g4276
sg64
(lp4861
g57
(g78
g59
NtRp4862
(dp4863
g62
(dp4864
sg71
g4858
sg64
(lp4865
g57
(g58
g59
NtRp4866
(dp4867
g62
(dp4868
g70
I3
ssg71
g4862
sg64
(lp4869
g57
(g66
g59
NtRp4870
(dp4871
g62
(dp4872
g70
I2
ssg71
Nsg64
(lp4873
g57
(g73
g59
NtRp4874
(dp4875
g62
(dp4876
sg71
g4870
sg64
(lp4877
g57
(g78
g59
NtRp4878
(dp4879
g62
(dp4880
sg71
g4874
sg64
(lp4881
g57
(g58
g59
NtRp4882
(dp4883
g62
(dp4884
g70
I2
ssg71
g4878
sg64
(lp4885
g57
(g66
g59
NtRp4886
(dp4887
g62
(dp4888
g70
I1
ssg71
Nsg64
(lp4889
g57
(g73
g59
NtRp4890
(dp4891
g62
(dp4892
sg71
g4886
sg64
(lp4893
g57
(g78
g59
NtRp4894
(dp4895
g62
(dp4896
sg71
g4890
sg64
(lp4897
g57
(g58
g59
NtRp4898
(dp4899
g62
(dp4900
g70
I1
ssg71
g4894
sg64
(lp4901
g4343
asbasbasbag57
(g73
g59
NtRp4902
(dp4903
g62
(dp4904
sg71
g4886
sg64
(lp4905
g57
(g78
g59
NtRp4906
(dp4907
g62
(dp4908
sg71
g4902
sg64
(lp4909
g57
(g58
g59
NtRp4910
(dp4911
g62
(dp4912
g70
I1
ssg71
g4906
sg64
(lp4913
I00
asbasbasbag57
(g73
g59
NtRp4914
(dp4915
g62
(dp4916
sg71
g4886
sg64
(lp4917
g57
(g78
g59
NtRp4918
(dp4919
g62
(dp4920
sg71
g4914
sg64
(lp4921
g57
(g58
g59
NtRp4922
(dp4923
g62
(dp4924
g70
I1
ssg71
g4918
sg64
(lp4925
g4341
asbasbasbasbasbasbasbag57
(g73
g59
NtRp4926
(dp4927
g62
(dp4928
sg71
g4870
sg64
(lp4929
g57
(g78
g59
NtRp4930
(dp4931
g62
(dp4932
sg71
g4926
sg64
(lp4933
g57
(g58
g59
NtRp4934
(dp4935
g62
(dp4936
g70
I2
ssg71
g4930
sg64
(lp4937
g57
(g66
g59
NtRp4938
(dp4939
g62
(dp4940
g70
I1
ssg71
Nsg64
(lp4941
g57
(g73
g59
NtRp4942
(dp4943
g62
(dp4944
sg71
g4938
sg64
(lp4945
g57
(g78
g59
NtRp4946
(dp4947
g62
(dp4948
sg71
g4942
sg64
(lp4949
g57
(g58
g59
NtRp4950
(dp4951
g62
(dp4952
g70
I1
ssg71
g4946
sg64
(lp4953
g4353
asbasbasbag57
(g73
g59
NtRp4954
(dp4955
g62
(dp4956
sg71
g4938
sg64
(lp4957
g57
(g78
g59
NtRp4958
(dp4959
g62
(dp4960
sg71
g4954
sg64
(lp4961
g57
(g58
g59
NtRp4962
(dp4963
g62
(dp4964
g70
I1
ssg71
g4958
sg64
(lp4965
I00
asbasbasbag57
(g73
g59
NtRp4966
(dp4967
g62
(dp4968
sg71
g4938
sg64
(lp4969
g57
(g78
g59
NtRp4970
(dp4971
g62
(dp4972
sg71
g4966
sg64
(lp4973
g57
(g58
g59
NtRp4974
(dp4975
g62
(dp4976
g70
I1
ssg71
g4970
sg64
(lp4977
g4351
asbasbasbag57
(g73
g59
NtRp4978
(dp4979
g62
(dp4980
sg71
g4938
sg64
(lp4981
g57
(g78
g59
NtRp4982
(dp4983
g62
(dp4984
sg71
g4978
sg64
(lp4985
g57
(g58
g59
NtRp4986
(dp4987
g62
(dp4988
g70
I1
ssg71
g4982
sg64
(lp4989
(lp4990
(g4367
I00
g4365
tp4991
a(g4377
I00
g4375
tp4992
a(g4387
I00
g4385
tp4993
a(g4397
I00
g4395
tp4994
a(g4407
I00
g4405
tp4995
a(g4417
I00
g4415
tp4996
a(g4427
I00
g4425
tp4997
a(g4437
I00
g4435
tp4998
a(g4447
I00
g4445
tp4999
aasbasbasbasbasbasbasbag57
(g73
g59
NtRp5000
(dp5001
g62
(dp5002
sg71
g4870
sg64
(lp5003
g57
(g78
g59
NtRp5004
(dp5005
g62
(dp5006
sg71
g5000
sg64
(lp5007
g57
(g58
g59
NtRp5008
(dp5009
g62
(dp5010
g70
I2
ssg71
g5004
sg64
(lp5011
g57
(g66
g59
NtRp5012
(dp5013
g62
(dp5014
g70
I1
ssg71
Nsg64
(lp5015
g57
(g73
g59
NtRp5016
(dp5017
g62
(dp5018
sg71
g5012
sg64
(lp5019
g57
(g78
g59
NtRp5020
(dp5021
g62
(dp5022
sg71
g5016
sg64
(lp5023
g57
(g58
g59
NtRp5024
(dp5025
g62
(dp5026
g70
I1
ssg71
g5020
sg64
(lp5027
g4457
asbasbasbag57
(g73
g59
NtRp5028
(dp5029
g62
(dp5030
sg71
g5012
sg64
(lp5031
g57
(g78
g59
NtRp5032
(dp5033
g62
(dp5034
sg71
g5028
sg64
(lp5035
g57
(g58
g59
NtRp5036
(dp5037
g62
(dp5038
g70
I1
ssg71
g5032
sg64
(lp5039
I00
asbasbasbag57
(g73
g59
NtRp5040
(dp5041
g62
(dp5042
sg71
g5012
sg64
(lp5043
g57
(g78
g59
NtRp5044
(dp5045
g62
(dp5046
sg71
g5040
sg64
(lp5047
g57
(g58
g59
NtRp5048
(dp5049
g62
(dp5050
g70
I1
ssg71
g5044
sg64
(lp5051
g4455
asbasbasbag57
(g73
g59
NtRp5052
(dp5053
g62
(dp5054
sg71
g5012
sg64
(lp5055
g57
(g78
g59
NtRp5056
(dp5057
g62
(dp5058
sg71
g5052
sg64
(lp5059
g57
(g58
g59
NtRp5060
(dp5061
g62
(dp5062
g70
I1
ssg71
g5056
sg64
(lp5063
(lp5064
(g4471
I00
g4469
tp5065
a(g4481
I00
g4479
tp5066
a(g4491
I00
g4489
tp5067
a(g4501
I00
g4499
tp5068
a(g4511
I00
g4509
tp5069
a(g4521
I00
g4519
tp5070
a(g4531
I00
g4529
tp5071
a(g4541
I00
g4539
tp5072
a(g4551
I00
g4549
tp5073
a(g4561
I00
g4559
tp5074
a(g4571
I00
g4569
tp5075
aasbasbasbasbasbasbasbag57
(g73
g59
NtRp5076
(dp5077
g62
(dp5078
sg71
g4870
sg64
(lp5079
g57
(g78
g59
NtRp5080
(dp5081
g62
(dp5082
sg71
g5076
sg64
(lp5083
g57
(g58
g59
NtRp5084
(dp5085
g62
(dp5086
g70
I2
ssg71
g5080
sg64
(lp5087
g57
(g66
g59
NtRp5088
(dp5089
g62
(dp5090
g70
I1
ssg71
Nsg64
(lp5091
g57
(g73
g59
NtRp5092
(dp5093
g62
(dp5094
sg71
g5088
sg64
(lp5095
g57
(g78
g59
NtRp5096
(dp5097
g62
(dp5098
sg71
g5092
sg64
(lp5099
g57
(g58
g59
NtRp5100
(dp5101
g62
(dp5102
g70
I1
ssg71
g5096
sg64
(lp5103
g4581
asbasbasbag57
(g73
g59
NtRp5104
(dp5105
g62
(dp5106
sg71
g5088
sg64
(lp5107
g57
(g78
g59
NtRp5108
(dp5109
g62
(dp5110
sg71
g5104
sg64
(lp5111
g57
(g58
g59
NtRp5112
(dp5113
g62
(dp5114
g70
I1
ssg71
g5108
sg64
(lp5115
I00
asbasbasbag57
(g73
g59
NtRp5116
(dp5117
g62
(dp5118
sg71
g5088
sg64
(lp5119
g57
(g78
g59
NtRp5120
(dp5121
g62
(dp5122
sg71
g5116
sg64
(lp5123
g57
(g58
g59
NtRp5124
(dp5125
g62
(dp5126
g70
I1
ssg71
g5120
sg64
(lp5127
g4579
asbasbasbag57
(g73
g59
NtRp5128
(dp5129
g62
(dp5130
sg71
g5088
sg64
(lp5131
g57
(g78
g59
NtRp5132
(dp5133
g62
(dp5134
sg71
g5128
sg64
(lp5135
g57
(g58
g59
NtRp5136
(dp5137
g62
(dp5138
g70
I1
ssg71
g5132
sg64
(lp5139
(lp5140
(g4595
I00
g4593
tp5141
a(g4605
I00
g4603
tp5142
a(g4615
I00
g4613
tp5143
a(g4625
I00
g4623
tp5144
a(g4635
I00
g4633
tp5145
a(g4645
I00
g4643
tp5146
a(g4655
I00
g4653
tp5147
a(g4665
I00
g4663
tp5148
a(g4675
I00
g4673
tp5149
a(g4685
I00
g4683
tp5150
a(g4695
I00
g4693
tp5151
a(g4705
I00
g4703
tp5152
a(g4715
I00
g4713
tp5153
a(g4725
I00
g4723
tp5154
a(g4735
I00
g4733
tp5155
a(g4745
I00
g4743
tp5156
aasbasbasbasbasbasbasbag57
(g73
g59
NtRp5157
(dp5158
g62
(dp5159
sg71
g4870
sg64
(lp5160
g57
(g78
g59
NtRp5161
(dp5162
g62
(dp5163
sg71
g5157
sg64
(lp5164
g57
(g58
g59
NtRp5165
(dp5166
g62
(dp5167
g70
I2
ssg71
g5161
sg64
(lp5168
g57
(g66
g59
NtRp5169
(dp5170
g62
(dp5171
g70
I1
ssg71
Nsg64
(lp5172
g57
(g73
g59
NtRp5173
(dp5174
g62
(dp5175
sg71
g5169
sg64
(lp5176
g57
(g78
g59
NtRp5177
(dp5178
g62
(dp5179
sg71
g5173
sg64
(lp5180
g57
(g58
g59
NtRp5181
(dp5182
g62
(dp5183
g70
I1
ssg71
g5177
sg64
(lp5184
g4756
asbasbasbag57
(g73
g59
NtRp5185
(dp5186
g62
(dp5187
sg71
g5169
sg64
(lp5188
g57
(g78
g59
NtRp5189
(dp5190
g62
(dp5191
sg71
g5185
sg64
(lp5192
g57
(g58
g59
NtRp5193
(dp5194
g62
(dp5195
g70
I1
ssg71
g5189
sg64
(lp5196
I00
asbasbasbag57
(g73
g59
NtRp5197
(dp5198
g62
(dp5199
sg71
g5169
sg64
(lp5200
g57
(g78
g59
NtRp5201
(dp5202
g62
(dp5203
sg71
g5197
sg64
(lp5204
g57
(g58
g59
NtRp5205
(dp5206
g62
(dp5207
g70
I1
ssg71
g5201
sg64
(lp5208
Nasbasbasbag57
(g73
g59
NtRp5209
(dp5210
g62
(dp5211
sg71
g5169
sg64
(lp5212
g57
(g78
g59
NtRp5213
(dp5214
g62
(dp5215
sg71
g5209
sg64
(lp5216
g57
(g58
g59
NtRp5217
(dp5218
g62
(dp5219
g70
I1
ssg71
g5213
sg64
(lp5220
(lp5221
(g4770
I00
g4768
tp5222
a(g4780
I00
g4778
tp5223
a(g4790
I00
g4788
tp5224
aasbasbasbasbasbasbasbag57
(g73
g59
NtRp5225
(dp5226
g62
(dp5227
sg71
g4870
sg64
(lp5228
g57
(g78
g59
NtRp5229
(dp5230
g62
(dp5231
sg71
g5225
sg64
(lp5232
g57
(g58
g59
NtRp5233
(dp5234
g62
(dp5235
g70
I2
ssg71
g5229
sg64
(lp5236
g57
(g66
g59
NtRp5237
(dp5238
g62
(dp5239
g70
I1
ssg71
Nsg64
(lp5240
g57
(g73
g59
NtRp5241
(dp5242
g62
(dp5243
sg71
g5237
sg64
(lp5244
g57
(g78
g59
NtRp5245
(dp5246
g62
(dp5247
sg71
g5241
sg64
(lp5248
g57
(g58
g59
NtRp5249
(dp5250
g62
(dp5251
g70
I1
ssg71
g5245
sg64
(lp5252
g4799
asbasbasbag57
(g73
g59
NtRp5253
(dp5254
g62
(dp5255
sg71
g5237
sg64
(lp5256
g57
(g78
g59
NtRp5257
(dp5258
g62
(dp5259
sg71
g5253
sg64
(lp5260
g57
(g58
g59
NtRp5261
(dp5262
g62
(dp5263
g70
I1
ssg71
g5257
sg64
(lp5264
I00
asbasbasbag57
(g73
g59
NtRp5265
(dp5266
g62
(dp5267
sg71
g5237
sg64
(lp5268
g57
(g78
g59
NtRp5269
(dp5270
g62
(dp5271
sg71
g5265
sg64
(lp5272
g57
(g58
g59
NtRp5273
(dp5274
g62
(dp5275
g70
I1
ssg71
g5269
sg64
(lp5276
Nasbasbasbag57
(g73
g59
NtRp5277
(dp5278
g62
(dp5279
sg71
g5237
sg64
(lp5280
g57
(g78
g59
NtRp5281
(dp5282
g62
(dp5283
sg71
g5277
sg64
(lp5284
g57
(g58
g59
NtRp5285
(dp5286
g62
(dp5287
g70
I1
ssg71
g5281
sg64
(lp5288
(lp5289
(g4813
I00
g4811
tp5290
a(g4822
I00
g4539
tp5291
a(g4831
I00
g4549
tp5292
aasbasbasbasbasbasbasbasbasbasbasbasbasbasbasbasbasbasbasbag57
(g73
g59
NtRp5293
(dp5294
g62
(dp5295
sg71
g3583
sg64
(lp5296
g57
(g78
g59
NtRp5297
(dp5298
g62
(dp5299
g82
g83
ssg71
g5293
sg64
(lp5300
S'meta'
p5301
asbag57
(g78
g59
NtRp5302
(dp5303
g62
(dp5304
g89
g90
ssg71
g5293
sg64
(lp5305
S':'
asbag57
(g78
g59
NtRp5306
(dp5307
g62
(dp5308
sg71
g5293
sg64
(lp5309
g57
(g58
g59
NtRp5310
(dp5311
g62
(dp5312
g70
I5
ssg71
g5306
sg64
(lp5313
g57
(g66
g59
NtRp5314
(dp5315
g62
(dp5316
g70
I4
ssg71
Nsg64
(lp5317
g57
(g73
g59
NtRp5318
(dp5319
g62
(dp5320
sg71
g5314
sg64
(lp5321
g57
(g78
g59
NtRp5322
(dp5323
g62
(dp5324
g82
g83
ssg71
g5318
sg64
(lp5325
S'author'
p5326
asbag57
(g78
g59
NtRp5327
(dp5328
g62
(dp5329
g89
g90
ssg71
g5318
sg64
(lp5330
S':'
asbag57
(g78
g59
NtRp5331
(dp5332
g62
(dp5333
sg71
g5318
sg64
(lp5334
g57
(g58
g59
NtRp5335
(dp5336
g62
(dp5337
g70
I4
ssg71
g5331
sg64
(lp5338
S'Your Name <you@example.com>'
p5339
asbasbasbag57
(g73
g59
NtRp5340
(dp5341
g62
(dp5342
sg71
g5314
sg64
(lp5343
g57
(g78
g59
NtRp5344
(dp5345
g62
(dp5346
g82
g83
ssg71
g5340
sg64
(lp5347
S'description'
p5348
asbag57
(g78
g59
NtRp5349
(dp5350
g62
(dp5351
g89
g90
ssg71
g5340
sg64
(lp5352
S':'
asbag57
(g78
g59
NtRp5353
(dp5354
g62
(dp5355
sg71
g5340
sg64
(lp5356
g57
(g58
g59
NtRp5357
(dp5358
g62
(dp5359
g70
I4
ssg71
g5353
sg64
(lp5360
S'a cool new app'
p5361
asbasbasbag57
(g73
g59
NtRp5362
(dp5363
g62
(dp5364
sg71
g5314
sg64
(lp5365
g57
(g78
g59
NtRp5366
(dp5367
g62
(dp5368
g82
g83
ssg71
g5362
sg64
(lp5369
S'generator'
p5370
asbag57
(g78
g59
NtRp5371
(dp5372
g62
(dp5373
g89
g90
ssg71
g5362
sg64
(lp5374
S':'
asbag57
(g78
g59
NtRp5375
(dp5376
g62
(dp5377
sg71
g5362
sg64
(lp5378
g57
(g58
g59
NtRp5379
(dp5380
g62
(dp5381
g70
I4
ssg71
g5375
sg64
(lp5382
S'Web2py Web Framework'
p5383
asbasbasbag57
(g73
g59
NtRp5384
(dp5385
g62
(dp5386
sg71
g5314
sg64
(lp5387
g57
(g78
g59
NtRp5388
(dp5389
g62
(dp5390
g82
g83
ssg71
g5384
sg64
(lp5391
S'keywords'
p5392
asbag57
(g78
g59
NtRp5393
(dp5394
g62
(dp5395
g89
g90
ssg71
g5384
sg64
(lp5396
S':'
asbag57
(g78
g59
NtRp5397
(dp5398
g62
(dp5399
sg71
g5384
sg64
(lp5400
g57
(g58
g59
NtRp5401
(dp5402
g62
(dp5403
g70
I4
ssg71
g5397
sg64
(lp5404
S'web2py, python, framework'
p5405
asbasbasbasbasbasbasbag57
(g73
g59
NtRp5406
(dp5407
g62
(dp5408
sg71
g3583
sg64
(lp5409
g57
(g78
g59
NtRp5410
(dp5411
g62
(dp5412
g82
g83
ssg71
g5406
sg64
(lp5413
S'models_to_run'
p5414
asbag57
(g78
g59
NtRp5415
(dp5416
g62
(dp5417
g89
g90
ssg71
g5406
sg64
(lp5418
S':'
asbag57
(g78
g59
NtRp5419
(dp5420
g62
(dp5421
sg71
g5406
sg64
(lp5422
g57
(g58
g59
NtRp5423
(dp5424
g62
(dp5425
g70
I5
ssg71
g5419
sg64
(lp5426
g57
(g66
g59
NtRp5427
(dp5428
g62
(dp5429
g70
I4
ssg71
Nsg64
(lp5430
g57
(g73
g59
NtRp5431
(dp5432
g62
(dp5433
sg71
g5427
sg64
(lp5434
g57
(g78
g59
NtRp5435
(dp5436
g62
(dp5437
sg71
g5431
sg64
(lp5438
g57
(g58
g59
NtRp5439
(dp5440
g62
(dp5441
g70
I4
ssg71
g5435
sg64
(lp5442
S'^\\w+\\.py$'
p5443
asbasbasbag57
(g73
g59
NtRp5444
(dp5445
g62
(dp5446
sg71
g5427
sg64
(lp5447
g57
(g78
g59
NtRp5448
(dp5449
g62
(dp5450
sg71
g5444
sg64
(lp5451
g57
(g58
g59
NtRp5452
(dp5453
g62
(dp5454
g70
I4
ssg71
g5448
sg64
(lp5455
S'^default/\\w+\\.py$'
p5456
asbasbasbag57
(g73
g59
NtRp5457
(dp5458
g62
(dp5459
sg71
g5427
sg64
(lp5460
g57
(g78
g59
NtRp5461
(dp5462
g62
(dp5463
sg71
g5457
sg64
(lp5464
g57
(g58
g59
NtRp5465
(dp5466
g62
(dp5467
g70
I4
ssg71
g5461
sg64
(lp5468
S'^default/view_posts/\\w+\\.py$'
p5469
asbasbasbasbasbasbasbag57
(g73
g59
NtRp5470
(dp5471
g62
(dp5472
sg71
g3583
sg64
(lp5473
g57
(g78
g59
NtRp5474
(dp5475
g62
(dp5476
g82
g83
ssg71
g5470
sg64
(lp5477
S'postprocessing'
p5478
asbag57
(g78
g59
NtRp5479
(dp5480
g62
(dp5481
g89
g90
ssg71
g5470
sg64
(lp5482
S':'
asbag57
(g78
g59
NtRp5483
(dp5484
g62
(dp5485
sg71
g5470
sg64
(lp5486
g57
(g58
g59
NtRp5487
(dp5488
g62
(dp5489
g70
I5
ssg71
g5483
sg64
(lp5490
g57
(g66
g59
NtRp5491
(dp5492
g62
(dp5493
g70
I4
ssg71
Nsg64
(lp5494
sbasbasbasbag57
(g73
g59
NtRp5495
(dp5496
g62
(dp5497
sg71
g3583
sg64
(lp5498
g57
(g78
g59
NtRp5499
(dp5500
g62
(dp5501
g82
g83
ssg71
g5495
sg64
(lp5502
S'session_cookie_expires'
p5503
asbag57
(g78
g59
NtRp5504
(dp5505
g62
(dp5506
g89
g90
ssg71
g5495
sg64
(lp5507
S':'
asbag57
(g78
g59
NtRp5508
(dp5509
g62
(dp5510
sg71
g5495
sg64
(lp5511
g57
(g58
g59
NtRp5512
(dp5513
g62
(dp5514
g70
I5
ssg71
g5508
sg64
(lp5515
S'None'
p5516
asbasbasbag57
(g73
g59
NtRp5517
(dp5518
g62
(dp5519
sg71
g3583
sg64
(lp5520
g57
(g78
g59
NtRp5521
(dp5522
g62
(dp5523
g82
g83
ssg71
g5517
sg64
(lp5524
S'session_data_name'
p5525
asbag57
(g78
g59
NtRp5526
(dp5527
g62
(dp5528
g89
g90
ssg71
g5517
sg64
(lp5529
S':'
asbag57
(g78
g59
NtRp5530
(dp5531
g62
(dp5532
sg71
g5517
sg64
(lp5533
g57
(g58
g59
NtRp5534
(dp5535
g62
(dp5536
g70
I5
ssg71
g5530
sg64
(lp5537
S'session_data_ssad'
p5538
asbasbasbag57
(g73
g59
NtRp5539
(dp5540
g62
(dp5541
sg71
g3583
sg64
(lp5542
g57
(g78
g59
NtRp5543
(dp5544
g62
(dp5545
g82
g83
ssg71
g5539
sg64
(lp5546
S'session_file'
p5547
asbag57
(g78
g59
NtRp5548
(dp5549
g62
(dp5550
g89
g90
ssg71
g5539
sg64
(lp5551
S':'
asbag57
(g78
g59
NtRp5552
(dp5553
g62
(dp5554
sg71
g5539
sg64
(lp5555
g57
(g58
g59
NtRp5556
(dp5557
g62
(dp5558
g70
I5
ssg71
g5552
sg64
(lp5559
S"<open file '/home/urvashi/Desktop/WEB2PY/web2py/applications/SSAD/sessions/127.0.0.1-c40cec1e-8b15-4215-984e-9a6af6cf9238', mode 'rb+' at 0x7fd1f83c0ed0>"
p5560
asbasbasbag57
(g73
g59
NtRp5561
(dp5562
g62
(dp5563
sg71
g3583
sg64
(lp5564
g57
(g78
g59
NtRp5565
(dp5566
g62
(dp5567
g82
g83
ssg71
g5561
sg64
(lp5568
S'session_filename'
p5569
asbag57
(g78
g59
NtRp5570
(dp5571
g62
(dp5572
g89
g90
ssg71
g5561
sg64
(lp5573
S':'
asbag57
(g78
g59
NtRp5574
(dp5575
g62
(dp5576
sg71
g5561
sg64
(lp5577
g57
(g58
g59
NtRp5578
(dp5579
g62
(dp5580
g70
I5
ssg71
g5574
sg64
(lp5581
S'/home/urvashi/Desktop/WEB2PY/web2py/applications/SSAD/sessions/127.0.0.1-c40cec1e-8b15-4215-984e-9a6af6cf9238'
p5582
asbasbasbag57
(g73
g59
NtRp5583
(dp5584
g62
(dp5585
sg71
g3583
sg64
(lp5586
g57
(g78
g59
NtRp5587
(dp5588
g62
(dp5589
g82
g83
ssg71
g5583
sg64
(lp5590
S'session_id'
p5591
asbag57
(g78
g59
NtRp5592
(dp5593
g62
(dp5594
g89
g90
ssg71
g5583
sg64
(lp5595
S':'
asbag57
(g78
g59
NtRp5596
(dp5597
g62
(dp5598
sg71
g5583
sg64
(lp5599
g57
(g58
g59
NtRp5600
(dp5601
g62
(dp5602
g70
I5
ssg71
g5596
sg64
(lp5603
g475
asbasbasbag57
(g73
g59
NtRp5604
(dp5605
g62
(dp5606
sg71
g3583
sg64
(lp5607
g57
(g78
g59
NtRp5608
(dp5609
g62
(dp5610
g82
g83
ssg71
g5604
sg64
(lp5611
S'session_id_name'
p5612
asbag57
(g78
g59
NtRp5613
(dp5614
g62
(dp5615
g89
g90
ssg71
g5604
sg64
(lp5616
S':'
asbag57
(g78
g59
NtRp5617
(dp5618
g62
(dp5619
sg71
g5604
sg64
(lp5620
g57
(g58
g59
NtRp5621
(dp5622
g62
(dp5623
g70
I5
ssg71
g5617
sg64
(lp5624
g3640
asbasbasbag57
(g73
g59
NtRp5625
(dp5626
g62
(dp5627
sg71
g3583
sg64
(lp5628
g57
(g78
g59
NtRp5629
(dp5630
g62
(dp5631
g82
g83
ssg71
g5625
sg64
(lp5632
S'session_locked'
p5633
asbag57
(g78
g59
NtRp5634
(dp5635
g62
(dp5636
g89
g90
ssg71
g5625
sg64
(lp5637
S':'
asbag57
(g78
g59
NtRp5638
(dp5639
g62
(dp5640
sg71
g5625
sg64
(lp5641
g57
(g58
g59
NtRp5642
(dp5643
g62
(dp5644
g70
I5
ssg71
g5638
sg64
(lp5645
g1747
asbasbasbag57
(g73
g59
NtRp5646
(dp5647
g62
(dp5648
sg71
g3583
sg64
(lp5649
g57
(g78
g59
NtRp5650
(dp5651
g62
(dp5652
g82
g83
ssg71
g5646
sg64
(lp5653
S'session_new'
p5654
asbag57
(g78
g59
NtRp5655
(dp5656
g62
(dp5657
g89
g90
ssg71
g5646
sg64
(lp5658
S':'
asbag57
(g78
g59
NtRp5659
(dp5660
g62
(dp5661
sg71
g5646
sg64
(lp5662
g57
(g58
g59
NtRp5663
(dp5664
g62
(dp5665
g70
I5
ssg71
g5659
sg64
(lp5666
g100
asbasbasbag57
(g73
g59
NtRp5667
(dp5668
g62
(dp5669
sg71
g3583
sg64
(lp5670
g57
(g78
g59
NtRp5671
(dp5672
g62
(dp5673
g82
g83
ssg71
g5667
sg64
(lp5674
S'session_storage_type'
p5675
asbag57
(g78
g59
NtRp5676
(dp5677
g62
(dp5678
g89
g90
ssg71
g5667
sg64
(lp5679
S':'
asbag57
(g78
g59
NtRp5680
(dp5681
g62
(dp5682
sg71
g5667
sg64
(lp5683
g57
(g58
g59
NtRp5684
(dp5685
g62
(dp5686
g70
I5
ssg71
g5680
sg64
(lp5687
g3157
asbasbasbag57
(g73
g59
NtRp5688
(dp5689
g62
(dp5690
sg71
g3583
sg64
(lp5691
g57
(g78
g59
NtRp5692
(dp5693
g62
(dp5694
g82
g83
ssg71
g5688
sg64
(lp5695
S'status'
p5696
asbag57
(g78
g59
NtRp5697
(dp5698
g62
(dp5699
g89
g90
ssg71
g5688
sg64
(lp5700
S':'
asbag57
(g78
g59
NtRp5701
(dp5702
g62
(dp5703
sg71
g5688
sg64
(lp5704
g57
(g58
g59
NtRp5705
(dp5706
g62
(dp5707
g70
I5
ssg71
g5701
sg64
(lp5708
S'200'
p5709
asbasbasbag57
(g73
g59
NtRp5710
(dp5711
g62
(dp5712
sg71
g3583
sg64
(lp5713
g57
(g78
g59
NtRp5714
(dp5715
g62
(dp5716
g82
g83
ssg71
g5710
sg64
(lp5717
S'subtitle'
p5718
asbag57
(g78
g59
NtRp5719
(dp5720
g62
(dp5721
g89
g90
ssg71
g5710
sg64
(lp5722
S':'
asbag57
(g78
g59
NtRp5723
(dp5724
g62
(dp5725
sg71
g5710
sg64
(lp5726
g57
(g58
g59
NtRp5727
(dp5728
g62
(dp5729
g70
I5
ssg71
g5723
sg64
(lp5730
g4221
(S's\r\x00\x00\x00customize me!'
tRp5731
asbasbasbag57
(g73
g59
NtRp5732
(dp5733
g62
(dp5734
sg71
g3583
sg64
(lp5735
g57
(g78
g59
NtRp5736
(dp5737
g62
(dp5738
g82
g83
ssg71
g5732
sg64
(lp5739
S'title'
p5740
asbag57
(g78
g59
NtRp5741
(dp5742
g62
(dp5743
g89
g90
ssg71
g5732
sg64
(lp5744
S':'
asbag57
(g78
g59
NtRp5745
(dp5746
g62
(dp5747
sg71
g5732
sg64
(lp5748
g57
(g58
g59
NtRp5749
(dp5750
g62
(dp5751
g70
I5
ssg71
g5745
sg64
(lp5752
S'Ssad'
p5753
asbasbasbag57
(g73
g59
NtRp5754
(dp5755
g62
(dp5756
sg71
g3583
sg64
(lp5757
g57
(g78
g59
NtRp5758
(dp5759
g62
(dp5760
g82
g83
ssg71
g5754
sg64
(lp5761
S'view'
p5762
asbag57
(g78
g59
NtRp5763
(dp5764
g62
(dp5765
g89
g90
ssg71
g5754
sg64
(lp5766
S':'
asbag57
(g78
g59
NtRp5767
(dp5768
g62
(dp5769
sg71
g5754
sg64
(lp5770
g57
(g58
g59
NtRp5771
(dp5772
g62
(dp5773
g70
I5
ssg71
g5767
sg64
(lp5774
S'default/view_posts.html'
p5775
asbasbasbasbasbsS'locals'
p5776
(dp5777
S'Service'
p5778
S"<class 'gluon.tools.Service'>"
p5779
sS'OBJECT'
p5780
S"<class 'gluon.html.OBJECT'>"
p5781
sS'SQLDB'
p5782
S"<class 'gluon.dal.DAL'>"
p5783
sg3210
S"<Storage {'_formkey[login]': '7fd7aa75-1e90-4b24...: '', 'id': 3}>, 'user_groups': {1: 'user_3'}}>}>"
p5784
sS'LINK'
p5785
S"<class 'gluon.html.LINK'>"
p5786
sS'BR'
p5787
S"<class 'gluon.html.BR'>"
p5788
sS'local_import'
p5789
S'<function <lambda>>'
p5790
sS'OPTGROUP'
p5791
S"<class 'gluon.html.OPTGROUP'>"
p5792
sS'__package__'
p5793
S'None'
p5794
sS'PRE'
p5795
S"<class 'gluon.html.PRE'>"
p5796
sS'IS_INT_IN_RANGE'
p5797
S"<class 'gluon.validators.IS_INT_IN_RANGE'>"
p5798
sS'left_sidebar_enabled'
p5799
g100
sS'IS_LOWER'
p5800
S"<class 'gluon.validators.IS_LOWER'>"
p5801
sS'IS_STRONG'
p5802
S"<class 'gluon.validators.IS_STRONG'>"
p5803
sS'cache'
p5804
S'<gluon.cache.Cache object>'
p5805
sS'IS_IN_DB'
p5806
S"<class 'gluon.validators.IS_IN_DB'>"
p5807
sS'TAG'
p5808
S'<gluon.html.__TAG__ object>'
p5809
sS'SQLField'
p5810
S"<class 'gluon.dal.Field'>"
p5811
sS'mail'
p5812
S'<gluon.tools.Mail object>'
p5813
sS'BODY'
p5814
S"<class 'gluon.html.BODY'>"
p5815
sS'IS_DATE_IN_RANGE'
p5816
S"<class 'gluon.validators.IS_DATE_IN_RANGE'>"
p5817
sS'IFRAME'
p5818
S"<class 'gluon.html.IFRAME'>"
p5819
sS'URL'
p5820
S'<function URL>'
p5821
sS'__file__'
p5822
S"'/home/urvashi/Desktop/WEB2PY/web2py/applications/SSAD/views/default/view_posts.html'"
p5823
sS'db'
p5824
S'<DAL uri="sqlite://storage.sqlite">'
p5825
sS'auth'
p5826
S'<gluon.tools.Auth object>'
p5827
sS'P'
S"<class 'gluon.html.P'>"
p5828
sS'TFOOT'
p5829
S"<class 'gluon.html.TFOOT'>"
p5830
sS'XHTML'
p5831
S"<class 'gluon.html.XHTML'>"
p5832
sS'ON'
p5833
g1747
sS'OL'
p5834
S"<class 'gluon.html.OL'>"
p5835
sS'TEXTAREA'
p5836
S"<class 'gluon.html.TEXTAREA'>"
p5837
sS'MENU'
p5838
S"<class 'gluon.html.MENU'>"
p5839
sS'IS_IMAGE'
p5840
S"<class 'gluon.validators.IS_IMAGE'>"
p5841
sS'EM'
p5842
S"<class 'gluon.html.EM'>"
p5843
sS'CODE'
p5844
S"<class 'gluon.html.CODE'>"
p5845
sS'HTTP'
p5846
S"<class 'gluon.http.HTTP'>"
p5847
sS'HR'
p5848
S"<class 'gluon.html.HR'>"
p5849
sS'IS_DATETIME'
p5850
S"<class 'gluon.validators.IS_DATETIME'>"
p5851
sS'STYLE'
p5852
S"<class 'gluon.html.STYLE'>"
p5853
sS'LABEL'
p5854
S"<class 'gluon.html.LABEL'>"
p5855
sS'CLEANUP'
p5856
S"<class 'gluon.validators.CLEANUP'>"
p5857
sS'plugins'
p5858
S'<gluon.tools.PluginManager object>'
p5859
sS'SELECT'
p5860
S"<class 'gluon.html.SELECT'>"
p5861
sS'use_janrain'
p5862
S'<function use_janrain>'
p5863
sS'CENTER'
p5864
S"<class 'gluon.html.CENTER'>"
p5865
sS'prettydate'
p5866
S'<function prettydate>'
p5867
sS'Crud'
p5868
S"<class 'gluon.tools.Crud'>"
p5869
sS'Auth'
p5870
S"<class 'gluon.tools.Auth'>"
p5871
sS'DEVELOPMENT_MENU'
p5872
g1747
sS'__builtins__'
p5873
S"{'ArithmeticError': <type 'exceptions.ArithmeticError'>, 'AssertionError': <type 'exceptions.AssertionError'>, 'AttributeError': <type 'exceptions.AttributeError'>, 'BaseException': <type 'exceptions.BaseException'>, 'BufferError': <type 'exceptions.BufferError'>, 'BytesWarning': <type 'exceptions.BytesWarning'>, 'DeprecationWarning': <type 'exceptions.DeprecationWarning'>, 'EOFError': <type 'exceptions.EOFError'>, 'Ellipsis': Ellipsis, 'EnvironmentError': <type 'exceptions.EnvironmentError'>, ...}"
p5874
sS'HTML'
p5875
S"<class 'gluon.html.HTML'>"
p5876
sS'SQLFORM'
p5877
S"<class 'gluon.sqlhtml.SQLFORM'>"
p5878
sS'LOAD'
p5879
S'<function LOAD>'
p5880
sS'redirect'
p5881
S'<function redirect>'
p5882
sS'FIELDSET'
p5883
S"<class 'gluon.html.FIELDSET'>"
p5884
sS'IS_EQUAL_TO'
p5885
S"<class 'gluon.validators.IS_EQUAL_TO'>"
p5886
sS'embed64'
p5887
S'<function embed64>'
p5888
sS'IS_LIST_OF'
p5889
S"<class 'gluon.validators.IS_LIST_OF'>"
p5890
sS'INPUT'
p5891
S"<class 'gluon.html.INPUT'>"
p5892
sS'EMBED'
p5893
S"<class 'gluon.html.EMBED'>"
p5894
sS'_'
S'<function _>'
p5895
sS'H2'
p5896
S"<class 'gluon.html.H2'>"
p5897
sS'H3'
p5898
S"<class 'gluon.html.H3'>"
p5899
sS'BUTTON'
p5900
S"<class 'gluon.html.BUTTON'>"
p5901
sS'H1'
p5902
S"<class 'gluon.html.H1'>"
p5903
sS'H6'
p5904
S"<class 'gluon.html.H6'>"
p5905
sS'ids'
p5906
S'<Rows (2)>'
p5907
sS'H4'
p5908
S"<class 'gluon.html.H4'>"
p5909
sS'H5'
p5910
S"<class 'gluon.html.H5'>"
p5911
sS'UL'
p5912
S"<class 'gluon.html.UL'>"
p5913
sS'IS_UPPER'
p5914
S"<class 'gluon.validators.IS_UPPER'>"
p5915
sS'xmlescape'
p5916
S'<function xmlescape>'
p5917
sS'IS_TIME'
p5918
S"<class 'gluon.validators.IS_TIME'>"
p5919
sS'com'
p5920
S'<Rows (5)>'
p5921
sS'OPTION'
p5922
S"<class 'gluon.html.OPTION'>"
p5923
sS'TITLE'
p5924
S"<class 'gluon.html.TITLE'>"
p5925
sS'CRYPT'
p5926
S"<class 'gluon.validators.CRYPT'>"
p5927
sS'IS_EMPTY_OR'
p5928
S"<class 'gluon.validators.IS_EMPTY_OR'>"
p5929
sS'MARKMIN'
p5930
S"<class 'gluon.html.MARKMIN'>"
p5931
sS'__name__'
p5932
S"'__restricted__'"
p5933
sS'STRONG'
p5934
S"<class 'gluon.html.STRONG'>"
p5935
sS'COL'
p5936
S"<class 'gluon.html.COL'>"
p5937
sS'service'
p5938
S'<gluon.tools.Service object>'
p5939
sS'SCRIPT'
p5940
S"<class 'gluon.html.SCRIPT'>"
p5941
sS'is_mobile'
p5942
g100
sS'TABLE'
p5943
S"<class 'gluon.html.TABLE'>"
p5944
sS'IS_IPV4'
p5945
S"<class 'gluon.validators.IS_IPV4'>"
p5946
sS'IS_LENGTH'
p5947
S"<class 'gluon.validators.IS_LENGTH'>"
p5948
sS'XML'
p5949
S"<class 'gluon.html.XML'>"
p5950
sS'B'
S"<class 'gluon.html.B'>"
p5951
sS'IMG'
p5952
S"<class 'gluon.html.IMG'>"
p5953
sS'SQLTABLE'
p5954
S"<class 'gluon.sqlhtml.SQLTABLE'>"
p5955
sS'IS_MATCH'
p5956
S"<class 'gluon.validators.IS_MATCH'>"
p5957
sS'IS_ALPHANUMERIC'
p5958
S"<class 'gluon.validators.IS_ALPHANUMERIC'>"
p5959
sS'lists'
p5960
S'<Rows (2)>'
p5961
sS'CAT'
p5962
S"<class 'gluon.html.CAT'>"
p5963
sS'SPAN'
p5964
S"<class 'gluon.html.SPAN'>"
p5965
sS'IS_SLUG'
p5966
S"<class 'gluon.validators.IS_SLUG'>"
p5967
sS'BEAUTIFY'
p5968
S"<class 'gluon.html.BEAUTIFY'>"
p5969
sS'META'
p5970
S"<class 'gluon.html.META'>"
p5971
sS'IS_DATE'
p5972
S"<class 'gluon.validators.IS_DATE'>"
p5973
sS'IS_EMAIL'
p5974
S"<class 'gluon.validators.IS_EMAIL'>"
p5975
sS'IS_NOT_EMPTY'
p5976
S"<class 'gluon.validators.IS_NOT_EMPTY'>"
p5977
sS'vi'
p5978
S"'None'"
p5979
sS'TBODY'
p5980
S"<class 'gluon.html.TBODY'>"
p5981
sS'vo'
p5982
S"['None']"
p5983
sS'Field'
p5984
S"<class 'gluon.dal.Field'>"
p5985
sS'middle_columns'
p5986
S"'span12'"
p5987
sS'DIV'
p5988
S"<class 'gluon.html.DIV'>"
p5989
sS'LEGEND'
p5990
S"<class 'gluon.html.LEGEND'>"
p5991
sS'IS_FLOAT_IN_RANGE'
p5992
S"<class 'gluon.validators.IS_FLOAT_IN_RANGE'>"
p5993
sS'COLGROUP'
p5994
S"<class 'gluon.html.COLGROUP'>"
p5995
sS'DAL'
p5996
S"<class 'gluon.dal.DAL'>"
p5997
sS'TT'
p5998
S"<class 'gluon.html.TT'>"
p5999
sS'TR'
p6000
S"<class 'gluon.html.TR'>"
p6001
sS'LI'
p6002
S"<class 'gluon.html.LI'>"
p6003
sS'right_sidebar_enabled'
p6004
g100
sS'TH'
p6005
S"<class 'gluon.html.TH'>"
p6006
sS'TD'
p6007
S"<class 'gluon.html.TD'>"
p6008
sS'PluginManager'
p6009
S"<class 'gluon.tools.PluginManager'>"
p6010
sS'IS_URL'
p6011
S"<class 'gluon.validators.IS_URL'>"
p6012
sS'A'
S"<class 'gluon.html.A'>"
p6013
sS'HEAD'
p6014
S"<class 'gluon.html.HEAD'>"
p6015
sS'IS_DATETIME_IN_RANGE'
p6016
S"<class 'gluon.validators.IS_DATETIME_IN_RANGE'>"
p6017
sS'FORM'
p6018
S"<class 'gluon.html.FORM'>"
p6019
sS'I'
S"<class 'gluon.html.I'>"
p6020
sS'crud'
p6021
S'<gluon.tools.Crud object>'
p6022
sS'IS_NOT_IN_DB'
p6023
S"<class 'gluon.validators.IS_NOT_IN_DB'>"
p6024
sg3578
S"<Storage {'body': <cStringIO.StringO object at 0...fd1f85695f0>, 'view': 'default/view_posts.html'}>"
p6025
sS'THEAD'
p6026
S"<class 'gluon.html.THEAD'>"
p6027
sS'IS_NULL_OR'
p6028
S"<class 'gluon.validators.IS_EMPTY_OR'>"
p6029
sS'i'
S'0'
sg56
S"<Storage {'function': 'view_posts', 'body': <cSt.../applications/SSAD/', 'post_vars': <Storage {}>}>"
p6030
sS'IS_EXPR'
p6031
S"<class 'gluon.validators.IS_EXPR'>"
p6032
sS'T'
S'<gluon.languages.translator object>'
p6033
sS'IS_IN_SET'
p6034
S"<class 'gluon.validators.IS_IN_SET'>"
p6035
sS'IS_UPLOAD_FILENAME'
p6036
S"<class 'gluon.validators.IS_UPLOAD_FILENAME'>"
p6037
sS'IS_DECIMAL_IN_RANGE'
p6038
S"<class 'gluon.validators.IS_DECIMAL_IN_RANGE'>"
p6039
sssS'traceback'
p6040
S'Traceback (most recent call last):\n  File "/home/urvashi/Desktop/WEB2PY/web2py/gluon/restricted.py", line 212, in restricted\n    exec ccode in environment\n  File "/home/urvashi/Desktop/WEB2PY/web2py/applications/SSAD/views/default/view_posts.html", line 93, in <module>\nIndexError: list index out of range\n'
p6041
s.