(dp1
S'output'
p2
S"<type 'exceptions.TypeError'> int() argument must be a string or a number, not 'NoneType'"
p3
sS'layer'
p4
S'/home/urvashi/Desktop/WEB2PY/web2py/applications/GoGreen_Motors_2/controllers/default.py'
p5
sS'code'
p6
S'# -*- coding: utf-8 -*-\n# this file is released under public domain and you can use without limitations\n\n#########################################################################\n## This is a samples controller\n## - index is the default action of any application\n## - user is required for authentication and authorization\n## - download is for downloading files uploaded in the db (does streaming)\n## - call exposes all registered services (none by default)\n#########################################################################\n\n\ndef index():\n    \'auth\' in globals()\n   \n    message="Go Green Welcomes You !!"\n    if auth.user :\n        if auth.user.id==1:\n            message="Welcome TSM HYDERABAD"\n            redirect(URL(\'admin\'))\n        else:\n            message="Welcome Employee"\n            redirect(URL(\'empl\'))\n    else:\n        redirect(URL(\'user\'))\n    return locals()\n\ndef admin():\n    man=db(db.EMPLOYEE.Designation==\'Manager\').select()\n    team=db(db.EMPLOYEE.Designation==\'Team Leader\').select()\n    exe=db(db.EMPLOYEE.Designation==\'Executive\').select()\n    return locals()\ndef add_employee():\n    \'auth\' in globals()\n\n    if auth.user:\n         if auth.user.id!=1:\n             redirect(URL(\'user\'))\n         else:\n            form=SQLFORM(db.EMPLOYEE)\n            if form.accepts(request.vars,session):\n                    response.flash=\'Employee Added !!\'\n            elif form.errors:\n                    response.flash=\'ERRORS!!!\'\n    else:\n         redirect(URL(\'user\'))\n    return locals()\n\ndef delete_employee():\n    \'auth\' in globals()\n    message=""\n    if auth.user.id==1:\n        list=db(db.EMPLOYEE.Emp_ID>0).select()\n        form=SQLFORM.factory(\n                    db.Field(\'usrname\',db.EMPLOYEE,requires=IS_IN_DB(db,\'EMPLOYEE.Emp_ID\',\'EMPLOYEE.Email_id\'),required=True))\n        if form.accepts(request.vars,session):\n                    e=db(db.EMPLOYEE.Emp_ID==int(request.vars.usrname)).select()\n                    db(db.EMPLOYEE.Emp_ID==int(request.vars.usrname)).delete()\n                    db(db.auth_user.email==e[0][\'Email_id\']).delete()\n                    message="employee deleted !!"\n                    redirect(URL(\'delete_employee\'))\n        elif form.errors:\n                    response.flash=\'ERRORS!!!\'\n    else:\n        redirect(URL(\'user\'))\n    return locals()\n\n\ndef add_model():\n    \'auth\' in globals()\n    if auth.user.id==1:\n        form=SQLFORM(db.MODEL)\n        if form.accepts(request.vars,session):\n                    response.flash=\'Model Added !!\'\n        elif form.errors:\n                    response.flash=\'ERRORS!!!\'\n    else:\n        redirect(URL(\'index\'))\n    return locals()\ndef del_model():\n    \'auth\' in globals()\n    message=""\n    if auth.user.id==1:\n        form=SQLFORM.factory(\n                    db.Field(\'model\',db.MODEL,requires=IS_IN_DB(db,\'MODEL.Model_no\',\'Models.Name\'),required=True))\n        if form.accepts(request.vars,session):\n                    db(db.MODEL.Model_no==request.vars.model).delete()\n                    response.flash="Model Deleted !!"\n                    redirect(URL(\'del_model\'))\n        elif form.errors:\n                    response.flash=\'ERRORS!!!\'\n    else:\n        redirect(URL(\'index\'))\n    return locals()\n\ndef add_other_product():\n    \'auth\' in globals()\n    if auth.user.id==1:\n        form=SQLFORM(db.OTHER_PRODUCTS)\n        if form.accepts(request.vars,session):\n                    response.flash=\'Product Added !!\'\n        elif form.errors:\n                    response.flash=\'ERRORS!!!\'\n    else:\n        redirect(URL(\'index\'))\n    return locals()\ndef del_other_product():\n    \'auth\' in globals()\n    message=""\n    if auth.user.id==1:\n        form=SQLFORM.factory(\n                    db.Field(\'product\',db.OTHER_PRODUCTS,requires=IS_IN_DB(db,\'OTHER_PRODUCTS.Product_ID\',\'OTHER_PRODUCTS.Name\'),required=True))\n        if form.accepts(request.vars,session):\n                    db(db.OTHER_PRODUCTS.Product_ID==request.vars.product).delete()\n                    response.flash="Product Deleted !!"\n                    redirect(URL(\'del_other_product\'))\n        elif form.errors:\n                    response.flash=\'ERRORS!!!\'\n    else:\n        redirect(URL(\'index\'))\n    return locals()\n\ndef empl():\n    if auth.user:\n            e=db(str(auth.user.email) == db.EMPLOYEE.Email_id).select()\n            ee=str(e[0][\'EMPLOYEE.Designation\'])\n    else:\n            redirect(URL(\'user\'))\n    return locals()\n            \n       \ndef add_customer():\n    \'auth\' in globals()\n    if auth.user:\n        form=SQLFORM(db.CUSTOMER)\n        if form.accepts(request.vars,session):\n                    response.flash=\'Customer Added !!\'\n        elif form.errors:\n                    response.flash=\'ERRORS!!!\'\n    else:\n        redirect(URL(\'index\'))\n    return locals()\n    \ndef add_sale():\n    \'auth\' in globals()\n    if auth.user:\n        form=SQLFORM(db.BOUGHT)\n        if form.accepts(request.vars,session):\n                    response.flash=\'Product Sold !!\'\n        elif form.errors:\n                    response.flash=\'ERRORS!!!\'\n    else:\n        redirect(URL(\'index\'))\n    return locals()\n\ndef order_bike():\n    \'auth\' in globals()\n    if auth.user:\n        form=SQLFORM(db.DEMANDS)\n        if form.accepts(request.vars,session):\n                    response.flash=\'Bike Ordered !!\'\n                    list=db(db.FINANCE.Id>0).select(orderby=~(db.FINANCE.Id))\n                    l=int(list[0][\'FINANCE.Id\']) + 1\n                 #   print \'%%%%%\'\n                 #   print l\n                 #   e=db(db.EMPLOYEE.Emp_ID>0).select()\n                 #   print "///"\n                  #  print auth.user.email\n                    e=db(str(auth.user.email) == db.EMPLOYEE.Email_id).select()\n                  #  print \'*****\'\n                   # print e\n                    ee=int(e[0][\'EMPLOYEE.Emp_ID\'])\n                   # print "88888888888888"\n                  #  print ee\n                    db.FINANCE.insert(id=l,Type=\'Income\',Date=request.now.date(),Cause=\'Bike sale\',Employee_Id=ee)\n        elif form.errors:\n                    response.flash=\'ERRORS!!!\'\n    else:\n        redirect(URL(\'index\'))\n    return locals()\n\ndef sell_bike():\n    \'auth\' in globals()\n    if auth.user:\n        form=SQLFORM(db.DELIVERS_TO)\n        if form.accepts(request.vars,session):\n                    m=int(request.vars.Model_no)\n                    c=int(request.vars.Customer_ID)\n                    w=int(request.vars.Waiting_list_no)\n                    db((db.DEMANDS.Model_no==m ) & (db.DEMANDS.Customer_ID==c)).delete()                           \n                    response.flash=\'Bike Ordered !!\'\n        elif form.errors:\n                    response.flash=\'ERRORS!!!\'\n    else:\n        redirect(URL(\'index\'))\n    return locals()\n\ndef add_expense():\n    \'auth\' in globals()\n    if auth.user:\n        form=SQLFORM(db.FINANCE)\n        if form.accepts(request.vars,session):\n                    response.flash=\'Expense Added !!\'\n        elif form.errors:\n                    response.flash=\'ERRORS!!!\'\n    else:\n        redirect(URL(\'index\'))\n    return locals()\n\ndef list():\n        if auth.user:\n            l=db(db.DEMANDS.Waiting_list_no > 0).select()\n            c=db(db.CUSTOMER.Customer_ID > 0).select()\n        else:\n            redirect(URL(\'user\'))\n        return locals()\n\ndef order_bikes():\n       if auth.user:\n           m=db(db.MODEL.Model_no > 0).select()\n           l=db(db.DEMANDS.Waiting_list_no > 0).select()\n       else:\n           redirect(URL(\'index\'))\n       return locals()\n              \n            \ndef user():\n    """\n    exposes:\n    http://..../[app]/default/user/login\n    http://..../[app]/default/user/logout\n    http://..../[app]/default/user/register\n    http://..../[app]/default/user/profile\n    http://..../[app]/default/user/retrieve_password\n    http://..../[app]/default/user/change_password\n    use @auth.requires_login()\n        @auth.requires_membership(\'group name\')\n        @auth.requires_permission(\'read\',\'table name\',record_id)\n    to decorate functions that need access control\n    """\n    return dict(form=auth())\n\n\ndef download():\n    """\n    allows downloading of uploaded files\n    http://..../[app]/default/download/[filename]\n    """\n    return response.download(request, db)\n\n\ndef call():\n    """\n    exposes services. for example:\n    http://..../[app]/default/call/jsonrpc\n    decorate with @services.jsonrpc the functions to expose\n    supports xml, json, xmlrpc, jsonrpc, amfrpc, rss, csv\n    """\n    return service()\n\n\n@auth.requires_signature()\ndef data():\n    """\n    http://..../[app]/default/data/tables\n    http://..../[app]/default/data/create/[table]\n    http://..../[app]/default/data/read/[table]/[id]\n    http://..../[app]/default/data/update/[table]/[id]\n    http://..../[app]/default/data/delete/[table]/[id]\n    http://..../[app]/default/data/select/[table]\n    http://..../[app]/default/data/search/[table]\n    but URLs must be signed, i.e. linked with\n      A(\'table\',_href=URL(\'data/tables\',user_signature=True))\n    or with the signed load operator\n      LOAD(\'default\',\'data.load\',args=\'tables\',ajax=True,user_signature=True)\n    """\n    return dict(form=crud())\n\nresponse._vars=response._caller(sell_bike)\n'
p7
sS'snapshot'
p8
(dp9
S'exception'
p10
(dp11
S'__hash__'
p12
S"<method-wrapper '__hash__' of exceptions.TypeError object>"
p13
sS'__setattr__'
p14
S"<method-wrapper '__setattr__' of exceptions.TypeError object>"
p15
sS'__reduce_ex__'
p16
S'<built-in method __reduce_ex__ of exceptions.TypeError object>'
p17
sS'__getslice__'
p18
S"<method-wrapper '__getslice__' of exceptions.TypeError object>"
p19
sS'__getitem__'
p20
S"<method-wrapper '__getitem__' of exceptions.TypeError object>"
p21
sS'__setstate__'
p22
S'<built-in method __setstate__ of exceptions.TypeError object>'
p23
sS'args'
p24
S'("int() argument must be a string or a number, not \'NoneType\'",)'
p25
sS'__reduce__'
p26
S'<built-in method __reduce__ of exceptions.TypeError object>'
p27
sS'__str__'
p28
S"<method-wrapper '__str__' of exceptions.TypeError object>"
p29
sS'__format__'
p30
S'<built-in method __format__ of exceptions.TypeError object>'
p31
sS'__getattribute__'
p32
S"<method-wrapper '__getattribute__' of exceptions.TypeError object>"
p33
sS'__class__'
p34
S"<type 'exceptions.TypeError'>"
p35
sS'__unicode__'
p36
S'<built-in method __unicode__ of exceptions.TypeError object>'
p37
sS'__delattr__'
p38
S"<method-wrapper '__delattr__' of exceptions.TypeError object>"
p39
sS'__subclasshook__'
p40
S'<built-in method __subclasshook__ of type object>'
p41
sS'__repr__'
p42
S"<method-wrapper '__repr__' of exceptions.TypeError object>"
p43
sS'__dict__'
p44
S'{}'
p45
sS'__sizeof__'
p46
S'<built-in method __sizeof__ of exceptions.TypeError object>'
p47
sS'__doc__'
p48
S"'Inappropriate argument type.'"
p49
sS'__init__'
p50
S"<method-wrapper '__init__' of exceptions.TypeError object>"
p51
sS'__new__'
p52
S'<built-in method __new__ of type object>'
p53
ssS'evalue'
p54
S"int() argument must be a string or a number, not 'NoneType'"
p55
sS'request'
p56
ccopy_reg
_reconstructor
p57
(cgluon.html
BEAUTIFY
p58
c__builtin__
object
p59
NtRp60
(dp61
S'attributes'
p62
(dp63
sS'components'
p64
(lp65
g57
(cgluon.html
TABLE
p66
g59
NtRp67
(dp68
g62
(dp69
S'level'
p70
I5
ssS'parent'
p71
Nsg64
(lp72
g57
(cgluon.html
TR
p73
g59
NtRp74
(dp75
g62
(dp76
sg71
g67
sg64
(lp77
g57
(cgluon.html
TD
p78
g59
NtRp79
(dp80
g62
(dp81
S'_style'
p82
S'font-weight:bold;vertical-align:top'
p83
ssg71
g74
sg64
(lp84
S'ajax'
p85
asbag57
(g78
g59
NtRp86
(dp87
g62
(dp88
S'_valign'
p89
S'top'
p90
ssg71
g74
sg64
(lp91
S':'
asbag57
(g78
g59
NtRp92
(dp93
g62
(dp94
sg71
g74
sg64
(lp95
g57
(g58
g59
NtRp96
(dp97
g62
(dp98
g70
I5
ssg71
g92
sg64
(lp99
S'False'
p100
asbasbasbag57
(g73
g59
NtRp101
(dp102
g62
(dp103
sg71
g67
sg64
(lp104
g57
(g78
g59
NtRp105
(dp106
g62
(dp107
g82
g83
ssg71
g101
sg64
(lp108
S'application'
p109
asbag57
(g78
g59
NtRp110
(dp111
g62
(dp112
g89
g90
ssg71
g101
sg64
(lp113
S':'
asbag57
(g78
g59
NtRp114
(dp115
g62
(dp116
sg71
g101
sg64
(lp117
g57
(g58
g59
NtRp118
(dp119
g62
(dp120
g70
I5
ssg71
g114
sg64
(lp121
S'GoGreen_Motors_2'
p122
asbasbasbag57
(g73
g59
NtRp123
(dp124
g62
(dp125
sg71
g67
sg64
(lp126
g57
(g78
g59
NtRp127
(dp128
g62
(dp129
g82
g83
ssg71
g123
sg64
(lp130
g24
asbag57
(g78
g59
NtRp131
(dp132
g62
(dp133
g89
g90
ssg71
g123
sg64
(lp134
S':'
asbag57
(g78
g59
NtRp135
(dp136
g62
(dp137
sg71
g123
sg64
(lp138
g57
(g58
g59
NtRp139
(dp140
g62
(dp141
g70
I5
ssg71
g135
sg64
(lp142
g57
(g66
g59
NtRp143
(dp144
g62
(dp145
g70
I4
ssg71
Nsg64
(lp146
sbasbasbasbag57
(g73
g59
NtRp147
(dp148
g62
(dp149
sg71
g67
sg64
(lp150
g57
(g78
g59
NtRp151
(dp152
g62
(dp153
g82
g83
ssg71
g147
sg64
(lp154
S'body'
p155
asbag57
(g78
g59
NtRp156
(dp157
g62
(dp158
g89
g90
ssg71
g147
sg64
(lp159
S':'
asbag57
(g78
g59
NtRp160
(dp161
g62
(dp162
sg71
g147
sg64
(lp163
g57
(g58
g59
NtRp164
(dp165
g62
(dp166
g70
I5
ssg71
g160
sg64
(lp167
S"<open file '<fdopen>', mode 'w+b' at 0x7fb13c2c2ed0>"
p168
asbasbasbag57
(g73
g59
NtRp169
(dp170
g62
(dp171
sg71
g67
sg64
(lp172
g57
(g78
g59
NtRp173
(dp174
g62
(dp175
g82
g83
ssg71
g169
sg64
(lp176
S'cid'
p177
asbag57
(g78
g59
NtRp178
(dp179
g62
(dp180
g89
g90
ssg71
g169
sg64
(lp181
S':'
asbag57
(g78
g59
NtRp182
(dp183
g62
(dp184
sg71
g169
sg64
(lp185
g57
(g58
g59
NtRp186
(dp187
g62
(dp188
g70
I5
ssg71
g182
sg64
(lp189
S'None'
p190
asbasbasbag57
(g73
g59
NtRp191
(dp192
g62
(dp193
sg71
g67
sg64
(lp194
g57
(g78
g59
NtRp195
(dp196
g62
(dp197
g82
g83
ssg71
g191
sg64
(lp198
S'client'
p199
asbag57
(g78
g59
NtRp200
(dp201
g62
(dp202
g89
g90
ssg71
g191
sg64
(lp203
S':'
asbag57
(g78
g59
NtRp204
(dp205
g62
(dp206
sg71
g191
sg64
(lp207
g57
(g58
g59
NtRp208
(dp209
g62
(dp210
g70
I5
ssg71
g204
sg64
(lp211
S'127.0.0.1'
p212
asbasbasbag57
(g73
g59
NtRp213
(dp214
g62
(dp215
sg71
g67
sg64
(lp216
g57
(g78
g59
NtRp217
(dp218
g62
(dp219
g82
g83
ssg71
g213
sg64
(lp220
S'controller'
p221
asbag57
(g78
g59
NtRp222
(dp223
g62
(dp224
g89
g90
ssg71
g213
sg64
(lp225
S':'
asbag57
(g78
g59
NtRp226
(dp227
g62
(dp228
sg71
g213
sg64
(lp229
g57
(g58
g59
NtRp230
(dp231
g62
(dp232
g70
I5
ssg71
g226
sg64
(lp233
S'default'
p234
asbasbasbag57
(g73
g59
NtRp235
(dp236
g62
(dp237
sg71
g67
sg64
(lp238
g57
(g78
g59
NtRp239
(dp240
g62
(dp241
g82
g83
ssg71
g235
sg64
(lp242
S'cookies'
p243
asbag57
(g78
g59
NtRp244
(dp245
g62
(dp246
g89
g90
ssg71
g235
sg64
(lp247
S':'
asbag57
(g78
g59
NtRp248
(dp249
g62
(dp250
sg71
g235
sg64
(lp251
g57
(g58
g59
NtRp252
(dp253
g62
(dp254
g70
I5
ssg71
g248
sg64
(lp255
g57
(g66
g59
NtRp256
(dp257
g62
(dp258
g70
I4
ssg71
Nsg64
(lp259
g57
(g73
g59
NtRp260
(dp261
g62
(dp262
sg71
g256
sg64
(lp263
g57
(g78
g59
NtRp264
(dp265
g62
(dp266
g82
g83
ssg71
g260
sg64
(lp267
S'session_id_admin'
p268
asbag57
(g78
g59
NtRp269
(dp270
g62
(dp271
g89
g90
ssg71
g260
sg64
(lp272
S':'
asbag57
(g78
g59
NtRp273
(dp274
g62
(dp275
sg71
g260
sg64
(lp276
g57
(g58
g59
NtRp277
(dp278
g62
(dp279
g70
I4
ssg71
g273
sg64
(lp280
S'127.0.0.1-e4406933-fbbc-419d-9d7d-f4f1405427ef'
p281
ag57
(g66
g59
NtRp282
(dp283
g62
(dp284
g70
I3
ssg71
Nsg64
(lp285
g57
(g73
g59
NtRp286
(dp287
g62
(dp288
sg71
g282
sg64
(lp289
g57
(g78
g59
NtRp290
(dp291
g62
(dp292
g82
g83
ssg71
g286
sg64
(lp293
S'comment'
p294
asbag57
(g78
g59
NtRp295
(dp296
g62
(dp297
g89
g90
ssg71
g286
sg64
(lp298
S':'
asbag57
(g78
g59
NtRp299
(dp300
g62
(dp301
sg71
g286
sg64
(lp302
g57
(g58
g59
NtRp303
(dp304
g62
(dp305
g70
I3
ssg71
g299
sg64
(lp306
S''
asbasbasbag57
(g73
g59
NtRp307
(dp308
g62
(dp309
sg71
g282
sg64
(lp310
g57
(g78
g59
NtRp311
(dp312
g62
(dp313
g82
g83
ssg71
g307
sg64
(lp314
S'domain'
p315
asbag57
(g78
g59
NtRp316
(dp317
g62
(dp318
g89
g90
ssg71
g307
sg64
(lp319
S':'
asbag57
(g78
g59
NtRp320
(dp321
g62
(dp322
sg71
g307
sg64
(lp323
g57
(g58
g59
NtRp324
(dp325
g62
(dp326
g70
I3
ssg71
g320
sg64
(lp327
S''
asbasbasbag57
(g73
g59
NtRp328
(dp329
g62
(dp330
sg71
g282
sg64
(lp331
g57
(g78
g59
NtRp332
(dp333
g62
(dp334
g82
g83
ssg71
g328
sg64
(lp335
S'expires'
p336
asbag57
(g78
g59
NtRp337
(dp338
g62
(dp339
g89
g90
ssg71
g328
sg64
(lp340
S':'
asbag57
(g78
g59
NtRp341
(dp342
g62
(dp343
sg71
g328
sg64
(lp344
g57
(g58
g59
NtRp345
(dp346
g62
(dp347
g70
I3
ssg71
g341
sg64
(lp348
S''
asbasbasbag57
(g73
g59
NtRp349
(dp350
g62
(dp351
sg71
g282
sg64
(lp352
g57
(g78
g59
NtRp353
(dp354
g62
(dp355
g82
g83
ssg71
g349
sg64
(lp356
S'httponly'
p357
asbag57
(g78
g59
NtRp358
(dp359
g62
(dp360
g89
g90
ssg71
g349
sg64
(lp361
S':'
asbag57
(g78
g59
NtRp362
(dp363
g62
(dp364
sg71
g349
sg64
(lp365
g57
(g58
g59
NtRp366
(dp367
g62
(dp368
g70
I3
ssg71
g362
sg64
(lp369
S''
asbasbasbag57
(g73
g59
NtRp370
(dp371
g62
(dp372
sg71
g282
sg64
(lp373
g57
(g78
g59
NtRp374
(dp375
g62
(dp376
g82
g83
ssg71
g370
sg64
(lp377
S'max-age'
p378
asbag57
(g78
g59
NtRp379
(dp380
g62
(dp381
g89
g90
ssg71
g370
sg64
(lp382
S':'
asbag57
(g78
g59
NtRp383
(dp384
g62
(dp385
sg71
g370
sg64
(lp386
g57
(g58
g59
NtRp387
(dp388
g62
(dp389
g70
I3
ssg71
g383
sg64
(lp390
S''
asbasbasbag57
(g73
g59
NtRp391
(dp392
g62
(dp393
sg71
g282
sg64
(lp394
g57
(g78
g59
NtRp395
(dp396
g62
(dp397
g82
g83
ssg71
g391
sg64
(lp398
S'path'
p399
asbag57
(g78
g59
NtRp400
(dp401
g62
(dp402
g89
g90
ssg71
g391
sg64
(lp403
S':'
asbag57
(g78
g59
NtRp404
(dp405
g62
(dp406
sg71
g391
sg64
(lp407
g57
(g58
g59
NtRp408
(dp409
g62
(dp410
g70
I3
ssg71
g404
sg64
(lp411
S''
asbasbasbag57
(g73
g59
NtRp412
(dp413
g62
(dp414
sg71
g282
sg64
(lp415
g57
(g78
g59
NtRp416
(dp417
g62
(dp418
g82
g83
ssg71
g412
sg64
(lp419
S'secure'
p420
asbag57
(g78
g59
NtRp421
(dp422
g62
(dp423
g89
g90
ssg71
g412
sg64
(lp424
S':'
asbag57
(g78
g59
NtRp425
(dp426
g62
(dp427
sg71
g412
sg64
(lp428
g57
(g58
g59
NtRp429
(dp430
g62
(dp431
g70
I3
ssg71
g425
sg64
(lp432
S''
asbasbasbag57
(g73
g59
NtRp433
(dp434
g62
(dp435
sg71
g282
sg64
(lp436
g57
(g78
g59
NtRp437
(dp438
g62
(dp439
g82
g83
ssg71
g433
sg64
(lp440
S'version'
p441
asbag57
(g78
g59
NtRp442
(dp443
g62
(dp444
g89
g90
ssg71
g433
sg64
(lp445
S':'
asbag57
(g78
g59
NtRp446
(dp447
g62
(dp448
sg71
g433
sg64
(lp449
g57
(g58
g59
NtRp450
(dp451
g62
(dp452
g70
I3
ssg71
g446
sg64
(lp453
S''
asbasbasbasbasbasbasbag57
(g73
g59
NtRp454
(dp455
g62
(dp456
sg71
g256
sg64
(lp457
g57
(g78
g59
NtRp458
(dp459
g62
(dp460
g82
g83
ssg71
g454
sg64
(lp461
S'session_id_gogreen_motors_2'
p462
asbag57
(g78
g59
NtRp463
(dp464
g62
(dp465
g89
g90
ssg71
g454
sg64
(lp466
S':'
asbag57
(g78
g59
NtRp467
(dp468
g62
(dp469
sg71
g454
sg64
(lp470
g57
(g58
g59
NtRp471
(dp472
g62
(dp473
g70
I4
ssg71
g467
sg64
(lp474
S'127.0.0.1-ab57762a-d3ab-493d-b392-b6f6f290162c'
p475
ag57
(g66
g59
NtRp476
(dp477
g62
(dp478
g70
I3
ssg71
Nsg64
(lp479
g57
(g73
g59
NtRp480
(dp481
g62
(dp482
sg71
g476
sg64
(lp483
g57
(g78
g59
NtRp484
(dp485
g62
(dp486
g82
g83
ssg71
g480
sg64
(lp487
g294
asbag57
(g78
g59
NtRp488
(dp489
g62
(dp490
g89
g90
ssg71
g480
sg64
(lp491
S':'
asbag57
(g78
g59
NtRp492
(dp493
g62
(dp494
sg71
g480
sg64
(lp495
g57
(g58
g59
NtRp496
(dp497
g62
(dp498
g70
I3
ssg71
g492
sg64
(lp499
S''
asbasbasbag57
(g73
g59
NtRp500
(dp501
g62
(dp502
sg71
g476
sg64
(lp503
g57
(g78
g59
NtRp504
(dp505
g62
(dp506
g82
g83
ssg71
g500
sg64
(lp507
g315
asbag57
(g78
g59
NtRp508
(dp509
g62
(dp510
g89
g90
ssg71
g500
sg64
(lp511
S':'
asbag57
(g78
g59
NtRp512
(dp513
g62
(dp514
sg71
g500
sg64
(lp515
g57
(g58
g59
NtRp516
(dp517
g62
(dp518
g70
I3
ssg71
g512
sg64
(lp519
S''
asbasbasbag57
(g73
g59
NtRp520
(dp521
g62
(dp522
sg71
g476
sg64
(lp523
g57
(g78
g59
NtRp524
(dp525
g62
(dp526
g82
g83
ssg71
g520
sg64
(lp527
g336
asbag57
(g78
g59
NtRp528
(dp529
g62
(dp530
g89
g90
ssg71
g520
sg64
(lp531
S':'
asbag57
(g78
g59
NtRp532
(dp533
g62
(dp534
sg71
g520
sg64
(lp535
g57
(g58
g59
NtRp536
(dp537
g62
(dp538
g70
I3
ssg71
g532
sg64
(lp539
S''
asbasbasbag57
(g73
g59
NtRp540
(dp541
g62
(dp542
sg71
g476
sg64
(lp543
g57
(g78
g59
NtRp544
(dp545
g62
(dp546
g82
g83
ssg71
g540
sg64
(lp547
g357
asbag57
(g78
g59
NtRp548
(dp549
g62
(dp550
g89
g90
ssg71
g540
sg64
(lp551
S':'
asbag57
(g78
g59
NtRp552
(dp553
g62
(dp554
sg71
g540
sg64
(lp555
g57
(g58
g59
NtRp556
(dp557
g62
(dp558
g70
I3
ssg71
g552
sg64
(lp559
S''
asbasbasbag57
(g73
g59
NtRp560
(dp561
g62
(dp562
sg71
g476
sg64
(lp563
g57
(g78
g59
NtRp564
(dp565
g62
(dp566
g82
g83
ssg71
g560
sg64
(lp567
g378
asbag57
(g78
g59
NtRp568
(dp569
g62
(dp570
g89
g90
ssg71
g560
sg64
(lp571
S':'
asbag57
(g78
g59
NtRp572
(dp573
g62
(dp574
sg71
g560
sg64
(lp575
g57
(g58
g59
NtRp576
(dp577
g62
(dp578
g70
I3
ssg71
g572
sg64
(lp579
S''
asbasbasbag57
(g73
g59
NtRp580
(dp581
g62
(dp582
sg71
g476
sg64
(lp583
g57
(g78
g59
NtRp584
(dp585
g62
(dp586
g82
g83
ssg71
g580
sg64
(lp587
g399
asbag57
(g78
g59
NtRp588
(dp589
g62
(dp590
g89
g90
ssg71
g580
sg64
(lp591
S':'
asbag57
(g78
g59
NtRp592
(dp593
g62
(dp594
sg71
g580
sg64
(lp595
g57
(g58
g59
NtRp596
(dp597
g62
(dp598
g70
I3
ssg71
g592
sg64
(lp599
S''
asbasbasbag57
(g73
g59
NtRp600
(dp601
g62
(dp602
sg71
g476
sg64
(lp603
g57
(g78
g59
NtRp604
(dp605
g62
(dp606
g82
g83
ssg71
g600
sg64
(lp607
g420
asbag57
(g78
g59
NtRp608
(dp609
g62
(dp610
g89
g90
ssg71
g600
sg64
(lp611
S':'
asbag57
(g78
g59
NtRp612
(dp613
g62
(dp614
sg71
g600
sg64
(lp615
g57
(g58
g59
NtRp616
(dp617
g62
(dp618
g70
I3
ssg71
g612
sg64
(lp619
S''
asbasbasbag57
(g73
g59
NtRp620
(dp621
g62
(dp622
sg71
g476
sg64
(lp623
g57
(g78
g59
NtRp624
(dp625
g62
(dp626
g82
g83
ssg71
g620
sg64
(lp627
g441
asbag57
(g78
g59
NtRp628
(dp629
g62
(dp630
g89
g90
ssg71
g620
sg64
(lp631
S':'
asbag57
(g78
g59
NtRp632
(dp633
g62
(dp634
sg71
g620
sg64
(lp635
g57
(g58
g59
NtRp636
(dp637
g62
(dp638
g70
I3
ssg71
g632
sg64
(lp639
S''
asbasbasbasbasbasbasbag57
(g73
g59
NtRp640
(dp641
g62
(dp642
sg71
g256
sg64
(lp643
g57
(g78
g59
NtRp644
(dp645
g62
(dp646
g82
g83
ssg71
g640
sg64
(lp647
S'session_id_welcome'
p648
asbag57
(g78
g59
NtRp649
(dp650
g62
(dp651
g89
g90
ssg71
g640
sg64
(lp652
S':'
asbag57
(g78
g59
NtRp653
(dp654
g62
(dp655
sg71
g640
sg64
(lp656
g57
(g58
g59
NtRp657
(dp658
g62
(dp659
g70
I4
ssg71
g653
sg64
(lp660
S'127.0.0.1-ba62dd43-4fa4-46ec-81cf-21a51b98f97c'
p661
ag57
(g66
g59
NtRp662
(dp663
g62
(dp664
g70
I3
ssg71
Nsg64
(lp665
g57
(g73
g59
NtRp666
(dp667
g62
(dp668
sg71
g662
sg64
(lp669
g57
(g78
g59
NtRp670
(dp671
g62
(dp672
g82
g83
ssg71
g666
sg64
(lp673
g294
asbag57
(g78
g59
NtRp674
(dp675
g62
(dp676
g89
g90
ssg71
g666
sg64
(lp677
S':'
asbag57
(g78
g59
NtRp678
(dp679
g62
(dp680
sg71
g666
sg64
(lp681
g57
(g58
g59
NtRp682
(dp683
g62
(dp684
g70
I3
ssg71
g678
sg64
(lp685
S''
asbasbasbag57
(g73
g59
NtRp686
(dp687
g62
(dp688
sg71
g662
sg64
(lp689
g57
(g78
g59
NtRp690
(dp691
g62
(dp692
g82
g83
ssg71
g686
sg64
(lp693
g315
asbag57
(g78
g59
NtRp694
(dp695
g62
(dp696
g89
g90
ssg71
g686
sg64
(lp697
S':'
asbag57
(g78
g59
NtRp698
(dp699
g62
(dp700
sg71
g686
sg64
(lp701
g57
(g58
g59
NtRp702
(dp703
g62
(dp704
g70
I3
ssg71
g698
sg64
(lp705
S''
asbasbasbag57
(g73
g59
NtRp706
(dp707
g62
(dp708
sg71
g662
sg64
(lp709
g57
(g78
g59
NtRp710
(dp711
g62
(dp712
g82
g83
ssg71
g706
sg64
(lp713
g336
asbag57
(g78
g59
NtRp714
(dp715
g62
(dp716
g89
g90
ssg71
g706
sg64
(lp717
S':'
asbag57
(g78
g59
NtRp718
(dp719
g62
(dp720
sg71
g706
sg64
(lp721
g57
(g58
g59
NtRp722
(dp723
g62
(dp724
g70
I3
ssg71
g718
sg64
(lp725
S''
asbasbasbag57
(g73
g59
NtRp726
(dp727
g62
(dp728
sg71
g662
sg64
(lp729
g57
(g78
g59
NtRp730
(dp731
g62
(dp732
g82
g83
ssg71
g726
sg64
(lp733
g357
asbag57
(g78
g59
NtRp734
(dp735
g62
(dp736
g89
g90
ssg71
g726
sg64
(lp737
S':'
asbag57
(g78
g59
NtRp738
(dp739
g62
(dp740
sg71
g726
sg64
(lp741
g57
(g58
g59
NtRp742
(dp743
g62
(dp744
g70
I3
ssg71
g738
sg64
(lp745
S''
asbasbasbag57
(g73
g59
NtRp746
(dp747
g62
(dp748
sg71
g662
sg64
(lp749
g57
(g78
g59
NtRp750
(dp751
g62
(dp752
g82
g83
ssg71
g746
sg64
(lp753
g378
asbag57
(g78
g59
NtRp754
(dp755
g62
(dp756
g89
g90
ssg71
g746
sg64
(lp757
S':'
asbag57
(g78
g59
NtRp758
(dp759
g62
(dp760
sg71
g746
sg64
(lp761
g57
(g58
g59
NtRp762
(dp763
g62
(dp764
g70
I3
ssg71
g758
sg64
(lp765
S''
asbasbasbag57
(g73
g59
NtRp766
(dp767
g62
(dp768
sg71
g662
sg64
(lp769
g57
(g78
g59
NtRp770
(dp771
g62
(dp772
g82
g83
ssg71
g766
sg64
(lp773
g399
asbag57
(g78
g59
NtRp774
(dp775
g62
(dp776
g89
g90
ssg71
g766
sg64
(lp777
S':'
asbag57
(g78
g59
NtRp778
(dp779
g62
(dp780
sg71
g766
sg64
(lp781
g57
(g58
g59
NtRp782
(dp783
g62
(dp784
g70
I3
ssg71
g778
sg64
(lp785
S''
asbasbasbag57
(g73
g59
NtRp786
(dp787
g62
(dp788
sg71
g662
sg64
(lp789
g57
(g78
g59
NtRp790
(dp791
g62
(dp792
g82
g83
ssg71
g786
sg64
(lp793
g420
asbag57
(g78
g59
NtRp794
(dp795
g62
(dp796
g89
g90
ssg71
g786
sg64
(lp797
S':'
asbag57
(g78
g59
NtRp798
(dp799
g62
(dp800
sg71
g786
sg64
(lp801
g57
(g58
g59
NtRp802
(dp803
g62
(dp804
g70
I3
ssg71
g798
sg64
(lp805
S''
asbasbasbag57
(g73
g59
NtRp806
(dp807
g62
(dp808
sg71
g662
sg64
(lp809
g57
(g78
g59
NtRp810
(dp811
g62
(dp812
g82
g83
ssg71
g806
sg64
(lp813
g441
asbag57
(g78
g59
NtRp814
(dp815
g62
(dp816
g89
g90
ssg71
g806
sg64
(lp817
S':'
asbag57
(g78
g59
NtRp818
(dp819
g62
(dp820
sg71
g806
sg64
(lp821
g57
(g58
g59
NtRp822
(dp823
g62
(dp824
g70
I3
ssg71
g818
sg64
(lp825
S''
asbasbasbasbasbasbasbasbasbasbasbag57
(g73
g59
NtRp826
(dp827
g62
(dp828
sg71
g67
sg64
(lp829
g57
(g78
g59
NtRp830
(dp831
g62
(dp832
g82
g83
ssg71
g826
sg64
(lp833
S'env'
p834
asbag57
(g78
g59
NtRp835
(dp836
g62
(dp837
g89
g90
ssg71
g826
sg64
(lp838
S':'
asbag57
(g78
g59
NtRp839
(dp840
g62
(dp841
sg71
g826
sg64
(lp842
g57
(g58
g59
NtRp843
(dp844
g62
(dp845
g70
I5
ssg71
g839
sg64
(lp846
g57
(g66
g59
NtRp847
(dp848
g62
(dp849
g70
I4
ssg71
Nsg64
(lp850
g57
(g73
g59
NtRp851
(dp852
g62
(dp853
sg71
g847
sg64
(lp854
g57
(g78
g59
NtRp855
(dp856
g62
(dp857
g82
g83
ssg71
g851
sg64
(lp858
S'app_folders'
p859
asbag57
(g78
g59
NtRp860
(dp861
g62
(dp862
g89
g90
ssg71
g851
sg64
(lp863
S':'
asbag57
(g78
g59
NtRp864
(dp865
g62
(dp866
sg71
g851
sg64
(lp867
g57
(g58
g59
NtRp868
(dp869
g62
(dp870
g70
I4
ssg71
g864
sg64
(lp871
S"set(['/home/urvashi/Desktop/WEB2PY/web2py/applications/admin/', '/home/urvashi/Desktop/WEB2PY/web2py/applications/welcome/', '/home/urvashi/Desktop/WEB2PY/web2py/applications/GoGreen_Motors_2/'])"
p872
asbasbasbag57
(g73
g59
NtRp873
(dp874
g62
(dp875
sg71
g847
sg64
(lp876
g57
(g78
g59
NtRp877
(dp878
g62
(dp879
g82
g83
ssg71
g873
sg64
(lp880
S'applications_parent'
p881
asbag57
(g78
g59
NtRp882
(dp883
g62
(dp884
g89
g90
ssg71
g873
sg64
(lp885
S':'
asbag57
(g78
g59
NtRp886
(dp887
g62
(dp888
sg71
g873
sg64
(lp889
g57
(g58
g59
NtRp890
(dp891
g62
(dp892
g70
I4
ssg71
g886
sg64
(lp893
S'/home/urvashi/Desktop/WEB2PY/web2py'
p894
asbasbasbag57
(g73
g59
NtRp895
(dp896
g62
(dp897
sg71
g847
sg64
(lp898
g57
(g78
g59
NtRp899
(dp900
g62
(dp901
g82
g83
ssg71
g895
sg64
(lp902
S'cmd_args'
p903
asbag57
(g78
g59
NtRp904
(dp905
g62
(dp906
g89
g90
ssg71
g895
sg64
(lp907
S':'
asbag57
(g78
g59
NtRp908
(dp909
g62
(dp910
sg71
g895
sg64
(lp911
g57
(g58
g59
NtRp912
(dp913
g62
(dp914
g70
I4
ssg71
g908
sg64
(lp915
g57
(g66
g59
NtRp916
(dp917
g62
(dp918
g70
I3
ssg71
Nsg64
(lp919
sbasbasbasbag57
(g73
g59
NtRp920
(dp921
g62
(dp922
sg71
g847
sg64
(lp923
g57
(g78
g59
NtRp924
(dp925
g62
(dp926
g82
g83
ssg71
g920
sg64
(lp927
S'cmd_options'
p928
asbag57
(g78
g59
NtRp929
(dp930
g62
(dp931
g89
g90
ssg71
g920
sg64
(lp932
S':'
asbag57
(g78
g59
NtRp933
(dp934
g62
(dp935
sg71
g920
sg64
(lp936
g57
(g58
g59
NtRp937
(dp938
g62
(dp939
g70
I4
ssg71
g933
sg64
(lp940
S"<Values at 0x327a2d8: {'verbose': False, 'ip': '127.0.0.1', 'with_scheduler': False, 'ips': [], 'shutdown_timeout': 5, 'taskbar': False, 'port': 8000, 'maxthreads': None, 'softcron': False, 'server_name': 'urvashi-VPCEH35EN', 'bpython': False, 'nogui': False, 'pid_filename': 'httpserver.pid', 'extcron': False, 'runcron': False, 'run_system_tests': False, 'test': None, 'folder': '/home/urvashi/Desktop/WEB2PY/web2py', 'config': '', 'minthreads': None, 'winservice': '', 'shell': None, 'run': '', 'log_filename': 'httpserver.log', 'debuglevel': 30, 'args': [''], 'socket_timeout': 5, 'ssl_ca_certificate': None, 'scheduler': None, 'profiler_filename': None, 'ssl_private_key': '', 'scheduler_groups': None, 'password': '123', 'request_queue_size': 5, 'ssl_certificate': '', 'cronjob': False, 'numthreads': None, 'quiet': False, 'interfaces': None, 'import_models': False, 'timeout': 10, 'plain': False, 'nobanner': False}>"
p941
asbasbasbag57
(g73
g59
NtRp942
(dp943
g62
(dp944
sg71
g847
sg64
(lp945
g57
(g78
g59
NtRp946
(dp947
g62
(dp948
g82
g83
ssg71
g942
sg64
(lp949
S'content_length'
p950
asbag57
(g78
g59
NtRp951
(dp952
g62
(dp953
g89
g90
ssg71
g942
sg64
(lp954
S':'
asbag57
(g78
g59
NtRp955
(dp956
g62
(dp957
sg71
g942
sg64
(lp958
g57
(g58
g59
NtRp959
(dp960
g62
(dp961
g70
I4
ssg71
g955
sg64
(lp962
S'1179'
p963
asbasbasbag57
(g73
g59
NtRp964
(dp965
g62
(dp966
sg71
g847
sg64
(lp967
g57
(g78
g59
NtRp968
(dp969
g62
(dp970
g82
g83
ssg71
g964
sg64
(lp971
S'content_type'
p972
asbag57
(g78
g59
NtRp973
(dp974
g62
(dp975
g89
g90
ssg71
g964
sg64
(lp976
S':'
asbag57
(g78
g59
NtRp977
(dp978
g62
(dp979
sg71
g964
sg64
(lp980
g57
(g58
g59
NtRp981
(dp982
g62
(dp983
g70
I4
ssg71
g977
sg64
(lp984
S'multipart/form-data; boundary=---------------------------142808075411506118501499917006'
p985
asbasbasbag57
(g73
g59
NtRp986
(dp987
g62
(dp988
sg71
g847
sg64
(lp989
g57
(g78
g59
NtRp990
(dp991
g62
(dp992
g82
g83
ssg71
g986
sg64
(lp993
S'db_sessions'
p994
asbag57
(g78
g59
NtRp995
(dp996
g62
(dp997
g89
g90
ssg71
g986
sg64
(lp998
S':'
asbag57
(g78
g59
NtRp999
(dp1000
g62
(dp1001
sg71
g986
sg64
(lp1002
g57
(g58
g59
NtRp1003
(dp1004
g62
(dp1005
g70
I4
ssg71
g999
sg64
(lp1006
S'set([])'
p1007
asbasbasbag57
(g73
g59
NtRp1008
(dp1009
g62
(dp1010
sg71
g847
sg64
(lp1011
g57
(g78
g59
NtRp1012
(dp1013
g62
(dp1014
g82
g83
ssg71
g1008
sg64
(lp1015
S'debugging'
p1016
asbag57
(g78
g59
NtRp1017
(dp1018
g62
(dp1019
g89
g90
ssg71
g1008
sg64
(lp1020
S':'
asbag57
(g78
g59
NtRp1021
(dp1022
g62
(dp1023
sg71
g1008
sg64
(lp1024
g57
(g58
g59
NtRp1025
(dp1026
g62
(dp1027
g70
I4
ssg71
g1021
sg64
(lp1028
g100
asbasbasbag57
(g73
g59
NtRp1029
(dp1030
g62
(dp1031
sg71
g847
sg64
(lp1032
g57
(g78
g59
NtRp1033
(dp1034
g62
(dp1035
g82
g83
ssg71
g1029
sg64
(lp1036
S'gluon_parent'
p1037
asbag57
(g78
g59
NtRp1038
(dp1039
g62
(dp1040
g89
g90
ssg71
g1029
sg64
(lp1041
S':'
asbag57
(g78
g59
NtRp1042
(dp1043
g62
(dp1044
sg71
g1029
sg64
(lp1045
g57
(g58
g59
NtRp1046
(dp1047
g62
(dp1048
g70
I4
ssg71
g1042
sg64
(lp1049
S'/home/urvashi/Desktop/WEB2PY/web2py'
p1050
asbasbasbag57
(g73
g59
NtRp1051
(dp1052
g62
(dp1053
sg71
g847
sg64
(lp1054
g57
(g78
g59
NtRp1055
(dp1056
g62
(dp1057
g82
g83
ssg71
g1051
sg64
(lp1058
S'http_accept'
p1059
asbag57
(g78
g59
NtRp1060
(dp1061
g62
(dp1062
g89
g90
ssg71
g1051
sg64
(lp1063
S':'
asbag57
(g78
g59
NtRp1064
(dp1065
g62
(dp1066
sg71
g1051
sg64
(lp1067
g57
(g58
g59
NtRp1068
(dp1069
g62
(dp1070
g70
I4
ssg71
g1064
sg64
(lp1071
S'text/html,application/xhtml+xml,application/xml;q=0.9,*/*;q=0.8'
p1072
asbasbasbag57
(g73
g59
NtRp1073
(dp1074
g62
(dp1075
sg71
g847
sg64
(lp1076
g57
(g78
g59
NtRp1077
(dp1078
g62
(dp1079
g82
g83
ssg71
g1073
sg64
(lp1080
S'http_accept_encoding'
p1081
asbag57
(g78
g59
NtRp1082
(dp1083
g62
(dp1084
g89
g90
ssg71
g1073
sg64
(lp1085
S':'
asbag57
(g78
g59
NtRp1086
(dp1087
g62
(dp1088
sg71
g1073
sg64
(lp1089
g57
(g58
g59
NtRp1090
(dp1091
g62
(dp1092
g70
I4
ssg71
g1086
sg64
(lp1093
S'gzip, deflate'
p1094
asbasbasbag57
(g73
g59
NtRp1095
(dp1096
g62
(dp1097
sg71
g847
sg64
(lp1098
g57
(g78
g59
NtRp1099
(dp1100
g62
(dp1101
g82
g83
ssg71
g1095
sg64
(lp1102
S'http_accept_language'
p1103
asbag57
(g78
g59
NtRp1104
(dp1105
g62
(dp1106
g89
g90
ssg71
g1095
sg64
(lp1107
S':'
asbag57
(g78
g59
NtRp1108
(dp1109
g62
(dp1110
sg71
g1095
sg64
(lp1111
g57
(g58
g59
NtRp1112
(dp1113
g62
(dp1114
g70
I4
ssg71
g1108
sg64
(lp1115
S'en-us,en;q=0.5'
p1116
asbasbasbag57
(g73
g59
NtRp1117
(dp1118
g62
(dp1119
sg71
g847
sg64
(lp1120
g57
(g78
g59
NtRp1121
(dp1122
g62
(dp1123
g82
g83
ssg71
g1117
sg64
(lp1124
S'http_cache_control'
p1125
asbag57
(g78
g59
NtRp1126
(dp1127
g62
(dp1128
g89
g90
ssg71
g1117
sg64
(lp1129
S':'
asbag57
(g78
g59
NtRp1130
(dp1131
g62
(dp1132
sg71
g1117
sg64
(lp1133
g57
(g58
g59
NtRp1134
(dp1135
g62
(dp1136
g70
I4
ssg71
g1130
sg64
(lp1137
S'max-age=0'
p1138
asbasbasbag57
(g73
g59
NtRp1139
(dp1140
g62
(dp1141
sg71
g847
sg64
(lp1142
g57
(g78
g59
NtRp1143
(dp1144
g62
(dp1145
g82
g83
ssg71
g1139
sg64
(lp1146
S'http_connection'
p1147
asbag57
(g78
g59
NtRp1148
(dp1149
g62
(dp1150
g89
g90
ssg71
g1139
sg64
(lp1151
S':'
asbag57
(g78
g59
NtRp1152
(dp1153
g62
(dp1154
sg71
g1139
sg64
(lp1155
g57
(g58
g59
NtRp1156
(dp1157
g62
(dp1158
g70
I4
ssg71
g1152
sg64
(lp1159
S'keep-alive'
p1160
asbasbasbag57
(g73
g59
NtRp1161
(dp1162
g62
(dp1163
sg71
g847
sg64
(lp1164
g57
(g78
g59
NtRp1165
(dp1166
g62
(dp1167
g82
g83
ssg71
g1161
sg64
(lp1168
S'http_content_length'
p1169
asbag57
(g78
g59
NtRp1170
(dp1171
g62
(dp1172
g89
g90
ssg71
g1161
sg64
(lp1173
S':'
asbag57
(g78
g59
NtRp1174
(dp1175
g62
(dp1176
sg71
g1161
sg64
(lp1177
g57
(g58
g59
NtRp1178
(dp1179
g62
(dp1180
g70
I4
ssg71
g1174
sg64
(lp1181
g963
asbasbasbag57
(g73
g59
NtRp1182
(dp1183
g62
(dp1184
sg71
g847
sg64
(lp1185
g57
(g78
g59
NtRp1186
(dp1187
g62
(dp1188
g82
g83
ssg71
g1182
sg64
(lp1189
S'http_content_type'
p1190
asbag57
(g78
g59
NtRp1191
(dp1192
g62
(dp1193
g89
g90
ssg71
g1182
sg64
(lp1194
S':'
asbag57
(g78
g59
NtRp1195
(dp1196
g62
(dp1197
sg71
g1182
sg64
(lp1198
g57
(g58
g59
NtRp1199
(dp1200
g62
(dp1201
g70
I4
ssg71
g1195
sg64
(lp1202
g985
asbasbasbag57
(g73
g59
NtRp1203
(dp1204
g62
(dp1205
sg71
g847
sg64
(lp1206
g57
(g78
g59
NtRp1207
(dp1208
g62
(dp1209
g82
g83
ssg71
g1203
sg64
(lp1210
S'http_cookie'
p1211
asbag57
(g78
g59
NtRp1212
(dp1213
g62
(dp1214
g89
g90
ssg71
g1203
sg64
(lp1215
S':'
asbag57
(g78
g59
NtRp1216
(dp1217
g62
(dp1218
sg71
g1203
sg64
(lp1219
g57
(g58
g59
NtRp1220
(dp1221
g62
(dp1222
g70
I4
ssg71
g1216
sg64
(lp1223
S'session_id_welcome=127.0.0.1-ba62dd43-4fa4-46ec-81cf-21a51b98f97c; session_id_admin=127.0.0.1-e4406933-fbbc-419d-9d7d-f4f1405427ef; session_id_gogreen_motors_2=127.0.0.1-ab57762a-d3ab-493d-b392-b6f6f290162c'
p1224
asbasbasbag57
(g73
g59
NtRp1225
(dp1226
g62
(dp1227
sg71
g847
sg64
(lp1228
g57
(g78
g59
NtRp1229
(dp1230
g62
(dp1231
g82
g83
ssg71
g1225
sg64
(lp1232
S'http_host'
p1233
asbag57
(g78
g59
NtRp1234
(dp1235
g62
(dp1236
g89
g90
ssg71
g1225
sg64
(lp1237
S':'
asbag57
(g78
g59
NtRp1238
(dp1239
g62
(dp1240
sg71
g1225
sg64
(lp1241
g57
(g58
g59
NtRp1242
(dp1243
g62
(dp1244
g70
I4
ssg71
g1238
sg64
(lp1245
S'127.0.0.1:8000'
p1246
asbasbasbag57
(g73
g59
NtRp1247
(dp1248
g62
(dp1249
sg71
g847
sg64
(lp1250
g57
(g78
g59
NtRp1251
(dp1252
g62
(dp1253
g82
g83
ssg71
g1247
sg64
(lp1254
S'http_referer'
p1255
asbag57
(g78
g59
NtRp1256
(dp1257
g62
(dp1258
g89
g90
ssg71
g1247
sg64
(lp1259
S':'
asbag57
(g78
g59
NtRp1260
(dp1261
g62
(dp1262
sg71
g1247
sg64
(lp1263
g57
(g58
g59
NtRp1264
(dp1265
g62
(dp1266
g70
I4
ssg71
g1260
sg64
(lp1267
S'http://127.0.0.1:8000/GoGreen_Motors_2/default/sell_bike'
p1268
asbasbasbag57
(g73
g59
NtRp1269
(dp1270
g62
(dp1271
sg71
g847
sg64
(lp1272
g57
(g78
g59
NtRp1273
(dp1274
g62
(dp1275
g82
g83
ssg71
g1269
sg64
(lp1276
S'http_user_agent'
p1277
asbag57
(g78
g59
NtRp1278
(dp1279
g62
(dp1280
g89
g90
ssg71
g1269
sg64
(lp1281
S':'
asbag57
(g78
g59
NtRp1282
(dp1283
g62
(dp1284
sg71
g1269
sg64
(lp1285
g57
(g58
g59
NtRp1286
(dp1287
g62
(dp1288
g70
I4
ssg71
g1282
sg64
(lp1289
S'Mozilla/5.0 (X11; Ubuntu; Linux x86_64; rv:11.0) Gecko/20100101 Firefox/11.0'
p1290
asbasbasbag57
(g73
g59
NtRp1291
(dp1292
g62
(dp1293
sg71
g847
sg64
(lp1294
g57
(g78
g59
NtRp1295
(dp1296
g62
(dp1297
g82
g83
ssg71
g1291
sg64
(lp1298
S'is_jython'
p1299
asbag57
(g78
g59
NtRp1300
(dp1301
g62
(dp1302
g89
g90
ssg71
g1291
sg64
(lp1303
S':'
asbag57
(g78
g59
NtRp1304
(dp1305
g62
(dp1306
sg71
g1291
sg64
(lp1307
g57
(g58
g59
NtRp1308
(dp1309
g62
(dp1310
g70
I4
ssg71
g1304
sg64
(lp1311
g100
asbasbasbag57
(g73
g59
NtRp1312
(dp1313
g62
(dp1314
sg71
g847
sg64
(lp1315
g57
(g78
g59
NtRp1316
(dp1317
g62
(dp1318
g82
g83
ssg71
g1312
sg64
(lp1319
S'is_pypy'
p1320
asbag57
(g78
g59
NtRp1321
(dp1322
g62
(dp1323
g89
g90
ssg71
g1312
sg64
(lp1324
S':'
asbag57
(g78
g59
NtRp1325
(dp1326
g62
(dp1327
sg71
g1312
sg64
(lp1328
g57
(g58
g59
NtRp1329
(dp1330
g62
(dp1331
g70
I4
ssg71
g1325
sg64
(lp1332
g100
asbasbasbag57
(g73
g59
NtRp1333
(dp1334
g62
(dp1335
sg71
g847
sg64
(lp1336
g57
(g78
g59
NtRp1337
(dp1338
g62
(dp1339
g82
g83
ssg71
g1333
sg64
(lp1340
S'local_hosts'
p1341
asbag57
(g78
g59
NtRp1342
(dp1343
g62
(dp1344
g89
g90
ssg71
g1333
sg64
(lp1345
S':'
asbag57
(g78
g59
NtRp1346
(dp1347
g62
(dp1348
sg71
g1333
sg64
(lp1349
g57
(g58
g59
NtRp1350
(dp1351
g62
(dp1352
g70
I4
ssg71
g1346
sg64
(lp1353
g57
(g66
g59
NtRp1354
(dp1355
g62
(dp1356
g70
I3
ssg71
Nsg64
(lp1357
g57
(g73
g59
NtRp1358
(dp1359
g62
(dp1360
sg71
g1354
sg64
(lp1361
g57
(g78
g59
NtRp1362
(dp1363
g62
(dp1364
sg71
g1358
sg64
(lp1365
g57
(g58
g59
NtRp1366
(dp1367
g62
(dp1368
g70
I3
ssg71
g1362
sg64
(lp1369
S'::1'
p1370
asbasbasbag57
(g73
g59
NtRp1371
(dp1372
g62
(dp1373
sg71
g1354
sg64
(lp1374
g57
(g78
g59
NtRp1375
(dp1376
g62
(dp1377
sg71
g1371
sg64
(lp1378
g57
(g58
g59
NtRp1379
(dp1380
g62
(dp1381
g70
I3
ssg71
g1375
sg64
(lp1382
S'127.0.1.1'
p1383
asbasbasbag57
(g73
g59
NtRp1384
(dp1385
g62
(dp1386
sg71
g1354
sg64
(lp1387
g57
(g78
g59
NtRp1388
(dp1389
g62
(dp1390
sg71
g1384
sg64
(lp1391
g57
(g58
g59
NtRp1392
(dp1393
g62
(dp1394
g70
I3
ssg71
g1388
sg64
(lp1395
S'::ffff:127.0.0.1'
p1396
asbasbasbag57
(g73
g59
NtRp1397
(dp1398
g62
(dp1399
sg71
g1354
sg64
(lp1400
g57
(g78
g59
NtRp1401
(dp1402
g62
(dp1403
sg71
g1397
sg64
(lp1404
g57
(g58
g59
NtRp1405
(dp1406
g62
(dp1407
g70
I3
ssg71
g1401
sg64
(lp1408
S'127.0.0.1'
p1409
asbasbasbag57
(g73
g59
NtRp1410
(dp1411
g62
(dp1412
sg71
g1354
sg64
(lp1413
g57
(g78
g59
NtRp1414
(dp1415
g62
(dp1416
sg71
g1410
sg64
(lp1417
g57
(g58
g59
NtRp1418
(dp1419
g62
(dp1420
g70
I3
ssg71
g1414
sg64
(lp1421
S'urvashi-VPCEH35EN'
p1422
asbasbasbasbasbasbasbag57
(g73
g59
NtRp1423
(dp1424
g62
(dp1425
sg71
g847
sg64
(lp1426
g57
(g78
g59
NtRp1427
(dp1428
g62
(dp1429
g82
g83
ssg71
g1423
sg64
(lp1430
S'path_info'
p1431
asbag57
(g78
g59
NtRp1432
(dp1433
g62
(dp1434
g89
g90
ssg71
g1423
sg64
(lp1435
S':'
asbag57
(g78
g59
NtRp1436
(dp1437
g62
(dp1438
sg71
g1423
sg64
(lp1439
g57
(g58
g59
NtRp1440
(dp1441
g62
(dp1442
g70
I4
ssg71
g1436
sg64
(lp1443
S'/GoGreen_Motors_2/default/sell_bike'
p1444
asbasbasbag57
(g73
g59
NtRp1445
(dp1446
g62
(dp1447
sg71
g847
sg64
(lp1448
g57
(g78
g59
NtRp1449
(dp1450
g62
(dp1451
g82
g83
ssg71
g1445
sg64
(lp1452
S'query_string'
p1453
asbag57
(g78
g59
NtRp1454
(dp1455
g62
(dp1456
g89
g90
ssg71
g1445
sg64
(lp1457
S':'
asbag57
(g78
g59
NtRp1458
(dp1459
g62
(dp1460
sg71
g1445
sg64
(lp1461
g57
(g58
g59
NtRp1462
(dp1463
g62
(dp1464
g70
I4
ssg71
g1458
sg64
(lp1465
S''
asbasbasbag57
(g73
g59
NtRp1466
(dp1467
g62
(dp1468
sg71
g847
sg64
(lp1469
g57
(g78
g59
NtRp1470
(dp1471
g62
(dp1472
g82
g83
ssg71
g1466
sg64
(lp1473
S'remote_addr'
p1474
asbag57
(g78
g59
NtRp1475
(dp1476
g62
(dp1477
g89
g90
ssg71
g1466
sg64
(lp1478
S':'
asbag57
(g78
g59
NtRp1479
(dp1480
g62
(dp1481
sg71
g1466
sg64
(lp1482
g57
(g58
g59
NtRp1483
(dp1484
g62
(dp1485
g70
I4
ssg71
g1479
sg64
(lp1486
g212
asbasbasbag57
(g73
g59
NtRp1487
(dp1488
g62
(dp1489
sg71
g847
sg64
(lp1490
g57
(g78
g59
NtRp1491
(dp1492
g62
(dp1493
g82
g83
ssg71
g1487
sg64
(lp1494
S'remote_port'
p1495
asbag57
(g78
g59
NtRp1496
(dp1497
g62
(dp1498
g89
g90
ssg71
g1487
sg64
(lp1499
S':'
asbag57
(g78
g59
NtRp1500
(dp1501
g62
(dp1502
sg71
g1487
sg64
(lp1503
g57
(g58
g59
NtRp1504
(dp1505
g62
(dp1506
g70
I4
ssg71
g1500
sg64
(lp1507
S'56592'
p1508
asbasbasbag57
(g73
g59
NtRp1509
(dp1510
g62
(dp1511
sg71
g847
sg64
(lp1512
g57
(g78
g59
NtRp1513
(dp1514
g62
(dp1515
g82
g83
ssg71
g1509
sg64
(lp1516
S'request_method'
p1517
asbag57
(g78
g59
NtRp1518
(dp1519
g62
(dp1520
g89
g90
ssg71
g1509
sg64
(lp1521
S':'
asbag57
(g78
g59
NtRp1522
(dp1523
g62
(dp1524
sg71
g1509
sg64
(lp1525
g57
(g58
g59
NtRp1526
(dp1527
g62
(dp1528
g70
I4
ssg71
g1522
sg64
(lp1529
S'POST'
p1530
asbasbasbag57
(g73
g59
NtRp1531
(dp1532
g62
(dp1533
sg71
g847
sg64
(lp1534
g57
(g78
g59
NtRp1535
(dp1536
g62
(dp1537
g82
g83
ssg71
g1531
sg64
(lp1538
S'request_uri'
p1539
asbag57
(g78
g59
NtRp1540
(dp1541
g62
(dp1542
g89
g90
ssg71
g1531
sg64
(lp1543
S':'
asbag57
(g78
g59
NtRp1544
(dp1545
g62
(dp1546
sg71
g1531
sg64
(lp1547
g57
(g58
g59
NtRp1548
(dp1549
g62
(dp1550
g70
I4
ssg71
g1544
sg64
(lp1551
g1444
asbasbasbag57
(g73
g59
NtRp1552
(dp1553
g62
(dp1554
sg71
g847
sg64
(lp1555
g57
(g78
g59
NtRp1556
(dp1557
g62
(dp1558
g82
g83
ssg71
g1552
sg64
(lp1559
S'script_name'
p1560
asbag57
(g78
g59
NtRp1561
(dp1562
g62
(dp1563
g89
g90
ssg71
g1552
sg64
(lp1564
S':'
asbag57
(g78
g59
NtRp1565
(dp1566
g62
(dp1567
sg71
g1552
sg64
(lp1568
g57
(g58
g59
NtRp1569
(dp1570
g62
(dp1571
g70
I4
ssg71
g1565
sg64
(lp1572
S''
asbasbasbag57
(g73
g59
NtRp1573
(dp1574
g62
(dp1575
sg71
g847
sg64
(lp1576
g57
(g78
g59
NtRp1577
(dp1578
g62
(dp1579
g82
g83
ssg71
g1573
sg64
(lp1580
S'server_name'
p1581
asbag57
(g78
g59
NtRp1582
(dp1583
g62
(dp1584
g89
g90
ssg71
g1573
sg64
(lp1585
S':'
asbag57
(g78
g59
NtRp1586
(dp1587
g62
(dp1588
sg71
g1573
sg64
(lp1589
g57
(g58
g59
NtRp1590
(dp1591
g62
(dp1592
g70
I4
ssg71
g1586
sg64
(lp1593
S'urvashi-VPCEH35EN'
p1594
asbasbasbag57
(g73
g59
NtRp1595
(dp1596
g62
(dp1597
sg71
g847
sg64
(lp1598
g57
(g78
g59
NtRp1599
(dp1600
g62
(dp1601
g82
g83
ssg71
g1595
sg64
(lp1602
S'server_port'
p1603
asbag57
(g78
g59
NtRp1604
(dp1605
g62
(dp1606
g89
g90
ssg71
g1595
sg64
(lp1607
S':'
asbag57
(g78
g59
NtRp1608
(dp1609
g62
(dp1610
sg71
g1595
sg64
(lp1611
g57
(g58
g59
NtRp1612
(dp1613
g62
(dp1614
g70
I4
ssg71
g1608
sg64
(lp1615
S'8000'
p1616
asbasbasbag57
(g73
g59
NtRp1617
(dp1618
g62
(dp1619
sg71
g847
sg64
(lp1620
g57
(g78
g59
NtRp1621
(dp1622
g62
(dp1623
g82
g83
ssg71
g1617
sg64
(lp1624
S'server_protocol'
p1625
asbag57
(g78
g59
NtRp1626
(dp1627
g62
(dp1628
g89
g90
ssg71
g1617
sg64
(lp1629
S':'
asbag57
(g78
g59
NtRp1630
(dp1631
g62
(dp1632
sg71
g1617
sg64
(lp1633
g57
(g58
g59
NtRp1634
(dp1635
g62
(dp1636
g70
I4
ssg71
g1630
sg64
(lp1637
S'HTTP/1.1'
p1638
asbasbasbag57
(g73
g59
NtRp1639
(dp1640
g62
(dp1641
sg71
g847
sg64
(lp1642
g57
(g78
g59
NtRp1643
(dp1644
g62
(dp1645
g82
g83
ssg71
g1639
sg64
(lp1646
S'server_software'
p1647
asbag57
(g78
g59
NtRp1648
(dp1649
g62
(dp1650
g89
g90
ssg71
g1639
sg64
(lp1651
S':'
asbag57
(g78
g59
NtRp1652
(dp1653
g62
(dp1654
sg71
g1639
sg64
(lp1655
g57
(g58
g59
NtRp1656
(dp1657
g62
(dp1658
g70
I4
ssg71
g1652
sg64
(lp1659
S'Rocket 1.2.6'
p1660
asbasbasbag57
(g73
g59
NtRp1661
(dp1662
g62
(dp1663
sg71
g847
sg64
(lp1664
g57
(g78
g59
NtRp1665
(dp1666
g62
(dp1667
g82
g83
ssg71
g1661
sg64
(lp1668
S'web2py_path'
p1669
asbag57
(g78
g59
NtRp1670
(dp1671
g62
(dp1672
g89
g90
ssg71
g1661
sg64
(lp1673
S':'
asbag57
(g78
g59
NtRp1674
(dp1675
g62
(dp1676
sg71
g1661
sg64
(lp1677
g57
(g58
g59
NtRp1678
(dp1679
g62
(dp1680
g70
I4
ssg71
g1674
sg64
(lp1681
g894
asbasbasbag57
(g73
g59
NtRp1682
(dp1683
g62
(dp1684
sg71
g847
sg64
(lp1685
g57
(g78
g59
NtRp1686
(dp1687
g62
(dp1688
g82
g83
ssg71
g1682
sg64
(lp1689
S'web2py_version'
p1690
asbag57
(g78
g59
NtRp1691
(dp1692
g62
(dp1693
g89
g90
ssg71
g1682
sg64
(lp1694
S':'
asbag57
(g78
g59
NtRp1695
(dp1696
g62
(dp1697
sg71
g1682
sg64
(lp1698
g57
(g58
g59
NtRp1699
(dp1700
g62
(dp1701
g70
I4
ssg71
g1695
sg64
(lp1702
g57
(g66
g59
NtRp1703
(dp1704
g62
(dp1705
g70
I3
ssg71
Nsg64
(lp1706
g57
(g73
g59
NtRp1707
(dp1708
g62
(dp1709
sg71
g1703
sg64
(lp1710
g57
(g78
g59
NtRp1711
(dp1712
g62
(dp1713
sg71
g1707
sg64
(lp1714
g57
(g58
g59
NtRp1715
(dp1716
g62
(dp1717
g70
I3
ssg71
g1711
sg64
(lp1718
S'2'
asbasbasbag57
(g73
g59
NtRp1719
(dp1720
g62
(dp1721
sg71
g1703
sg64
(lp1722
g57
(g78
g59
NtRp1723
(dp1724
g62
(dp1725
sg71
g1719
sg64
(lp1726
g57
(g58
g59
NtRp1727
(dp1728
g62
(dp1729
g70
I3
ssg71
g1723
sg64
(lp1730
S'3'
asbasbasbag57
(g73
g59
NtRp1731
(dp1732
g62
(dp1733
sg71
g1703
sg64
(lp1734
g57
(g78
g59
NtRp1735
(dp1736
g62
(dp1737
sg71
g1731
sg64
(lp1738
g57
(g58
g59
NtRp1739
(dp1740
g62
(dp1741
g70
I3
ssg71
g1735
sg64
(lp1742
S'2'
asbasbasbag57
(g73
g59
NtRp1743
(dp1744
g62
(dp1745
sg71
g1703
sg64
(lp1746
g57
(g78
g59
NtRp1747
(dp1748
g62
(dp1749
sg71
g1743
sg64
(lp1750
g57
(g58
g59
NtRp1751
(dp1752
g62
(dp1753
g70
I3
ssg71
g1747
sg64
(lp1754
S'datetime.datetime(2012, 12, 17, 15, 3, 30)'
p1755
asbasbasbag57
(g73
g59
NtRp1756
(dp1757
g62
(dp1758
sg71
g1703
sg64
(lp1759
g57
(g78
g59
NtRp1760
(dp1761
g62
(dp1762
sg71
g1756
sg64
(lp1763
g57
(g58
g59
NtRp1764
(dp1765
g62
(dp1766
g70
I3
ssg71
g1760
sg64
(lp1767
S'stable'
p1768
asbasbasbasbasbasbasbag57
(g73
g59
NtRp1769
(dp1770
g62
(dp1771
sg71
g847
sg64
(lp1772
g57
(g78
g59
NtRp1773
(dp1774
g62
(dp1775
g82
g83
ssg71
g1769
sg64
(lp1776
S'wsgi_errors'
p1777
asbag57
(g78
g59
NtRp1778
(dp1779
g62
(dp1780
g89
g90
ssg71
g1769
sg64
(lp1781
S':'
asbag57
(g78
g59
NtRp1782
(dp1783
g62
(dp1784
sg71
g1769
sg64
(lp1785
g57
(g58
g59
NtRp1786
(dp1787
g62
(dp1788
g70
I4
ssg71
g1782
sg64
(lp1789
S"<open file '<stderr>', mode 'w' at 0x7fb147dd8270>"
p1790
asbasbasbag57
(g73
g59
NtRp1791
(dp1792
g62
(dp1793
sg71
g847
sg64
(lp1794
g57
(g78
g59
NtRp1795
(dp1796
g62
(dp1797
g82
g83
ssg71
g1791
sg64
(lp1798
S'wsgi_file_wrapper'
p1799
asbag57
(g78
g59
NtRp1800
(dp1801
g62
(dp1802
g89
g90
ssg71
g1791
sg64
(lp1803
S':'
asbag57
(g78
g59
NtRp1804
(dp1805
g62
(dp1806
sg71
g1791
sg64
(lp1807
g57
(g58
g59
NtRp1808
(dp1809
g62
(dp1810
g70
I4
ssg71
g1804
sg64
(lp1811
S'<class wsgiref.util.FileWrapper at 0x2e38b48>'
p1812
asbasbasbag57
(g73
g59
NtRp1813
(dp1814
g62
(dp1815
sg71
g847
sg64
(lp1816
g57
(g78
g59
NtRp1817
(dp1818
g62
(dp1819
g82
g83
ssg71
g1813
sg64
(lp1820
S'wsgi_input'
p1821
asbag57
(g78
g59
NtRp1822
(dp1823
g62
(dp1824
g89
g90
ssg71
g1813
sg64
(lp1825
S':'
asbag57
(g78
g59
NtRp1826
(dp1827
g62
(dp1828
sg71
g1813
sg64
(lp1829
g57
(g58
g59
NtRp1830
(dp1831
g62
(dp1832
g70
I4
ssg71
g1826
sg64
(lp1833
S'<socket._fileobject object at 0x7fb1181109d0>'
p1834
asbasbasbag57
(g73
g59
NtRp1835
(dp1836
g62
(dp1837
sg71
g847
sg64
(lp1838
g57
(g78
g59
NtRp1839
(dp1840
g62
(dp1841
g82
g83
ssg71
g1835
sg64
(lp1842
S'wsgi_multiprocess'
p1843
asbag57
(g78
g59
NtRp1844
(dp1845
g62
(dp1846
g89
g90
ssg71
g1835
sg64
(lp1847
S':'
asbag57
(g78
g59
NtRp1848
(dp1849
g62
(dp1850
sg71
g1835
sg64
(lp1851
g57
(g58
g59
NtRp1852
(dp1853
g62
(dp1854
g70
I4
ssg71
g1848
sg64
(lp1855
g100
asbasbasbag57
(g73
g59
NtRp1856
(dp1857
g62
(dp1858
sg71
g847
sg64
(lp1859
g57
(g78
g59
NtRp1860
(dp1861
g62
(dp1862
g82
g83
ssg71
g1856
sg64
(lp1863
S'wsgi_multithread'
p1864
asbag57
(g78
g59
NtRp1865
(dp1866
g62
(dp1867
g89
g90
ssg71
g1856
sg64
(lp1868
S':'
asbag57
(g78
g59
NtRp1869
(dp1870
g62
(dp1871
sg71
g1856
sg64
(lp1872
g57
(g58
g59
NtRp1873
(dp1874
g62
(dp1875
g70
I4
ssg71
g1869
sg64
(lp1876
S'True'
p1877
asbasbasbag57
(g73
g59
NtRp1878
(dp1879
g62
(dp1880
sg71
g847
sg64
(lp1881
g57
(g78
g59
NtRp1882
(dp1883
g62
(dp1884
g82
g83
ssg71
g1878
sg64
(lp1885
S'wsgi_run_once'
p1886
asbag57
(g78
g59
NtRp1887
(dp1888
g62
(dp1889
g89
g90
ssg71
g1878
sg64
(lp1890
S':'
asbag57
(g78
g59
NtRp1891
(dp1892
g62
(dp1893
sg71
g1878
sg64
(lp1894
g57
(g58
g59
NtRp1895
(dp1896
g62
(dp1897
g70
I4
ssg71
g1891
sg64
(lp1898
g100
asbasbasbag57
(g73
g59
NtRp1899
(dp1900
g62
(dp1901
sg71
g847
sg64
(lp1902
g57
(g78
g59
NtRp1903
(dp1904
g62
(dp1905
g82
g83
ssg71
g1899
sg64
(lp1906
S'wsgi_url_scheme'
p1907
asbag57
(g78
g59
NtRp1908
(dp1909
g62
(dp1910
g89
g90
ssg71
g1899
sg64
(lp1911
S':'
asbag57
(g78
g59
NtRp1912
(dp1913
g62
(dp1914
sg71
g1899
sg64
(lp1915
g57
(g58
g59
NtRp1916
(dp1917
g62
(dp1918
g70
I4
ssg71
g1912
sg64
(lp1919
S'http'
p1920
asbasbasbag57
(g73
g59
NtRp1921
(dp1922
g62
(dp1923
sg71
g847
sg64
(lp1924
g57
(g78
g59
NtRp1925
(dp1926
g62
(dp1927
g82
g83
ssg71
g1921
sg64
(lp1928
S'wsgi_version'
p1929
asbag57
(g78
g59
NtRp1930
(dp1931
g62
(dp1932
g89
g90
ssg71
g1921
sg64
(lp1933
S':'
asbag57
(g78
g59
NtRp1934
(dp1935
g62
(dp1936
sg71
g1921
sg64
(lp1937
g57
(g58
g59
NtRp1938
(dp1939
g62
(dp1940
g70
I4
ssg71
g1934
sg64
(lp1941
g57
(g66
g59
NtRp1942
(dp1943
g62
(dp1944
g70
I3
ssg71
Nsg64
(lp1945
g57
(g73
g59
NtRp1946
(dp1947
g62
(dp1948
sg71
g1942
sg64
(lp1949
g57
(g78
g59
NtRp1950
(dp1951
g62
(dp1952
sg71
g1946
sg64
(lp1953
g57
(g58
g59
NtRp1954
(dp1955
g62
(dp1956
g70
I3
ssg71
g1950
sg64
(lp1957
S'1'
asbasbasbag57
(g73
g59
NtRp1958
(dp1959
g62
(dp1960
sg71
g1942
sg64
(lp1961
g57
(g78
g59
NtRp1962
(dp1963
g62
(dp1964
sg71
g1958
sg64
(lp1965
g57
(g58
g59
NtRp1966
(dp1967
g62
(dp1968
g70
I3
ssg71
g1962
sg64
(lp1969
S'0'
asbasbasbasbasbasbasbasbasbasbasbag57
(g73
g59
NtRp1970
(dp1971
g62
(dp1972
sg71
g67
sg64
(lp1973
g57
(g78
g59
NtRp1974
(dp1975
g62
(dp1976
g82
g83
ssg71
g1970
sg64
(lp1977
S'extension'
p1978
asbag57
(g78
g59
NtRp1979
(dp1980
g62
(dp1981
g89
g90
ssg71
g1970
sg64
(lp1982
S':'
asbag57
(g78
g59
NtRp1983
(dp1984
g62
(dp1985
sg71
g1970
sg64
(lp1986
g57
(g58
g59
NtRp1987
(dp1988
g62
(dp1989
g70
I5
ssg71
g1983
sg64
(lp1990
S'html'
p1991
asbasbasbag57
(g73
g59
NtRp1992
(dp1993
g62
(dp1994
sg71
g67
sg64
(lp1995
g57
(g78
g59
NtRp1996
(dp1997
g62
(dp1998
g82
g83
ssg71
g1992
sg64
(lp1999
S'folder'
p2000
asbag57
(g78
g59
NtRp2001
(dp2002
g62
(dp2003
g89
g90
ssg71
g1992
sg64
(lp2004
S':'
asbag57
(g78
g59
NtRp2005
(dp2006
g62
(dp2007
sg71
g1992
sg64
(lp2008
g57
(g58
g59
NtRp2009
(dp2010
g62
(dp2011
g70
I5
ssg71
g2005
sg64
(lp2012
S'/home/urvashi/Desktop/WEB2PY/web2py/applications/GoGreen_Motors_2/'
p2013
asbasbasbag57
(g73
g59
NtRp2014
(dp2015
g62
(dp2016
sg71
g67
sg64
(lp2017
g57
(g78
g59
NtRp2018
(dp2019
g62
(dp2020
g82
g83
ssg71
g2014
sg64
(lp2021
S'function'
p2022
asbag57
(g78
g59
NtRp2023
(dp2024
g62
(dp2025
g89
g90
ssg71
g2014
sg64
(lp2026
S':'
asbag57
(g78
g59
NtRp2027
(dp2028
g62
(dp2029
sg71
g2014
sg64
(lp2030
g57
(g58
g59
NtRp2031
(dp2032
g62
(dp2033
g70
I5
ssg71
g2027
sg64
(lp2034
S'sell_bike'
p2035
asbasbasbag57
(g73
g59
NtRp2036
(dp2037
g62
(dp2038
sg71
g67
sg64
(lp2039
g57
(g78
g59
NtRp2040
(dp2041
g62
(dp2042
g82
g83
ssg71
g2036
sg64
(lp2043
S'get_vars'
p2044
asbag57
(g78
g59
NtRp2045
(dp2046
g62
(dp2047
g89
g90
ssg71
g2036
sg64
(lp2048
S':'
asbag57
(g78
g59
NtRp2049
(dp2050
g62
(dp2051
sg71
g2036
sg64
(lp2052
g57
(g58
g59
NtRp2053
(dp2054
g62
(dp2055
g70
I5
ssg71
g2049
sg64
(lp2056
g57
(g66
g59
NtRp2057
(dp2058
g62
(dp2059
g70
I4
ssg71
Nsg64
(lp2060
sbasbasbasbag57
(g73
g59
NtRp2061
(dp2062
g62
(dp2063
sg71
g67
sg64
(lp2064
g57
(g78
g59
NtRp2065
(dp2066
g62
(dp2067
g82
g83
ssg71
g2061
sg64
(lp2068
S'global_settings'
p2069
asbag57
(g78
g59
NtRp2070
(dp2071
g62
(dp2072
g89
g90
ssg71
g2061
sg64
(lp2073
S':'
asbag57
(g78
g59
NtRp2074
(dp2075
g62
(dp2076
sg71
g2061
sg64
(lp2077
g57
(g58
g59
NtRp2078
(dp2079
g62
(dp2080
g70
I5
ssg71
g2074
sg64
(lp2081
g57
(g66
g59
NtRp2082
(dp2083
g62
(dp2084
g70
I4
ssg71
Nsg64
(lp2085
g57
(g73
g59
NtRp2086
(dp2087
g62
(dp2088
sg71
g2082
sg64
(lp2089
g57
(g78
g59
NtRp2090
(dp2091
g62
(dp2092
g82
g83
ssg71
g2086
sg64
(lp2093
g859
asbag57
(g78
g59
NtRp2094
(dp2095
g62
(dp2096
g89
g90
ssg71
g2086
sg64
(lp2097
S':'
asbag57
(g78
g59
NtRp2098
(dp2099
g62
(dp2100
sg71
g2086
sg64
(lp2101
g57
(g58
g59
NtRp2102
(dp2103
g62
(dp2104
g70
I4
ssg71
g2098
sg64
(lp2105
S"set(['/home/urvashi/Desktop/WEB2PY/web2py/applications/admin/', '/home/urvashi/Desktop/WEB2PY/web2py/applications/welcome/', '/home/urvashi/Desktop/WEB2PY/web2py/applications/GoGreen_Motors_2/'])"
p2106
asbasbasbag57
(g73
g59
NtRp2107
(dp2108
g62
(dp2109
sg71
g2082
sg64
(lp2110
g57
(g78
g59
NtRp2111
(dp2112
g62
(dp2113
g82
g83
ssg71
g2107
sg64
(lp2114
g881
asbag57
(g78
g59
NtRp2115
(dp2116
g62
(dp2117
g89
g90
ssg71
g2107
sg64
(lp2118
S':'
asbag57
(g78
g59
NtRp2119
(dp2120
g62
(dp2121
sg71
g2107
sg64
(lp2122
g57
(g58
g59
NtRp2123
(dp2124
g62
(dp2125
g70
I4
ssg71
g2119
sg64
(lp2126
g894
asbasbasbag57
(g73
g59
NtRp2127
(dp2128
g62
(dp2129
sg71
g2082
sg64
(lp2130
g57
(g78
g59
NtRp2131
(dp2132
g62
(dp2133
g82
g83
ssg71
g2127
sg64
(lp2134
g903
asbag57
(g78
g59
NtRp2135
(dp2136
g62
(dp2137
g89
g90
ssg71
g2127
sg64
(lp2138
S':'
asbag57
(g78
g59
NtRp2139
(dp2140
g62
(dp2141
sg71
g2127
sg64
(lp2142
g57
(g58
g59
NtRp2143
(dp2144
g62
(dp2145
g70
I4
ssg71
g2139
sg64
(lp2146
g57
(g66
g59
NtRp2147
(dp2148
g62
(dp2149
g70
I3
ssg71
Nsg64
(lp2150
sbasbasbasbag57
(g73
g59
NtRp2151
(dp2152
g62
(dp2153
sg71
g2082
sg64
(lp2154
g57
(g78
g59
NtRp2155
(dp2156
g62
(dp2157
g82
g83
ssg71
g2151
sg64
(lp2158
g928
asbag57
(g78
g59
NtRp2159
(dp2160
g62
(dp2161
g89
g90
ssg71
g2151
sg64
(lp2162
S':'
asbag57
(g78
g59
NtRp2163
(dp2164
g62
(dp2165
sg71
g2151
sg64
(lp2166
g57
(g58
g59
NtRp2167
(dp2168
g62
(dp2169
g70
I4
ssg71
g2163
sg64
(lp2170
S"<Values at 0x327a2d8: {'verbose': False, 'ip': '127.0.0.1', 'with_scheduler': False, 'ips': [], 'shutdown_timeout': 5, 'taskbar': False, 'port': 8000, 'maxthreads': None, 'softcron': False, 'server_name': 'urvashi-VPCEH35EN', 'bpython': False, 'nogui': False, 'pid_filename': 'httpserver.pid', 'extcron': False, 'runcron': False, 'run_system_tests': False, 'test': None, 'folder': '/home/urvashi/Desktop/WEB2PY/web2py', 'config': '', 'minthreads': None, 'winservice': '', 'shell': None, 'run': '', 'log_filename': 'httpserver.log', 'debuglevel': 30, 'args': [''], 'socket_timeout': 5, 'ssl_ca_certificate': None, 'scheduler': None, 'profiler_filename': None, 'ssl_private_key': '', 'scheduler_groups': None, 'password': '123', 'request_queue_size': 5, 'ssl_certificate': '', 'cronjob': False, 'numthreads': None, 'quiet': False, 'interfaces': None, 'import_models': False, 'timeout': 10, 'plain': False, 'nobanner': False}>"
p2171
asbasbasbag57
(g73
g59
NtRp2172
(dp2173
g62
(dp2174
sg71
g2082
sg64
(lp2175
g57
(g78
g59
NtRp2176
(dp2177
g62
(dp2178
g82
g83
ssg71
g2172
sg64
(lp2179
g994
asbag57
(g78
g59
NtRp2180
(dp2181
g62
(dp2182
g89
g90
ssg71
g2172
sg64
(lp2183
S':'
asbag57
(g78
g59
NtRp2184
(dp2185
g62
(dp2186
sg71
g2172
sg64
(lp2187
g57
(g58
g59
NtRp2188
(dp2189
g62
(dp2190
g70
I4
ssg71
g2184
sg64
(lp2191
S'set([])'
p2192
asbasbasbag57
(g73
g59
NtRp2193
(dp2194
g62
(dp2195
sg71
g2082
sg64
(lp2196
g57
(g78
g59
NtRp2197
(dp2198
g62
(dp2199
g82
g83
ssg71
g2193
sg64
(lp2200
g1016
asbag57
(g78
g59
NtRp2201
(dp2202
g62
(dp2203
g89
g90
ssg71
g2193
sg64
(lp2204
S':'
asbag57
(g78
g59
NtRp2205
(dp2206
g62
(dp2207
sg71
g2193
sg64
(lp2208
g57
(g58
g59
NtRp2209
(dp2210
g62
(dp2211
g70
I4
ssg71
g2205
sg64
(lp2212
g100
asbasbasbag57
(g73
g59
NtRp2213
(dp2214
g62
(dp2215
sg71
g2082
sg64
(lp2216
g57
(g78
g59
NtRp2217
(dp2218
g62
(dp2219
g82
g83
ssg71
g2213
sg64
(lp2220
g1037
asbag57
(g78
g59
NtRp2221
(dp2222
g62
(dp2223
g89
g90
ssg71
g2213
sg64
(lp2224
S':'
asbag57
(g78
g59
NtRp2225
(dp2226
g62
(dp2227
sg71
g2213
sg64
(lp2228
g57
(g58
g59
NtRp2229
(dp2230
g62
(dp2231
g70
I4
ssg71
g2225
sg64
(lp2232
g1050
asbasbasbag57
(g73
g59
NtRp2233
(dp2234
g62
(dp2235
sg71
g2082
sg64
(lp2236
g57
(g78
g59
NtRp2237
(dp2238
g62
(dp2239
g82
g83
ssg71
g2233
sg64
(lp2240
g1299
asbag57
(g78
g59
NtRp2241
(dp2242
g62
(dp2243
g89
g90
ssg71
g2233
sg64
(lp2244
S':'
asbag57
(g78
g59
NtRp2245
(dp2246
g62
(dp2247
sg71
g2233
sg64
(lp2248
g57
(g58
g59
NtRp2249
(dp2250
g62
(dp2251
g70
I4
ssg71
g2245
sg64
(lp2252
g100
asbasbasbag57
(g73
g59
NtRp2253
(dp2254
g62
(dp2255
sg71
g2082
sg64
(lp2256
g57
(g78
g59
NtRp2257
(dp2258
g62
(dp2259
g82
g83
ssg71
g2253
sg64
(lp2260
g1320
asbag57
(g78
g59
NtRp2261
(dp2262
g62
(dp2263
g89
g90
ssg71
g2253
sg64
(lp2264
S':'
asbag57
(g78
g59
NtRp2265
(dp2266
g62
(dp2267
sg71
g2253
sg64
(lp2268
g57
(g58
g59
NtRp2269
(dp2270
g62
(dp2271
g70
I4
ssg71
g2265
sg64
(lp2272
g100
asbasbasbag57
(g73
g59
NtRp2273
(dp2274
g62
(dp2275
sg71
g2082
sg64
(lp2276
g57
(g78
g59
NtRp2277
(dp2278
g62
(dp2279
g82
g83
ssg71
g2273
sg64
(lp2280
g1341
asbag57
(g78
g59
NtRp2281
(dp2282
g62
(dp2283
g89
g90
ssg71
g2273
sg64
(lp2284
S':'
asbag57
(g78
g59
NtRp2285
(dp2286
g62
(dp2287
sg71
g2273
sg64
(lp2288
g57
(g58
g59
NtRp2289
(dp2290
g62
(dp2291
g70
I4
ssg71
g2285
sg64
(lp2292
g57
(g66
g59
NtRp2293
(dp2294
g62
(dp2295
g70
I3
ssg71
Nsg64
(lp2296
g57
(g73
g59
NtRp2297
(dp2298
g62
(dp2299
sg71
g2293
sg64
(lp2300
g57
(g78
g59
NtRp2301
(dp2302
g62
(dp2303
sg71
g2297
sg64
(lp2304
g57
(g58
g59
NtRp2305
(dp2306
g62
(dp2307
g70
I3
ssg71
g2301
sg64
(lp2308
g1370
asbasbasbag57
(g73
g59
NtRp2309
(dp2310
g62
(dp2311
sg71
g2293
sg64
(lp2312
g57
(g78
g59
NtRp2313
(dp2314
g62
(dp2315
sg71
g2309
sg64
(lp2316
g57
(g58
g59
NtRp2317
(dp2318
g62
(dp2319
g70
I3
ssg71
g2313
sg64
(lp2320
g1383
asbasbasbag57
(g73
g59
NtRp2321
(dp2322
g62
(dp2323
sg71
g2293
sg64
(lp2324
g57
(g78
g59
NtRp2325
(dp2326
g62
(dp2327
sg71
g2321
sg64
(lp2328
g57
(g58
g59
NtRp2329
(dp2330
g62
(dp2331
g70
I3
ssg71
g2325
sg64
(lp2332
g1396
asbasbasbag57
(g73
g59
NtRp2333
(dp2334
g62
(dp2335
sg71
g2293
sg64
(lp2336
g57
(g78
g59
NtRp2337
(dp2338
g62
(dp2339
sg71
g2333
sg64
(lp2340
g57
(g58
g59
NtRp2341
(dp2342
g62
(dp2343
g70
I3
ssg71
g2337
sg64
(lp2344
g1409
asbasbasbag57
(g73
g59
NtRp2345
(dp2346
g62
(dp2347
sg71
g2293
sg64
(lp2348
g57
(g78
g59
NtRp2349
(dp2350
g62
(dp2351
sg71
g2345
sg64
(lp2352
g57
(g58
g59
NtRp2353
(dp2354
g62
(dp2355
g70
I3
ssg71
g2349
sg64
(lp2356
g1422
asbasbasbasbasbasbasbag57
(g73
g59
NtRp2357
(dp2358
g62
(dp2359
sg71
g2082
sg64
(lp2360
g57
(g78
g59
NtRp2361
(dp2362
g62
(dp2363
g82
g83
ssg71
g2357
sg64
(lp2364
g1690
asbag57
(g78
g59
NtRp2365
(dp2366
g62
(dp2367
g89
g90
ssg71
g2357
sg64
(lp2368
S':'
asbag57
(g78
g59
NtRp2369
(dp2370
g62
(dp2371
sg71
g2357
sg64
(lp2372
g57
(g58
g59
NtRp2373
(dp2374
g62
(dp2375
g70
I4
ssg71
g2369
sg64
(lp2376
g57
(g66
g59
NtRp2377
(dp2378
g62
(dp2379
g70
I3
ssg71
Nsg64
(lp2380
g57
(g73
g59
NtRp2381
(dp2382
g62
(dp2383
sg71
g2377
sg64
(lp2384
g57
(g78
g59
NtRp2385
(dp2386
g62
(dp2387
sg71
g2381
sg64
(lp2388
g57
(g58
g59
NtRp2389
(dp2390
g62
(dp2391
g70
I3
ssg71
g2385
sg64
(lp2392
S'2'
asbasbasbag57
(g73
g59
NtRp2393
(dp2394
g62
(dp2395
sg71
g2377
sg64
(lp2396
g57
(g78
g59
NtRp2397
(dp2398
g62
(dp2399
sg71
g2393
sg64
(lp2400
g57
(g58
g59
NtRp2401
(dp2402
g62
(dp2403
g70
I3
ssg71
g2397
sg64
(lp2404
S'3'
asbasbasbag57
(g73
g59
NtRp2405
(dp2406
g62
(dp2407
sg71
g2377
sg64
(lp2408
g57
(g78
g59
NtRp2409
(dp2410
g62
(dp2411
sg71
g2405
sg64
(lp2412
g57
(g58
g59
NtRp2413
(dp2414
g62
(dp2415
g70
I3
ssg71
g2409
sg64
(lp2416
S'2'
asbasbasbag57
(g73
g59
NtRp2417
(dp2418
g62
(dp2419
sg71
g2377
sg64
(lp2420
g57
(g78
g59
NtRp2421
(dp2422
g62
(dp2423
sg71
g2417
sg64
(lp2424
g57
(g58
g59
NtRp2425
(dp2426
g62
(dp2427
g70
I3
ssg71
g2421
sg64
(lp2428
S'datetime.datetime(2012, 12, 17, 15, 3, 30)'
p2429
asbasbasbag57
(g73
g59
NtRp2430
(dp2431
g62
(dp2432
sg71
g2377
sg64
(lp2433
g57
(g78
g59
NtRp2434
(dp2435
g62
(dp2436
sg71
g2430
sg64
(lp2437
g57
(g58
g59
NtRp2438
(dp2439
g62
(dp2440
g70
I3
ssg71
g2434
sg64
(lp2441
g1768
asbasbasbasbasbasbasbasbasbasbasbag57
(g73
g59
NtRp2442
(dp2443
g62
(dp2444
sg71
g67
sg64
(lp2445
g57
(g78
g59
NtRp2446
(dp2447
g62
(dp2448
g82
g83
ssg71
g2442
sg64
(lp2449
S'is_https'
p2450
asbag57
(g78
g59
NtRp2451
(dp2452
g62
(dp2453
g89
g90
ssg71
g2442
sg64
(lp2454
S':'
asbag57
(g78
g59
NtRp2455
(dp2456
g62
(dp2457
sg71
g2442
sg64
(lp2458
g57
(g58
g59
NtRp2459
(dp2460
g62
(dp2461
g70
I5
ssg71
g2455
sg64
(lp2462
g100
asbasbasbag57
(g73
g59
NtRp2463
(dp2464
g62
(dp2465
sg71
g67
sg64
(lp2466
g57
(g78
g59
NtRp2467
(dp2468
g62
(dp2469
g82
g83
ssg71
g2463
sg64
(lp2470
S'is_local'
p2471
asbag57
(g78
g59
NtRp2472
(dp2473
g62
(dp2474
g89
g90
ssg71
g2463
sg64
(lp2475
S':'
asbag57
(g78
g59
NtRp2476
(dp2477
g62
(dp2478
sg71
g2463
sg64
(lp2479
g57
(g58
g59
NtRp2480
(dp2481
g62
(dp2482
g70
I5
ssg71
g2476
sg64
(lp2483
g1877
asbasbasbag57
(g73
g59
NtRp2484
(dp2485
g62
(dp2486
sg71
g67
sg64
(lp2487
g57
(g78
g59
NtRp2488
(dp2489
g62
(dp2490
g82
g83
ssg71
g2484
sg64
(lp2491
S'is_restful'
p2492
asbag57
(g78
g59
NtRp2493
(dp2494
g62
(dp2495
g89
g90
ssg71
g2484
sg64
(lp2496
S':'
asbag57
(g78
g59
NtRp2497
(dp2498
g62
(dp2499
sg71
g2484
sg64
(lp2500
g57
(g58
g59
NtRp2501
(dp2502
g62
(dp2503
g70
I5
ssg71
g2497
sg64
(lp2504
g100
asbasbasbag57
(g73
g59
NtRp2505
(dp2506
g62
(dp2507
sg71
g67
sg64
(lp2508
g57
(g78
g59
NtRp2509
(dp2510
g62
(dp2511
g82
g83
ssg71
g2505
sg64
(lp2512
S'now'
p2513
asbag57
(g78
g59
NtRp2514
(dp2515
g62
(dp2516
g89
g90
ssg71
g2505
sg64
(lp2517
S':'
asbag57
(g78
g59
NtRp2518
(dp2519
g62
(dp2520
sg71
g2505
sg64
(lp2521
g57
(g58
g59
NtRp2522
(dp2523
g62
(dp2524
g70
I5
ssg71
g2518
sg64
(lp2525
S'datetime.datetime(2013, 10, 23, 15, 40, 50, 126922)'
p2526
asbasbasbag57
(g73
g59
NtRp2527
(dp2528
g62
(dp2529
sg71
g67
sg64
(lp2530
g57
(g78
g59
NtRp2531
(dp2532
g62
(dp2533
g82
g83
ssg71
g2527
sg64
(lp2534
S'post_vars'
p2535
asbag57
(g78
g59
NtRp2536
(dp2537
g62
(dp2538
g89
g90
ssg71
g2527
sg64
(lp2539
S':'
asbag57
(g78
g59
NtRp2540
(dp2541
g62
(dp2542
sg71
g2527
sg64
(lp2543
g57
(g58
g59
NtRp2544
(dp2545
g62
(dp2546
g70
I5
ssg71
g2540
sg64
(lp2547
g57
(g66
g59
NtRp2548
(dp2549
g62
(dp2550
g70
I4
ssg71
Nsg64
(lp2551
g57
(g73
g59
NtRp2552
(dp2553
g62
(dp2554
sg71
g2548
sg64
(lp2555
g57
(g78
g59
NtRp2556
(dp2557
g62
(dp2558
g82
g83
ssg71
g2552
sg64
(lp2559
S'Chassis_no'
p2560
asbag57
(g78
g59
NtRp2561
(dp2562
g62
(dp2563
g89
g90
ssg71
g2552
sg64
(lp2564
S':'
asbag57
(g78
g59
NtRp2565
(dp2566
g62
(dp2567
sg71
g2552
sg64
(lp2568
g57
(g58
g59
NtRp2569
(dp2570
g62
(dp2571
g70
I4
ssg71
g2565
sg64
(lp2572
S'2'
asbasbasbag57
(g73
g59
NtRp2573
(dp2574
g62
(dp2575
sg71
g2548
sg64
(lp2576
g57
(g78
g59
NtRp2577
(dp2578
g62
(dp2579
g82
g83
ssg71
g2573
sg64
(lp2580
S'Customer_ID'
p2581
asbag57
(g78
g59
NtRp2582
(dp2583
g62
(dp2584
g89
g90
ssg71
g2573
sg64
(lp2585
S':'
asbag57
(g78
g59
NtRp2586
(dp2587
g62
(dp2588
sg71
g2573
sg64
(lp2589
g57
(g58
g59
NtRp2590
(dp2591
g62
(dp2592
g70
I4
ssg71
g2586
sg64
(lp2593
S'1'
asbasbasbag57
(g73
g59
NtRp2594
(dp2595
g62
(dp2596
sg71
g2548
sg64
(lp2597
g57
(g78
g59
NtRp2598
(dp2599
g62
(dp2600
g82
g83
ssg71
g2594
sg64
(lp2601
S'Date'
p2602
asbag57
(g78
g59
NtRp2603
(dp2604
g62
(dp2605
g89
g90
ssg71
g2594
sg64
(lp2606
S':'
asbag57
(g78
g59
NtRp2607
(dp2608
g62
(dp2609
sg71
g2594
sg64
(lp2610
g57
(g58
g59
NtRp2611
(dp2612
g62
(dp2613
g70
I4
ssg71
g2607
sg64
(lp2614
S'2013-10-23'
p2615
asbasbasbag57
(g73
g59
NtRp2616
(dp2617
g62
(dp2618
sg71
g2548
sg64
(lp2619
g57
(g78
g59
NtRp2620
(dp2621
g62
(dp2622
g82
g83
ssg71
g2616
sg64
(lp2623
S'Engine_no'
p2624
asbag57
(g78
g59
NtRp2625
(dp2626
g62
(dp2627
g89
g90
ssg71
g2616
sg64
(lp2628
S':'
asbag57
(g78
g59
NtRp2629
(dp2630
g62
(dp2631
sg71
g2616
sg64
(lp2632
g57
(g58
g59
NtRp2633
(dp2634
g62
(dp2635
g70
I4
ssg71
g2629
sg64
(lp2636
S'2'
asbasbasbag57
(g73
g59
NtRp2637
(dp2638
g62
(dp2639
sg71
g2548
sg64
(lp2640
g57
(g78
g59
NtRp2641
(dp2642
g62
(dp2643
g82
g83
ssg71
g2637
sg64
(lp2644
S'Mode_of_payment'
p2645
asbag57
(g78
g59
NtRp2646
(dp2647
g62
(dp2648
g89
g90
ssg71
g2637
sg64
(lp2649
S':'
asbag57
(g78
g59
NtRp2650
(dp2651
g62
(dp2652
sg71
g2637
sg64
(lp2653
g57
(g58
g59
NtRp2654
(dp2655
g62
(dp2656
g70
I4
ssg71
g2650
sg64
(lp2657
S'Cash'
p2658
asbasbasbag57
(g73
g59
NtRp2659
(dp2660
g62
(dp2661
sg71
g2548
sg64
(lp2662
g57
(g78
g59
NtRp2663
(dp2664
g62
(dp2665
g82
g83
ssg71
g2659
sg64
(lp2666
S'Model_no'
p2667
asbag57
(g78
g59
NtRp2668
(dp2669
g62
(dp2670
g89
g90
ssg71
g2659
sg64
(lp2671
S':'
asbag57
(g78
g59
NtRp2672
(dp2673
g62
(dp2674
sg71
g2659
sg64
(lp2675
g57
(g58
g59
NtRp2676
(dp2677
g62
(dp2678
g70
I4
ssg71
g2672
sg64
(lp2679
S'1'
asbasbasbag57
(g73
g59
NtRp2680
(dp2681
g62
(dp2682
sg71
g2548
sg64
(lp2683
g57
(g78
g59
NtRp2684
(dp2685
g62
(dp2686
g82
g83
ssg71
g2680
sg64
(lp2687
S'Registration_no'
p2688
asbag57
(g78
g59
NtRp2689
(dp2690
g62
(dp2691
g89
g90
ssg71
g2680
sg64
(lp2692
S':'
asbag57
(g78
g59
NtRp2693
(dp2694
g62
(dp2695
sg71
g2680
sg64
(lp2696
g57
(g58
g59
NtRp2697
(dp2698
g62
(dp2699
g70
I4
ssg71
g2693
sg64
(lp2700
S'2'
asbasbasbasbasbasbasbag57
(g73
g59
NtRp2701
(dp2702
g62
(dp2703
sg71
g67
sg64
(lp2704
g57
(g78
g59
NtRp2705
(dp2706
g62
(dp2707
g82
g83
ssg71
g2701
sg64
(lp2708
S'raw_args'
p2709
asbag57
(g78
g59
NtRp2710
(dp2711
g62
(dp2712
g89
g90
ssg71
g2701
sg64
(lp2713
S':'
asbag57
(g78
g59
NtRp2714
(dp2715
g62
(dp2716
sg71
g2701
sg64
(lp2717
g57
(g58
g59
NtRp2718
(dp2719
g62
(dp2720
g70
I5
ssg71
g2714
sg64
(lp2721
S''
asbasbasbag57
(g73
g59
NtRp2722
(dp2723
g62
(dp2724
sg71
g67
sg64
(lp2725
g57
(g78
g59
NtRp2726
(dp2727
g62
(dp2728
g82
g83
ssg71
g2722
sg64
(lp2729
S'raw_extension'
p2730
asbag57
(g78
g59
NtRp2731
(dp2732
g62
(dp2733
g89
g90
ssg71
g2722
sg64
(lp2734
S':'
asbag57
(g78
g59
NtRp2735
(dp2736
g62
(dp2737
sg71
g2722
sg64
(lp2738
g57
(g58
g59
NtRp2739
(dp2740
g62
(dp2741
g70
I5
ssg71
g2735
sg64
(lp2742
S'None'
p2743
asbasbasbag57
(g73
g59
NtRp2744
(dp2745
g62
(dp2746
sg71
g67
sg64
(lp2747
g57
(g78
g59
NtRp2748
(dp2749
g62
(dp2750
g82
g83
ssg71
g2744
sg64
(lp2751
S'url'
p2752
asbag57
(g78
g59
NtRp2753
(dp2754
g62
(dp2755
g89
g90
ssg71
g2744
sg64
(lp2756
S':'
asbag57
(g78
g59
NtRp2757
(dp2758
g62
(dp2759
sg71
g2744
sg64
(lp2760
g57
(g58
g59
NtRp2761
(dp2762
g62
(dp2763
g70
I5
ssg71
g2757
sg64
(lp2764
g1444
asbasbasbag57
(g73
g59
NtRp2765
(dp2766
g62
(dp2767
sg71
g67
sg64
(lp2768
g57
(g78
g59
NtRp2769
(dp2770
g62
(dp2771
g82
g83
ssg71
g2765
sg64
(lp2772
S'utcnow'
p2773
asbag57
(g78
g59
NtRp2774
(dp2775
g62
(dp2776
g89
g90
ssg71
g2765
sg64
(lp2777
S':'
asbag57
(g78
g59
NtRp2778
(dp2779
g62
(dp2780
sg71
g2765
sg64
(lp2781
g57
(g58
g59
NtRp2782
(dp2783
g62
(dp2784
g70
I5
ssg71
g2778
sg64
(lp2785
S'datetime.datetime(2013, 10, 23, 10, 10, 50, 126959)'
p2786
asbasbasbag57
(g73
g59
NtRp2787
(dp2788
g62
(dp2789
sg71
g67
sg64
(lp2790
g57
(g78
g59
NtRp2791
(dp2792
g62
(dp2793
g82
g83
ssg71
g2787
sg64
(lp2794
S'uuid'
p2795
asbag57
(g78
g59
NtRp2796
(dp2797
g62
(dp2798
g89
g90
ssg71
g2787
sg64
(lp2799
S':'
asbag57
(g78
g59
NtRp2800
(dp2801
g62
(dp2802
sg71
g2787
sg64
(lp2803
g57
(g58
g59
NtRp2804
(dp2805
g62
(dp2806
g70
I5
ssg71
g2800
sg64
(lp2807
S'GoGreen_Motors_2/127.0.0.1.2013-10-23.15-40-50.2e662a6c-2db7-4871-80f2-f296f9af2f3f'
p2808
asbasbasbag57
(g73
g59
NtRp2809
(dp2810
g62
(dp2811
sg71
g67
sg64
(lp2812
g57
(g78
g59
NtRp2813
(dp2814
g62
(dp2815
g82
g83
ssg71
g2809
sg64
(lp2816
S'vars'
p2817
asbag57
(g78
g59
NtRp2818
(dp2819
g62
(dp2820
g89
g90
ssg71
g2809
sg64
(lp2821
S':'
asbag57
(g78
g59
NtRp2822
(dp2823
g62
(dp2824
sg71
g2809
sg64
(lp2825
g57
(g58
g59
NtRp2826
(dp2827
g62
(dp2828
g70
I5
ssg71
g2822
sg64
(lp2829
g57
(g66
g59
NtRp2830
(dp2831
g62
(dp2832
g70
I4
ssg71
Nsg64
(lp2833
g57
(g73
g59
NtRp2834
(dp2835
g62
(dp2836
sg71
g2830
sg64
(lp2837
g57
(g78
g59
NtRp2838
(dp2839
g62
(dp2840
g82
g83
ssg71
g2834
sg64
(lp2841
g2560
asbag57
(g78
g59
NtRp2842
(dp2843
g62
(dp2844
g89
g90
ssg71
g2834
sg64
(lp2845
S':'
asbag57
(g78
g59
NtRp2846
(dp2847
g62
(dp2848
sg71
g2834
sg64
(lp2849
g57
(g58
g59
NtRp2850
(dp2851
g62
(dp2852
g70
I4
ssg71
g2846
sg64
(lp2853
S'2'
asbasbasbag57
(g73
g59
NtRp2854
(dp2855
g62
(dp2856
sg71
g2830
sg64
(lp2857
g57
(g78
g59
NtRp2858
(dp2859
g62
(dp2860
g82
g83
ssg71
g2854
sg64
(lp2861
g2581
asbag57
(g78
g59
NtRp2862
(dp2863
g62
(dp2864
g89
g90
ssg71
g2854
sg64
(lp2865
S':'
asbag57
(g78
g59
NtRp2866
(dp2867
g62
(dp2868
sg71
g2854
sg64
(lp2869
g57
(g58
g59
NtRp2870
(dp2871
g62
(dp2872
g70
I4
ssg71
g2866
sg64
(lp2873
S'1'
asbasbasbag57
(g73
g59
NtRp2874
(dp2875
g62
(dp2876
sg71
g2830
sg64
(lp2877
g57
(g78
g59
NtRp2878
(dp2879
g62
(dp2880
g82
g83
ssg71
g2874
sg64
(lp2881
g2602
asbag57
(g78
g59
NtRp2882
(dp2883
g62
(dp2884
g89
g90
ssg71
g2874
sg64
(lp2885
S':'
asbag57
(g78
g59
NtRp2886
(dp2887
g62
(dp2888
sg71
g2874
sg64
(lp2889
g57
(g58
g59
NtRp2890
(dp2891
g62
(dp2892
g70
I4
ssg71
g2886
sg64
(lp2893
g2615
asbasbasbag57
(g73
g59
NtRp2894
(dp2895
g62
(dp2896
sg71
g2830
sg64
(lp2897
g57
(g78
g59
NtRp2898
(dp2899
g62
(dp2900
g82
g83
ssg71
g2894
sg64
(lp2901
g2624
asbag57
(g78
g59
NtRp2902
(dp2903
g62
(dp2904
g89
g90
ssg71
g2894
sg64
(lp2905
S':'
asbag57
(g78
g59
NtRp2906
(dp2907
g62
(dp2908
sg71
g2894
sg64
(lp2909
g57
(g58
g59
NtRp2910
(dp2911
g62
(dp2912
g70
I4
ssg71
g2906
sg64
(lp2913
S'2'
asbasbasbag57
(g73
g59
NtRp2914
(dp2915
g62
(dp2916
sg71
g2830
sg64
(lp2917
g57
(g78
g59
NtRp2918
(dp2919
g62
(dp2920
g82
g83
ssg71
g2914
sg64
(lp2921
g2645
asbag57
(g78
g59
NtRp2922
(dp2923
g62
(dp2924
g89
g90
ssg71
g2914
sg64
(lp2925
S':'
asbag57
(g78
g59
NtRp2926
(dp2927
g62
(dp2928
sg71
g2914
sg64
(lp2929
g57
(g58
g59
NtRp2930
(dp2931
g62
(dp2932
g70
I4
ssg71
g2926
sg64
(lp2933
g2658
asbasbasbag57
(g73
g59
NtRp2934
(dp2935
g62
(dp2936
sg71
g2830
sg64
(lp2937
g57
(g78
g59
NtRp2938
(dp2939
g62
(dp2940
g82
g83
ssg71
g2934
sg64
(lp2941
g2667
asbag57
(g78
g59
NtRp2942
(dp2943
g62
(dp2944
g89
g90
ssg71
g2934
sg64
(lp2945
S':'
asbag57
(g78
g59
NtRp2946
(dp2947
g62
(dp2948
sg71
g2934
sg64
(lp2949
g57
(g58
g59
NtRp2950
(dp2951
g62
(dp2952
g70
I4
ssg71
g2946
sg64
(lp2953
S'1'
asbasbasbag57
(g73
g59
NtRp2954
(dp2955
g62
(dp2956
sg71
g2830
sg64
(lp2957
g57
(g78
g59
NtRp2958
(dp2959
g62
(dp2960
g82
g83
ssg71
g2954
sg64
(lp2961
g2688
asbag57
(g78
g59
NtRp2962
(dp2963
g62
(dp2964
g89
g90
ssg71
g2954
sg64
(lp2965
S':'
asbag57
(g78
g59
NtRp2966
(dp2967
g62
(dp2968
sg71
g2954
sg64
(lp2969
g57
(g58
g59
NtRp2970
(dp2971
g62
(dp2972
g70
I4
ssg71
g2966
sg64
(lp2973
S'2'
asbasbasbasbasbasbasbag57
(g73
g59
NtRp2974
(dp2975
g62
(dp2976
sg71
g67
sg64
(lp2977
g57
(g78
g59
NtRp2978
(dp2979
g62
(dp2980
g82
g83
ssg71
g2974
sg64
(lp2981
S'wsgi'
p2982
asbag57
(g78
g59
NtRp2983
(dp2984
g62
(dp2985
g89
g90
ssg71
g2974
sg64
(lp2986
S':'
asbag57
(g78
g59
NtRp2987
(dp2988
g62
(dp2989
sg71
g2974
sg64
(lp2990
g57
(g58
g59
NtRp2991
(dp2992
g62
(dp2993
g70
I5
ssg71
g2987
sg64
(lp2994
g57
(g66
g59
NtRp2995
(dp2996
g62
(dp2997
g70
I4
ssg71
Nsg64
(lp2998
g57
(g73
g59
NtRp2999
(dp3000
g62
(dp3001
sg71
g2995
sg64
(lp3002
g57
(g78
g59
NtRp3003
(dp3004
g62
(dp3005
g82
g83
ssg71
g2999
sg64
(lp3006
S'environ'
p3007
asbag57
(g78
g59
NtRp3008
(dp3009
g62
(dp3010
g89
g90
ssg71
g2999
sg64
(lp3011
S':'
asbag57
(g78
g59
NtRp3012
(dp3013
g62
(dp3014
sg71
g2999
sg64
(lp3015
g57
(g58
g59
NtRp3016
(dp3017
g62
(dp3018
g70
I4
ssg71
g3012
sg64
(lp3019
g57
(g66
g59
NtRp3020
(dp3021
g62
(dp3022
g70
I3
ssg71
Nsg64
(lp3023
g57
(g73
g59
NtRp3024
(dp3025
g62
(dp3026
sg71
g3020
sg64
(lp3027
g57
(g78
g59
NtRp3028
(dp3029
g62
(dp3030
g82
g83
ssg71
g3024
sg64
(lp3031
S'CONTENT_LENGTH'
p3032
asbag57
(g78
g59
NtRp3033
(dp3034
g62
(dp3035
g89
g90
ssg71
g3024
sg64
(lp3036
S':'
asbag57
(g78
g59
NtRp3037
(dp3038
g62
(dp3039
sg71
g3024
sg64
(lp3040
g57
(g58
g59
NtRp3041
(dp3042
g62
(dp3043
g70
I3
ssg71
g3037
sg64
(lp3044
g963
asbasbasbag57
(g73
g59
NtRp3045
(dp3046
g62
(dp3047
sg71
g3020
sg64
(lp3048
g57
(g78
g59
NtRp3049
(dp3050
g62
(dp3051
g82
g83
ssg71
g3045
sg64
(lp3052
S'CONTENT_TYPE'
p3053
asbag57
(g78
g59
NtRp3054
(dp3055
g62
(dp3056
g89
g90
ssg71
g3045
sg64
(lp3057
S':'
asbag57
(g78
g59
NtRp3058
(dp3059
g62
(dp3060
sg71
g3045
sg64
(lp3061
g57
(g58
g59
NtRp3062
(dp3063
g62
(dp3064
g70
I3
ssg71
g3058
sg64
(lp3065
g985
asbasbasbag57
(g73
g59
NtRp3066
(dp3067
g62
(dp3068
sg71
g3020
sg64
(lp3069
g57
(g78
g59
NtRp3070
(dp3071
g62
(dp3072
g82
g83
ssg71
g3066
sg64
(lp3073
S'HTTP_ACCEPT'
p3074
asbag57
(g78
g59
NtRp3075
(dp3076
g62
(dp3077
g89
g90
ssg71
g3066
sg64
(lp3078
S':'
asbag57
(g78
g59
NtRp3079
(dp3080
g62
(dp3081
sg71
g3066
sg64
(lp3082
g57
(g58
g59
NtRp3083
(dp3084
g62
(dp3085
g70
I3
ssg71
g3079
sg64
(lp3086
g1072
asbasbasbag57
(g73
g59
NtRp3087
(dp3088
g62
(dp3089
sg71
g3020
sg64
(lp3090
g57
(g78
g59
NtRp3091
(dp3092
g62
(dp3093
g82
g83
ssg71
g3087
sg64
(lp3094
S'HTTP_ACCEPT_ENCODING'
p3095
asbag57
(g78
g59
NtRp3096
(dp3097
g62
(dp3098
g89
g90
ssg71
g3087
sg64
(lp3099
S':'
asbag57
(g78
g59
NtRp3100
(dp3101
g62
(dp3102
sg71
g3087
sg64
(lp3103
g57
(g58
g59
NtRp3104
(dp3105
g62
(dp3106
g70
I3
ssg71
g3100
sg64
(lp3107
g1094
asbasbasbag57
(g73
g59
NtRp3108
(dp3109
g62
(dp3110
sg71
g3020
sg64
(lp3111
g57
(g78
g59
NtRp3112
(dp3113
g62
(dp3114
g82
g83
ssg71
g3108
sg64
(lp3115
S'HTTP_ACCEPT_LANGUAGE'
p3116
asbag57
(g78
g59
NtRp3117
(dp3118
g62
(dp3119
g89
g90
ssg71
g3108
sg64
(lp3120
S':'
asbag57
(g78
g59
NtRp3121
(dp3122
g62
(dp3123
sg71
g3108
sg64
(lp3124
g57
(g58
g59
NtRp3125
(dp3126
g62
(dp3127
g70
I3
ssg71
g3121
sg64
(lp3128
g1116
asbasbasbag57
(g73
g59
NtRp3129
(dp3130
g62
(dp3131
sg71
g3020
sg64
(lp3132
g57
(g78
g59
NtRp3133
(dp3134
g62
(dp3135
g82
g83
ssg71
g3129
sg64
(lp3136
S'HTTP_CACHE_CONTROL'
p3137
asbag57
(g78
g59
NtRp3138
(dp3139
g62
(dp3140
g89
g90
ssg71
g3129
sg64
(lp3141
S':'
asbag57
(g78
g59
NtRp3142
(dp3143
g62
(dp3144
sg71
g3129
sg64
(lp3145
g57
(g58
g59
NtRp3146
(dp3147
g62
(dp3148
g70
I3
ssg71
g3142
sg64
(lp3149
g1138
asbasbasbag57
(g73
g59
NtRp3150
(dp3151
g62
(dp3152
sg71
g3020
sg64
(lp3153
g57
(g78
g59
NtRp3154
(dp3155
g62
(dp3156
g82
g83
ssg71
g3150
sg64
(lp3157
S'HTTP_CONNECTION'
p3158
asbag57
(g78
g59
NtRp3159
(dp3160
g62
(dp3161
g89
g90
ssg71
g3150
sg64
(lp3162
S':'
asbag57
(g78
g59
NtRp3163
(dp3164
g62
(dp3165
sg71
g3150
sg64
(lp3166
g57
(g58
g59
NtRp3167
(dp3168
g62
(dp3169
g70
I3
ssg71
g3163
sg64
(lp3170
g1160
asbasbasbag57
(g73
g59
NtRp3171
(dp3172
g62
(dp3173
sg71
g3020
sg64
(lp3174
g57
(g78
g59
NtRp3175
(dp3176
g62
(dp3177
g82
g83
ssg71
g3171
sg64
(lp3178
S'HTTP_CONTENT_LENGTH'
p3179
asbag57
(g78
g59
NtRp3180
(dp3181
g62
(dp3182
g89
g90
ssg71
g3171
sg64
(lp3183
S':'
asbag57
(g78
g59
NtRp3184
(dp3185
g62
(dp3186
sg71
g3171
sg64
(lp3187
g57
(g58
g59
NtRp3188
(dp3189
g62
(dp3190
g70
I3
ssg71
g3184
sg64
(lp3191
g963
asbasbasbag57
(g73
g59
NtRp3192
(dp3193
g62
(dp3194
sg71
g3020
sg64
(lp3195
g57
(g78
g59
NtRp3196
(dp3197
g62
(dp3198
g82
g83
ssg71
g3192
sg64
(lp3199
S'HTTP_CONTENT_TYPE'
p3200
asbag57
(g78
g59
NtRp3201
(dp3202
g62
(dp3203
g89
g90
ssg71
g3192
sg64
(lp3204
S':'
asbag57
(g78
g59
NtRp3205
(dp3206
g62
(dp3207
sg71
g3192
sg64
(lp3208
g57
(g58
g59
NtRp3209
(dp3210
g62
(dp3211
g70
I3
ssg71
g3205
sg64
(lp3212
g985
asbasbasbag57
(g73
g59
NtRp3213
(dp3214
g62
(dp3215
sg71
g3020
sg64
(lp3216
g57
(g78
g59
NtRp3217
(dp3218
g62
(dp3219
g82
g83
ssg71
g3213
sg64
(lp3220
S'HTTP_COOKIE'
p3221
asbag57
(g78
g59
NtRp3222
(dp3223
g62
(dp3224
g89
g90
ssg71
g3213
sg64
(lp3225
S':'
asbag57
(g78
g59
NtRp3226
(dp3227
g62
(dp3228
sg71
g3213
sg64
(lp3229
g57
(g58
g59
NtRp3230
(dp3231
g62
(dp3232
g70
I3
ssg71
g3226
sg64
(lp3233
g1224
asbasbasbag57
(g73
g59
NtRp3234
(dp3235
g62
(dp3236
sg71
g3020
sg64
(lp3237
g57
(g78
g59
NtRp3238
(dp3239
g62
(dp3240
g82
g83
ssg71
g3234
sg64
(lp3241
S'HTTP_HOST'
p3242
asbag57
(g78
g59
NtRp3243
(dp3244
g62
(dp3245
g89
g90
ssg71
g3234
sg64
(lp3246
S':'
asbag57
(g78
g59
NtRp3247
(dp3248
g62
(dp3249
sg71
g3234
sg64
(lp3250
g57
(g58
g59
NtRp3251
(dp3252
g62
(dp3253
g70
I3
ssg71
g3247
sg64
(lp3254
g1246
asbasbasbag57
(g73
g59
NtRp3255
(dp3256
g62
(dp3257
sg71
g3020
sg64
(lp3258
g57
(g78
g59
NtRp3259
(dp3260
g62
(dp3261
g82
g83
ssg71
g3255
sg64
(lp3262
S'HTTP_REFERER'
p3263
asbag57
(g78
g59
NtRp3264
(dp3265
g62
(dp3266
g89
g90
ssg71
g3255
sg64
(lp3267
S':'
asbag57
(g78
g59
NtRp3268
(dp3269
g62
(dp3270
sg71
g3255
sg64
(lp3271
g57
(g58
g59
NtRp3272
(dp3273
g62
(dp3274
g70
I3
ssg71
g3268
sg64
(lp3275
g1268
asbasbasbag57
(g73
g59
NtRp3276
(dp3277
g62
(dp3278
sg71
g3020
sg64
(lp3279
g57
(g78
g59
NtRp3280
(dp3281
g62
(dp3282
g82
g83
ssg71
g3276
sg64
(lp3283
S'HTTP_USER_AGENT'
p3284
asbag57
(g78
g59
NtRp3285
(dp3286
g62
(dp3287
g89
g90
ssg71
g3276
sg64
(lp3288
S':'
asbag57
(g78
g59
NtRp3289
(dp3290
g62
(dp3291
sg71
g3276
sg64
(lp3292
g57
(g58
g59
NtRp3293
(dp3294
g62
(dp3295
g70
I3
ssg71
g3289
sg64
(lp3296
g1290
asbasbasbag57
(g73
g59
NtRp3297
(dp3298
g62
(dp3299
sg71
g3020
sg64
(lp3300
g57
(g78
g59
NtRp3301
(dp3302
g62
(dp3303
g82
g83
ssg71
g3297
sg64
(lp3304
S'PATH_INFO'
p3305
asbag57
(g78
g59
NtRp3306
(dp3307
g62
(dp3308
g89
g90
ssg71
g3297
sg64
(lp3309
S':'
asbag57
(g78
g59
NtRp3310
(dp3311
g62
(dp3312
sg71
g3297
sg64
(lp3313
g57
(g58
g59
NtRp3314
(dp3315
g62
(dp3316
g70
I3
ssg71
g3310
sg64
(lp3317
g1444
asbasbasbag57
(g73
g59
NtRp3318
(dp3319
g62
(dp3320
sg71
g3020
sg64
(lp3321
g57
(g78
g59
NtRp3322
(dp3323
g62
(dp3324
g82
g83
ssg71
g3318
sg64
(lp3325
S'QUERY_STRING'
p3326
asbag57
(g78
g59
NtRp3327
(dp3328
g62
(dp3329
g89
g90
ssg71
g3318
sg64
(lp3330
S':'
asbag57
(g78
g59
NtRp3331
(dp3332
g62
(dp3333
sg71
g3318
sg64
(lp3334
g57
(g58
g59
NtRp3335
(dp3336
g62
(dp3337
g70
I3
ssg71
g3331
sg64
(lp3338
S''
asbasbasbag57
(g73
g59
NtRp3339
(dp3340
g62
(dp3341
sg71
g3020
sg64
(lp3342
g57
(g78
g59
NtRp3343
(dp3344
g62
(dp3345
g82
g83
ssg71
g3339
sg64
(lp3346
S'REMOTE_ADDR'
p3347
asbag57
(g78
g59
NtRp3348
(dp3349
g62
(dp3350
g89
g90
ssg71
g3339
sg64
(lp3351
S':'
asbag57
(g78
g59
NtRp3352
(dp3353
g62
(dp3354
sg71
g3339
sg64
(lp3355
g57
(g58
g59
NtRp3356
(dp3357
g62
(dp3358
g70
I3
ssg71
g3352
sg64
(lp3359
g212
asbasbasbag57
(g73
g59
NtRp3360
(dp3361
g62
(dp3362
sg71
g3020
sg64
(lp3363
g57
(g78
g59
NtRp3364
(dp3365
g62
(dp3366
g82
g83
ssg71
g3360
sg64
(lp3367
S'REMOTE_PORT'
p3368
asbag57
(g78
g59
NtRp3369
(dp3370
g62
(dp3371
g89
g90
ssg71
g3360
sg64
(lp3372
S':'
asbag57
(g78
g59
NtRp3373
(dp3374
g62
(dp3375
sg71
g3360
sg64
(lp3376
g57
(g58
g59
NtRp3377
(dp3378
g62
(dp3379
g70
I3
ssg71
g3373
sg64
(lp3380
g1508
asbasbasbag57
(g73
g59
NtRp3381
(dp3382
g62
(dp3383
sg71
g3020
sg64
(lp3384
g57
(g78
g59
NtRp3385
(dp3386
g62
(dp3387
g82
g83
ssg71
g3381
sg64
(lp3388
S'REQUEST_METHOD'
p3389
asbag57
(g78
g59
NtRp3390
(dp3391
g62
(dp3392
g89
g90
ssg71
g3381
sg64
(lp3393
S':'
asbag57
(g78
g59
NtRp3394
(dp3395
g62
(dp3396
sg71
g3381
sg64
(lp3397
g57
(g58
g59
NtRp3398
(dp3399
g62
(dp3400
g70
I3
ssg71
g3394
sg64
(lp3401
g1530
asbasbasbag57
(g73
g59
NtRp3402
(dp3403
g62
(dp3404
sg71
g3020
sg64
(lp3405
g57
(g78
g59
NtRp3406
(dp3407
g62
(dp3408
g82
g83
ssg71
g3402
sg64
(lp3409
S'REQUEST_URI'
p3410
asbag57
(g78
g59
NtRp3411
(dp3412
g62
(dp3413
g89
g90
ssg71
g3402
sg64
(lp3414
S':'
asbag57
(g78
g59
NtRp3415
(dp3416
g62
(dp3417
sg71
g3402
sg64
(lp3418
g57
(g58
g59
NtRp3419
(dp3420
g62
(dp3421
g70
I3
ssg71
g3415
sg64
(lp3422
g1444
asbasbasbag57
(g73
g59
NtRp3423
(dp3424
g62
(dp3425
sg71
g3020
sg64
(lp3426
g57
(g78
g59
NtRp3427
(dp3428
g62
(dp3429
g82
g83
ssg71
g3423
sg64
(lp3430
S'SCRIPT_NAME'
p3431
asbag57
(g78
g59
NtRp3432
(dp3433
g62
(dp3434
g89
g90
ssg71
g3423
sg64
(lp3435
S':'
asbag57
(g78
g59
NtRp3436
(dp3437
g62
(dp3438
sg71
g3423
sg64
(lp3439
g57
(g58
g59
NtRp3440
(dp3441
g62
(dp3442
g70
I3
ssg71
g3436
sg64
(lp3443
S''
asbasbasbag57
(g73
g59
NtRp3444
(dp3445
g62
(dp3446
sg71
g3020
sg64
(lp3447
g57
(g78
g59
NtRp3448
(dp3449
g62
(dp3450
g82
g83
ssg71
g3444
sg64
(lp3451
S'SERVER_NAME'
p3452
asbag57
(g78
g59
NtRp3453
(dp3454
g62
(dp3455
g89
g90
ssg71
g3444
sg64
(lp3456
S':'
asbag57
(g78
g59
NtRp3457
(dp3458
g62
(dp3459
sg71
g3444
sg64
(lp3460
g57
(g58
g59
NtRp3461
(dp3462
g62
(dp3463
g70
I3
ssg71
g3457
sg64
(lp3464
g1594
asbasbasbag57
(g73
g59
NtRp3465
(dp3466
g62
(dp3467
sg71
g3020
sg64
(lp3468
g57
(g78
g59
NtRp3469
(dp3470
g62
(dp3471
g82
g83
ssg71
g3465
sg64
(lp3472
S'SERVER_PORT'
p3473
asbag57
(g78
g59
NtRp3474
(dp3475
g62
(dp3476
g89
g90
ssg71
g3465
sg64
(lp3477
S':'
asbag57
(g78
g59
NtRp3478
(dp3479
g62
(dp3480
sg71
g3465
sg64
(lp3481
g57
(g58
g59
NtRp3482
(dp3483
g62
(dp3484
g70
I3
ssg71
g3478
sg64
(lp3485
g1616
asbasbasbag57
(g73
g59
NtRp3486
(dp3487
g62
(dp3488
sg71
g3020
sg64
(lp3489
g57
(g78
g59
NtRp3490
(dp3491
g62
(dp3492
g82
g83
ssg71
g3486
sg64
(lp3493
S'SERVER_PROTOCOL'
p3494
asbag57
(g78
g59
NtRp3495
(dp3496
g62
(dp3497
g89
g90
ssg71
g3486
sg64
(lp3498
S':'
asbag57
(g78
g59
NtRp3499
(dp3500
g62
(dp3501
sg71
g3486
sg64
(lp3502
g57
(g58
g59
NtRp3503
(dp3504
g62
(dp3505
g70
I3
ssg71
g3499
sg64
(lp3506
g1638
asbasbasbag57
(g73
g59
NtRp3507
(dp3508
g62
(dp3509
sg71
g3020
sg64
(lp3510
g57
(g78
g59
NtRp3511
(dp3512
g62
(dp3513
g82
g83
ssg71
g3507
sg64
(lp3514
S'SERVER_SOFTWARE'
p3515
asbag57
(g78
g59
NtRp3516
(dp3517
g62
(dp3518
g89
g90
ssg71
g3507
sg64
(lp3519
S':'
asbag57
(g78
g59
NtRp3520
(dp3521
g62
(dp3522
sg71
g3507
sg64
(lp3523
g57
(g58
g59
NtRp3524
(dp3525
g62
(dp3526
g70
I3
ssg71
g3520
sg64
(lp3527
g1660
asbasbasbag57
(g73
g59
NtRp3528
(dp3529
g62
(dp3530
sg71
g3020
sg64
(lp3531
g57
(g78
g59
NtRp3532
(dp3533
g62
(dp3534
g82
g83
ssg71
g3528
sg64
(lp3535
S'wsgi.errors'
p3536
asbag57
(g78
g59
NtRp3537
(dp3538
g62
(dp3539
g89
g90
ssg71
g3528
sg64
(lp3540
S':'
asbag57
(g78
g59
NtRp3541
(dp3542
g62
(dp3543
sg71
g3528
sg64
(lp3544
g57
(g58
g59
NtRp3545
(dp3546
g62
(dp3547
g70
I3
ssg71
g3541
sg64
(lp3548
S"<open file '<stderr>', mode 'w' at 0x7fb147dd8270>"
p3549
asbasbasbag57
(g73
g59
NtRp3550
(dp3551
g62
(dp3552
sg71
g3020
sg64
(lp3553
g57
(g78
g59
NtRp3554
(dp3555
g62
(dp3556
g82
g83
ssg71
g3550
sg64
(lp3557
S'wsgi.file_wrapper'
p3558
asbag57
(g78
g59
NtRp3559
(dp3560
g62
(dp3561
g89
g90
ssg71
g3550
sg64
(lp3562
S':'
asbag57
(g78
g59
NtRp3563
(dp3564
g62
(dp3565
sg71
g3550
sg64
(lp3566
g57
(g58
g59
NtRp3567
(dp3568
g62
(dp3569
g70
I3
ssg71
g3563
sg64
(lp3570
S'<class wsgiref.util.FileWrapper at 0x2e38b48>'
p3571
asbasbasbag57
(g73
g59
NtRp3572
(dp3573
g62
(dp3574
sg71
g3020
sg64
(lp3575
g57
(g78
g59
NtRp3576
(dp3577
g62
(dp3578
g82
g83
ssg71
g3572
sg64
(lp3579
S'wsgi.input'
p3580
asbag57
(g78
g59
NtRp3581
(dp3582
g62
(dp3583
g89
g90
ssg71
g3572
sg64
(lp3584
S':'
asbag57
(g78
g59
NtRp3585
(dp3586
g62
(dp3587
sg71
g3572
sg64
(lp3588
g57
(g58
g59
NtRp3589
(dp3590
g62
(dp3591
g70
I3
ssg71
g3585
sg64
(lp3592
S"<open file '<fdopen>', mode 'w+b' at 0x7fb13c2c2ed0>"
p3593
asbasbasbag57
(g73
g59
NtRp3594
(dp3595
g62
(dp3596
sg71
g3020
sg64
(lp3597
g57
(g78
g59
NtRp3598
(dp3599
g62
(dp3600
g82
g83
ssg71
g3594
sg64
(lp3601
S'wsgi.multiprocess'
p3602
asbag57
(g78
g59
NtRp3603
(dp3604
g62
(dp3605
g89
g90
ssg71
g3594
sg64
(lp3606
S':'
asbag57
(g78
g59
NtRp3607
(dp3608
g62
(dp3609
sg71
g3594
sg64
(lp3610
g57
(g58
g59
NtRp3611
(dp3612
g62
(dp3613
g70
I3
ssg71
g3607
sg64
(lp3614
g100
asbasbasbag57
(g73
g59
NtRp3615
(dp3616
g62
(dp3617
sg71
g3020
sg64
(lp3618
g57
(g78
g59
NtRp3619
(dp3620
g62
(dp3621
g82
g83
ssg71
g3615
sg64
(lp3622
S'wsgi.multithread'
p3623
asbag57
(g78
g59
NtRp3624
(dp3625
g62
(dp3626
g89
g90
ssg71
g3615
sg64
(lp3627
S':'
asbag57
(g78
g59
NtRp3628
(dp3629
g62
(dp3630
sg71
g3615
sg64
(lp3631
g57
(g58
g59
NtRp3632
(dp3633
g62
(dp3634
g70
I3
ssg71
g3628
sg64
(lp3635
g1877
asbasbasbag57
(g73
g59
NtRp3636
(dp3637
g62
(dp3638
sg71
g3020
sg64
(lp3639
g57
(g78
g59
NtRp3640
(dp3641
g62
(dp3642
g82
g83
ssg71
g3636
sg64
(lp3643
S'wsgi.run_once'
p3644
asbag57
(g78
g59
NtRp3645
(dp3646
g62
(dp3647
g89
g90
ssg71
g3636
sg64
(lp3648
S':'
asbag57
(g78
g59
NtRp3649
(dp3650
g62
(dp3651
sg71
g3636
sg64
(lp3652
g57
(g58
g59
NtRp3653
(dp3654
g62
(dp3655
g70
I3
ssg71
g3649
sg64
(lp3656
g100
asbasbasbag57
(g73
g59
NtRp3657
(dp3658
g62
(dp3659
sg71
g3020
sg64
(lp3660
g57
(g78
g59
NtRp3661
(dp3662
g62
(dp3663
g82
g83
ssg71
g3657
sg64
(lp3664
S'wsgi.url_scheme'
p3665
asbag57
(g78
g59
NtRp3666
(dp3667
g62
(dp3668
g89
g90
ssg71
g3657
sg64
(lp3669
S':'
asbag57
(g78
g59
NtRp3670
(dp3671
g62
(dp3672
sg71
g3657
sg64
(lp3673
g57
(g58
g59
NtRp3674
(dp3675
g62
(dp3676
g70
I3
ssg71
g3670
sg64
(lp3677
g1920
asbasbasbag57
(g73
g59
NtRp3678
(dp3679
g62
(dp3680
sg71
g3020
sg64
(lp3681
g57
(g78
g59
NtRp3682
(dp3683
g62
(dp3684
g82
g83
ssg71
g3678
sg64
(lp3685
S'wsgi.version'
p3686
asbag57
(g78
g59
NtRp3687
(dp3688
g62
(dp3689
g89
g90
ssg71
g3678
sg64
(lp3690
S':'
asbag57
(g78
g59
NtRp3691
(dp3692
g62
(dp3693
sg71
g3678
sg64
(lp3694
g57
(g58
g59
NtRp3695
(dp3696
g62
(dp3697
g70
I3
ssg71
g3691
sg64
(lp3698
S'1'
asbasbasbasbasbasbasbasbasbasbasbasbasbsS'frames'
p3699
(lp3700
(dp3701
S'file'
p3702
S'/home/urvashi/Desktop/WEB2PY/web2py/gluon/restricted.py'
p3703
sS'dump'
p3704
(dp3705
S'environment'
p3706
S"{'A': <class 'gluon.html.A'>, 'Auth': <class 'gluon.tools.Auth'>, 'B': <class 'gluon.html.B'>, 'BEAUTIFY': <class 'gluon.html.BEAUTIFY'>, 'BODY': <class 'gluon.html.BODY'>, 'BR': <class 'gluon.html.BR'>, 'BUTTON': <class 'gluon.html.BUTTON'>, 'CAT': <class 'gluon.html.CAT'>, 'CENTER': <class 'gluon.html.CENTER'>, 'CLEANUP': <class 'gluon.validators.CLEANUP'>, ...}"
p3707
sS'ccode'
p3708
S'<code object <module> at 0x7fb110169030, file "/...oGreen_Motors_2/controllers/default.py", line 13>'
p3709
ssS'lnum'
p3710
I212
sS'lines'
p3711
(dp3712
I207
S'    try:'
p3713
sI208
S'        if isinstance(code, types.CodeType):'
p3714
sI209
S'            ccode = code'
p3715
sI210
S'        else:'
p3716
sI211
S'            ccode = compile2(code, layer)'
p3717
sI212
S'        exec ccode in environment'
p3718
sI213
S'    except HTTP:'
p3719
sI214
S'        raise'
p3720
sI215
S'    except RestrictedError:'
p3721
sI216
S'        # do not encapsulate (obfuscate) the original RestrictedError'
p3722
ssS'call'
p3723
S"(code='# -*- coding: utf-8 -*-\\n# this file is released ...d())\\n\\nresponse._vars=response._caller(sell_bike)\\n', environment={'A': <class 'gluon.html.A'>, 'Auth': <class 'gluon.tools.Auth'>, 'B': <class 'gluon.html.B'>, 'BEAUTIFY': <class 'gluon.html.BEAUTIFY'>, 'BODY': <class 'gluon.html.BODY'>, 'BR': <class 'gluon.html.BR'>, 'BUTTON': <class 'gluon.html.BUTTON'>, 'CAT': <class 'gluon.html.CAT'>, 'CENTER': <class 'gluon.html.CENTER'>, 'CLEANUP': <class 'gluon.validators.CLEANUP'>, ...}, layer='/home/urvashi/Desktop/WEB2PY/web2py/applications/GoGreen_Motors_2/controllers/default.py')"
p3724
sS'func'
p3725
S'restricted'
p3726
sa(dp3727
g3702
S'/home/urvashi/Desktop/WEB2PY/web2py/applications/GoGreen_Motors_2/controllers/default.py'
p3728
sg3704
(dp3729
sg3710
I279
sg3711
(dp3730
I268
S'    http://..../[app]/default/data/update/[table]/[id]'
p3731
sI269
S'    http://..../[app]/default/data/delete/[table]/[id]'
p3732
sI270
S'    http://..../[app]/default/data/select/[table]'
p3733
sI271
S'    http://..../[app]/default/data/search/[table]'
p3734
sI272
S'    but URLs must be signed, i.e. linked with'
p3735
sI273
S"      A('table',_href=URL('data/tables',user_signature=True))"
p3736
sI274
S'    or with the signed load operator'
p3737
sI275
S"      LOAD('default','data.load',args='tables',ajax=True,user_signature=True)"
p3738
sI276
S'    """'
p3739
sI277
S'    return dict(form=crud())'
p3740
ssg3723
S'()'
p3741
sg3725
S'<module>'
p3742
sa(dp3743
g3702
S'/home/urvashi/Desktop/WEB2PY/web2py/gluon/globals.py'
p3744
sg3704
(dp3745
S'self'
p3746
S'undefined'
p3747
sS'f'
S'<function sell_bike>'
p3748
ssg3710
I193
sg3711
(dp3749
I192
S'        self._vars = None'
p3750
sI193
S'        self._caller = lambda f: f()'
p3751
sI194
S'        self._view_environment = None'
p3752
sI195
S'        self._custom_commit = None'
p3753
sI196
S'        self._custom_rollback = None'
p3754
sI197
S''
sI188
S'        self.menu = []             # used by the default view layout'
p3755
sI189
S'        self.files = []            # used by web2py_ajax.html'
p3756
sI190
S'        self.generic_patterns = []  # patterns to allow generic views'
p3757
sI191
S"        self.delimiters = ('{{', '}}')"
p3758
ssg3723
S'(f=<function sell_bike>)'
p3759
sg3725
S'<lambda>'
p3760
sa(dp3761
g3702
S'/home/urvashi/Desktop/WEB2PY/web2py/applications/GoGreen_Motors_2/controllers/default.py'
p3762
sg3704
(dp3763
S'global request'
p3764
S"<Storage {'function': 'sell_bike', 'body': <open...r_ID': '1', 'Engine_no': '2', 'Model_no': '1'}>}>"
p3765
sS'request.vars'
p3766
S"<Storage {'Mode_of_payment': 'Cash', 'Registrati...mer_ID': '1', 'Engine_no': '2', 'Model_no': '1'}>"
p3767
sS'builtinint'
p3768
S"<type 'int'>"
p3769
sS'request.vars.Waiting_list_no'
p3770
S'None'
p3771
sS'w'
g3747
ssg3710
I189
sg3711
(dp3772
I192
S'        elif form.errors:'
p3773
sI193
S"                    response.flash='ERRORS!!!'"
p3774
sI184
S'    if auth.user:'
p3775
sI185
S'        form=SQLFORM(db.DELIVERS_TO)'
p3776
sI186
S'        if form.accepts(request.vars,session):'
p3777
sI187
S'                    m=int(request.vars.Model_no)'
p3778
sI188
S'                    c=int(request.vars.Customer_ID)'
p3779
sI189
S'                    w=int(request.vars.Waiting_list_no)'
p3780
sI190
S'                    db((db.DEMANDS.Model_no==m ) & (db.DEMANDS.Customer_ID==c)).delete()'
p3781
sI191
S"                    response.flash='Bike Ordered !!'"
p3782
ssg3723
S'()'
p3783
sg3725
S'sell_bike'
p3784
sasS'pyver'
p3785
S'Python 2.7.3: /usr/bin/python'
p3786
sS'session'
p3787
g57
(g58
g59
NtRp3788
(dp3789
g62
(dp3790
sg64
(lp3791
g57
(g66
g59
NtRp3792
(dp3793
g62
(dp3794
g70
I5
ssg71
Nsg64
(lp3795
g57
(g73
g59
NtRp3796
(dp3797
g62
(dp3798
sg71
g3792
sg64
(lp3799
g57
(g78
g59
NtRp3800
(dp3801
g62
(dp3802
g82
g83
ssg71
g3796
sg64
(lp3803
S'auth'
p3804
asbag57
(g78
g59
NtRp3805
(dp3806
g62
(dp3807
g89
g90
ssg71
g3796
sg64
(lp3808
S':'
asbag57
(g78
g59
NtRp3809
(dp3810
g62
(dp3811
sg71
g3796
sg64
(lp3812
g57
(g58
g59
NtRp3813
(dp3814
g62
(dp3815
g70
I5
ssg71
g3809
sg64
(lp3816
g57
(g66
g59
NtRp3817
(dp3818
g62
(dp3819
g70
I4
ssg71
Nsg64
(lp3820
g57
(g73
g59
NtRp3821
(dp3822
g62
(dp3823
sg71
g3817
sg64
(lp3824
g57
(g78
g59
NtRp3825
(dp3826
g62
(dp3827
g82
g83
ssg71
g3821
sg64
(lp3828
S'expiration'
p3829
asbag57
(g78
g59
NtRp3830
(dp3831
g62
(dp3832
g89
g90
ssg71
g3821
sg64
(lp3833
S':'
asbag57
(g78
g59
NtRp3834
(dp3835
g62
(dp3836
sg71
g3821
sg64
(lp3837
g57
(g58
g59
NtRp3838
(dp3839
g62
(dp3840
g70
I4
ssg71
g3834
sg64
(lp3841
S'3600'
p3842
asbasbasbag57
(g73
g59
NtRp3843
(dp3844
g62
(dp3845
sg71
g3817
sg64
(lp3846
g57
(g78
g59
NtRp3847
(dp3848
g62
(dp3849
g82
g83
ssg71
g3843
sg64
(lp3850
S'hmac_key'
p3851
asbag57
(g78
g59
NtRp3852
(dp3853
g62
(dp3854
g89
g90
ssg71
g3843
sg64
(lp3855
S':'
asbag57
(g78
g59
NtRp3856
(dp3857
g62
(dp3858
sg71
g3843
sg64
(lp3859
g57
(g58
g59
NtRp3860
(dp3861
g62
(dp3862
g70
I4
ssg71
g3856
sg64
(lp3863
S'71582245-6542-4f8a-967a-29603386947a'
p3864
asbasbasbag57
(g73
g59
NtRp3865
(dp3866
g62
(dp3867
sg71
g3817
sg64
(lp3868
g57
(g78
g59
NtRp3869
(dp3870
g62
(dp3871
g82
g83
ssg71
g3865
sg64
(lp3872
S'last_visit'
p3873
asbag57
(g78
g59
NtRp3874
(dp3875
g62
(dp3876
g89
g90
ssg71
g3865
sg64
(lp3877
S':'
asbag57
(g78
g59
NtRp3878
(dp3879
g62
(dp3880
sg71
g3865
sg64
(lp3881
g57
(g58
g59
NtRp3882
(dp3883
g62
(dp3884
g70
I4
ssg71
g3878
sg64
(lp3885
S'datetime.datetime(2013, 10, 23, 15, 35, 32, 87352)'
p3886
asbasbasbag57
(g73
g59
NtRp3887
(dp3888
g62
(dp3889
sg71
g3817
sg64
(lp3890
g57
(g78
g59
NtRp3891
(dp3892
g62
(dp3893
g82
g83
ssg71
g3887
sg64
(lp3894
S'remember'
p3895
asbag57
(g78
g59
NtRp3896
(dp3897
g62
(dp3898
g89
g90
ssg71
g3887
sg64
(lp3899
S':'
asbag57
(g78
g59
NtRp3900
(dp3901
g62
(dp3902
sg71
g3887
sg64
(lp3903
g57
(g58
g59
NtRp3904
(dp3905
g62
(dp3906
g70
I4
ssg71
g3900
sg64
(lp3907
g100
asbasbasbag57
(g73
g59
NtRp3908
(dp3909
g62
(dp3910
sg71
g3817
sg64
(lp3911
g57
(g78
g59
NtRp3912
(dp3913
g62
(dp3914
g82
g83
ssg71
g3908
sg64
(lp3915
S'user'
p3916
asbag57
(g78
g59
NtRp3917
(dp3918
g62
(dp3919
g89
g90
ssg71
g3908
sg64
(lp3920
S':'
asbag57
(g78
g59
NtRp3921
(dp3922
g62
(dp3923
sg71
g3908
sg64
(lp3924
g57
(g58
g59
NtRp3925
(dp3926
g62
(dp3927
g70
I4
ssg71
g3921
sg64
(lp3928
g57
(g66
g59
NtRp3929
(dp3930
g62
(dp3931
g70
I3
ssg71
Nsg64
(lp3932
g57
(g73
g59
NtRp3933
(dp3934
g62
(dp3935
sg71
g3929
sg64
(lp3936
g57
(g78
g59
NtRp3937
(dp3938
g62
(dp3939
g82
g83
ssg71
g3933
sg64
(lp3940
S'email'
p3941
asbag57
(g78
g59
NtRp3942
(dp3943
g62
(dp3944
g89
g90
ssg71
g3933
sg64
(lp3945
S':'
asbag57
(g78
g59
NtRp3946
(dp3947
g62
(dp3948
sg71
g3933
sg64
(lp3949
g57
(g58
g59
NtRp3950
(dp3951
g62
(dp3952
g70
I3
ssg71
g3946
sg64
(lp3953
S'sherlock.holmes@gogreen.com'
p3954
asbasbasbag57
(g73
g59
NtRp3955
(dp3956
g62
(dp3957
sg71
g3929
sg64
(lp3958
g57
(g78
g59
NtRp3959
(dp3960
g62
(dp3961
g82
g83
ssg71
g3955
sg64
(lp3962
S'first_name'
p3963
asbag57
(g78
g59
NtRp3964
(dp3965
g62
(dp3966
g89
g90
ssg71
g3955
sg64
(lp3967
S':'
asbag57
(g78
g59
NtRp3968
(dp3969
g62
(dp3970
sg71
g3955
sg64
(lp3971
g57
(g58
g59
NtRp3972
(dp3973
g62
(dp3974
g70
I3
ssg71
g3968
sg64
(lp3975
S'Sherlock'
p3976
asbasbasbag57
(g73
g59
NtRp3977
(dp3978
g62
(dp3979
sg71
g3929
sg64
(lp3980
g57
(g78
g59
NtRp3981
(dp3982
g62
(dp3983
g82
g83
ssg71
g3977
sg64
(lp3984
S'id'
p3985
asbag57
(g78
g59
NtRp3986
(dp3987
g62
(dp3988
g89
g90
ssg71
g3977
sg64
(lp3989
S':'
asbag57
(g78
g59
NtRp3990
(dp3991
g62
(dp3992
sg71
g3977
sg64
(lp3993
g57
(g58
g59
NtRp3994
(dp3995
g62
(dp3996
g70
I3
ssg71
g3990
sg64
(lp3997
S'2'
asbasbasbag57
(g73
g59
NtRp3998
(dp3999
g62
(dp4000
sg71
g3929
sg64
(lp4001
g57
(g78
g59
NtRp4002
(dp4003
g62
(dp4004
g82
g83
ssg71
g3998
sg64
(lp4005
S'last_name'
p4006
asbag57
(g78
g59
NtRp4007
(dp4008
g62
(dp4009
g89
g90
ssg71
g3998
sg64
(lp4010
S':'
asbag57
(g78
g59
NtRp4011
(dp4012
g62
(dp4013
sg71
g3998
sg64
(lp4014
g57
(g58
g59
NtRp4015
(dp4016
g62
(dp4017
g70
I3
ssg71
g4011
sg64
(lp4018
S'Holmes'
p4019
asbasbasbag57
(g73
g59
NtRp4020
(dp4021
g62
(dp4022
sg71
g3929
sg64
(lp4023
g57
(g78
g59
NtRp4024
(dp4025
g62
(dp4026
g82
g83
ssg71
g4020
sg64
(lp4027
S'registration_id'
p4028
asbag57
(g78
g59
NtRp4029
(dp4030
g62
(dp4031
g89
g90
ssg71
g4020
sg64
(lp4032
S':'
asbag57
(g78
g59
NtRp4033
(dp4034
g62
(dp4035
sg71
g4020
sg64
(lp4036
g57
(g58
g59
NtRp4037
(dp4038
g62
(dp4039
g70
I3
ssg71
g4033
sg64
(lp4040
S''
asbasbasbag57
(g73
g59
NtRp4041
(dp4042
g62
(dp4043
sg71
g3929
sg64
(lp4044
g57
(g78
g59
NtRp4045
(dp4046
g62
(dp4047
g82
g83
ssg71
g4041
sg64
(lp4048
S'registration_key'
p4049
asbag57
(g78
g59
NtRp4050
(dp4051
g62
(dp4052
g89
g90
ssg71
g4041
sg64
(lp4053
S':'
asbag57
(g78
g59
NtRp4054
(dp4055
g62
(dp4056
sg71
g4041
sg64
(lp4057
g57
(g58
g59
NtRp4058
(dp4059
g62
(dp4060
g70
I3
ssg71
g4054
sg64
(lp4061
S''
asbasbasbag57
(g73
g59
NtRp4062
(dp4063
g62
(dp4064
sg71
g3929
sg64
(lp4065
g57
(g78
g59
NtRp4066
(dp4067
g62
(dp4068
g82
g83
ssg71
g4062
sg64
(lp4069
S'reset_password_key'
p4070
asbag57
(g78
g59
NtRp4071
(dp4072
g62
(dp4073
g89
g90
ssg71
g4062
sg64
(lp4074
S':'
asbag57
(g78
g59
NtRp4075
(dp4076
g62
(dp4077
sg71
g4062
sg64
(lp4078
g57
(g58
g59
NtRp4079
(dp4080
g62
(dp4081
g70
I3
ssg71
g4075
sg64
(lp4082
S''
asbasbasbasbasbasbasbag57
(g73
g59
NtRp4083
(dp4084
g62
(dp4085
sg71
g3817
sg64
(lp4086
g57
(g78
g59
NtRp4087
(dp4088
g62
(dp4089
g82
g83
ssg71
g4083
sg64
(lp4090
S'user_groups'
p4091
asbag57
(g78
g59
NtRp4092
(dp4093
g62
(dp4094
g89
g90
ssg71
g4083
sg64
(lp4095
S':'
asbag57
(g78
g59
NtRp4096
(dp4097
g62
(dp4098
sg71
g4083
sg64
(lp4099
g57
(g58
g59
NtRp4100
(dp4101
g62
(dp4102
g70
I4
ssg71
g4096
sg64
(lp4103
g57
(g66
g59
NtRp4104
(dp4105
g62
(dp4106
g70
I3
ssg71
Nsg64
(lp4107
g57
(g73
g59
NtRp4108
(dp4109
g62
(dp4110
sg71
g4104
sg64
(lp4111
g57
(g78
g59
NtRp4112
(dp4113
g62
(dp4114
g82
g83
ssg71
g4108
sg64
(lp4115
S'1'
asbag57
(g78
g59
NtRp4116
(dp4117
g62
(dp4118
g89
g90
ssg71
g4108
sg64
(lp4119
S':'
asbag57
(g78
g59
NtRp4120
(dp4121
g62
(dp4122
sg71
g4108
sg64
(lp4123
g57
(g58
g59
NtRp4124
(dp4125
g62
(dp4126
g70
I3
ssg71
g4120
sg64
(lp4127
S'user_2'
p4128
asbasbasbasbasbasbasbasbasbasbasbag57
(g73
g59
NtRp4129
(dp4130
g62
(dp4131
sg71
g3792
sg64
(lp4132
g57
(g78
g59
NtRp4133
(dp4134
g62
(dp4135
g82
g83
ssg71
g4129
sg64
(lp4136
S'flash'
p4137
asbag57
(g78
g59
NtRp4138
(dp4139
g62
(dp4140
g89
g90
ssg71
g4129
sg64
(lp4141
S':'
asbag57
(g78
g59
NtRp4142
(dp4143
g62
(dp4144
sg71
g4129
sg64
(lp4145
g57
(g58
g59
NtRp4146
(dp4147
g62
(dp4148
g70
I5
ssg71
g4142
sg64
(lp4149
S'None'
p4150
asbasbasbag57
(g73
g59
NtRp4151
(dp4152
g62
(dp4153
sg71
g3792
sg64
(lp4154
g57
(g78
g59
NtRp4155
(dp4156
g62
(dp4157
g82
g83
ssg71
g4151
sg64
(lp4158
S'last_orderby'
p4159
asbag57
(g78
g59
NtRp4160
(dp4161
g62
(dp4162
g89
g90
ssg71
g4151
sg64
(lp4163
S':'
asbag57
(g78
g59
NtRp4164
(dp4165
g62
(dp4166
sg71
g4151
sg64
(lp4167
g57
(g58
g59
NtRp4168
(dp4169
g62
(dp4170
g70
I5
ssg71
g4164
sg64
(lp4171
S'None'
p4172
asbasbasbag57
(g73
g59
NtRp4173
(dp4174
g62
(dp4175
sg71
g3792
sg64
(lp4176
g57
(g78
g59
NtRp4177
(dp4178
g62
(dp4179
g82
g83
ssg71
g4173
sg64
(lp4180
S'last_query'
p4181
asbag57
(g78
g59
NtRp4182
(dp4183
g62
(dp4184
g89
g90
ssg71
g4173
sg64
(lp4185
S':'
asbag57
(g78
g59
NtRp4186
(dp4187
g62
(dp4188
sg71
g4173
sg64
(lp4189
g57
(g58
g59
NtRp4190
(dp4191
g62
(dp4192
g70
I5
ssg71
g4186
sg64
(lp4193
S'db.DEMANDS.Customer_ID>0'
p4194
asbasbasbasbasbsS'etype'
p4195
S"<type 'exceptions.TypeError'>"
p4196
sS'date'
p4197
S'Wed Oct 23 15:40:50 2013'
p4198
sS'response'
p4199
g57
(g58
g59
NtRp4200
(dp4201
g62
(dp4202
sg64
(lp4203
g57
(g66
g59
NtRp4204
(dp4205
g62
(dp4206
g70
I5
ssg71
Nsg64
(lp4207
g57
(g73
g59
NtRp4208
(dp4209
g62
(dp4210
sg71
g4204
sg64
(lp4211
g57
(g78
g59
NtRp4212
(dp4213
g62
(dp4214
g82
g83
ssg71
g4208
sg64
(lp4215
g155
asbag57
(g78
g59
NtRp4216
(dp4217
g62
(dp4218
g89
g90
ssg71
g4208
sg64
(lp4219
S':'
asbag57
(g78
g59
NtRp4220
(dp4221
g62
(dp4222
sg71
g4208
sg64
(lp4223
g57
(g58
g59
NtRp4224
(dp4225
g62
(dp4226
g70
I5
ssg71
g4220
sg64
(lp4227
S'<cStringIO.StringO object at 0x7fb110212880>'
p4228
asbasbasbag57
(g73
g59
NtRp4229
(dp4230
g62
(dp4231
sg71
g4204
sg64
(lp4232
g57
(g78
g59
NtRp4233
(dp4234
g62
(dp4235
g82
g83
ssg71
g4229
sg64
(lp4236
g243
asbag57
(g78
g59
NtRp4237
(dp4238
g62
(dp4239
g89
g90
ssg71
g4229
sg64
(lp4240
S':'
asbag57
(g78
g59
NtRp4241
(dp4242
g62
(dp4243
sg71
g4229
sg64
(lp4244
g57
(g58
g59
NtRp4245
(dp4246
g62
(dp4247
g70
I5
ssg71
g4241
sg64
(lp4248
g57
(g66
g59
NtRp4249
(dp4250
g62
(dp4251
g70
I4
ssg71
Nsg64
(lp4252
g57
(g73
g59
NtRp4253
(dp4254
g62
(dp4255
sg71
g4249
sg64
(lp4256
g57
(g78
g59
NtRp4257
(dp4258
g62
(dp4259
g82
g83
ssg71
g4253
sg64
(lp4260
S'session_id_gogreen_motors_2'
p4261
asbag57
(g78
g59
NtRp4262
(dp4263
g62
(dp4264
g89
g90
ssg71
g4253
sg64
(lp4265
S':'
asbag57
(g78
g59
NtRp4266
(dp4267
g62
(dp4268
sg71
g4253
sg64
(lp4269
g57
(g58
g59
NtRp4270
(dp4271
g62
(dp4272
g70
I4
ssg71
g4266
sg64
(lp4273
g475
ag57
(g66
g59
NtRp4274
(dp4275
g62
(dp4276
g70
I3
ssg71
Nsg64
(lp4277
g57
(g73
g59
NtRp4278
(dp4279
g62
(dp4280
sg71
g4274
sg64
(lp4281
g57
(g78
g59
NtRp4282
(dp4283
g62
(dp4284
g82
g83
ssg71
g4278
sg64
(lp4285
g294
asbag57
(g78
g59
NtRp4286
(dp4287
g62
(dp4288
g89
g90
ssg71
g4278
sg64
(lp4289
S':'
asbag57
(g78
g59
NtRp4290
(dp4291
g62
(dp4292
sg71
g4278
sg64
(lp4293
g57
(g58
g59
NtRp4294
(dp4295
g62
(dp4296
g70
I3
ssg71
g4290
sg64
(lp4297
S''
asbasbasbag57
(g73
g59
NtRp4298
(dp4299
g62
(dp4300
sg71
g4274
sg64
(lp4301
g57
(g78
g59
NtRp4302
(dp4303
g62
(dp4304
g82
g83
ssg71
g4298
sg64
(lp4305
g315
asbag57
(g78
g59
NtRp4306
(dp4307
g62
(dp4308
g89
g90
ssg71
g4298
sg64
(lp4309
S':'
asbag57
(g78
g59
NtRp4310
(dp4311
g62
(dp4312
sg71
g4298
sg64
(lp4313
g57
(g58
g59
NtRp4314
(dp4315
g62
(dp4316
g70
I3
ssg71
g4310
sg64
(lp4317
S''
asbasbasbag57
(g73
g59
NtRp4318
(dp4319
g62
(dp4320
sg71
g4274
sg64
(lp4321
g57
(g78
g59
NtRp4322
(dp4323
g62
(dp4324
g82
g83
ssg71
g4318
sg64
(lp4325
g336
asbag57
(g78
g59
NtRp4326
(dp4327
g62
(dp4328
g89
g90
ssg71
g4318
sg64
(lp4329
S':'
asbag57
(g78
g59
NtRp4330
(dp4331
g62
(dp4332
sg71
g4318
sg64
(lp4333
g57
(g58
g59
NtRp4334
(dp4335
g62
(dp4336
g70
I3
ssg71
g4330
sg64
(lp4337
S''
asbasbasbag57
(g73
g59
NtRp4338
(dp4339
g62
(dp4340
sg71
g4274
sg64
(lp4341
g57
(g78
g59
NtRp4342
(dp4343
g62
(dp4344
g82
g83
ssg71
g4338
sg64
(lp4345
g357
asbag57
(g78
g59
NtRp4346
(dp4347
g62
(dp4348
g89
g90
ssg71
g4338
sg64
(lp4349
S':'
asbag57
(g78
g59
NtRp4350
(dp4351
g62
(dp4352
sg71
g4338
sg64
(lp4353
g57
(g58
g59
NtRp4354
(dp4355
g62
(dp4356
g70
I3
ssg71
g4350
sg64
(lp4357
S''
asbasbasbag57
(g73
g59
NtRp4358
(dp4359
g62
(dp4360
sg71
g4274
sg64
(lp4361
g57
(g78
g59
NtRp4362
(dp4363
g62
(dp4364
g82
g83
ssg71
g4358
sg64
(lp4365
g378
asbag57
(g78
g59
NtRp4366
(dp4367
g62
(dp4368
g89
g90
ssg71
g4358
sg64
(lp4369
S':'
asbag57
(g78
g59
NtRp4370
(dp4371
g62
(dp4372
sg71
g4358
sg64
(lp4373
g57
(g58
g59
NtRp4374
(dp4375
g62
(dp4376
g70
I3
ssg71
g4370
sg64
(lp4377
S''
asbasbasbag57
(g73
g59
NtRp4378
(dp4379
g62
(dp4380
sg71
g4274
sg64
(lp4381
g57
(g78
g59
NtRp4382
(dp4383
g62
(dp4384
g82
g83
ssg71
g4378
sg64
(lp4385
g399
asbag57
(g78
g59
NtRp4386
(dp4387
g62
(dp4388
g89
g90
ssg71
g4378
sg64
(lp4389
S':'
asbag57
(g78
g59
NtRp4390
(dp4391
g62
(dp4392
sg71
g4378
sg64
(lp4393
g57
(g58
g59
NtRp4394
(dp4395
g62
(dp4396
g70
I3
ssg71
g4390
sg64
(lp4397
S'/'
asbasbasbag57
(g73
g59
NtRp4398
(dp4399
g62
(dp4400
sg71
g4274
sg64
(lp4401
g57
(g78
g59
NtRp4402
(dp4403
g62
(dp4404
g82
g83
ssg71
g4398
sg64
(lp4405
g420
asbag57
(g78
g59
NtRp4406
(dp4407
g62
(dp4408
g89
g90
ssg71
g4398
sg64
(lp4409
S':'
asbag57
(g78
g59
NtRp4410
(dp4411
g62
(dp4412
sg71
g4398
sg64
(lp4413
g57
(g58
g59
NtRp4414
(dp4415
g62
(dp4416
g70
I3
ssg71
g4410
sg64
(lp4417
S''
asbasbasbag57
(g73
g59
NtRp4418
(dp4419
g62
(dp4420
sg71
g4274
sg64
(lp4421
g57
(g78
g59
NtRp4422
(dp4423
g62
(dp4424
g82
g83
ssg71
g4418
sg64
(lp4425
g441
asbag57
(g78
g59
NtRp4426
(dp4427
g62
(dp4428
g89
g90
ssg71
g4418
sg64
(lp4429
S':'
asbag57
(g78
g59
NtRp4430
(dp4431
g62
(dp4432
sg71
g4418
sg64
(lp4433
g57
(g58
g59
NtRp4434
(dp4435
g62
(dp4436
g70
I3
ssg71
g4430
sg64
(lp4437
S''
asbasbasbasbasbasbasbasbasbasbasbag57
(g73
g59
NtRp4438
(dp4439
g62
(dp4440
sg71
g4204
sg64
(lp4441
g57
(g78
g59
NtRp4442
(dp4443
g62
(dp4444
g82
g83
ssg71
g4438
sg64
(lp4445
S'delimiters'
p4446
asbag57
(g78
g59
NtRp4447
(dp4448
g62
(dp4449
g89
g90
ssg71
g4438
sg64
(lp4450
S':'
asbag57
(g78
g59
NtRp4451
(dp4452
g62
(dp4453
sg71
g4438
sg64
(lp4454
g57
(g58
g59
NtRp4455
(dp4456
g62
(dp4457
g70
I5
ssg71
g4451
sg64
(lp4458
g57
(g66
g59
NtRp4459
(dp4460
g62
(dp4461
g70
I4
ssg71
Nsg64
(lp4462
g57
(g73
g59
NtRp4463
(dp4464
g62
(dp4465
sg71
g4459
sg64
(lp4466
g57
(g78
g59
NtRp4467
(dp4468
g62
(dp4469
sg71
g4463
sg64
(lp4470
g57
(g58
g59
NtRp4471
(dp4472
g62
(dp4473
g70
I4
ssg71
g4467
sg64
(lp4474
S'{{'
p4475
asbasbasbag57
(g73
g59
NtRp4476
(dp4477
g62
(dp4478
sg71
g4459
sg64
(lp4479
g57
(g78
g59
NtRp4480
(dp4481
g62
(dp4482
sg71
g4476
sg64
(lp4483
g57
(g58
g59
NtRp4484
(dp4485
g62
(dp4486
g70
I4
ssg71
g4480
sg64
(lp4487
S'}}'
p4488
asbasbasbasbasbasbasbag57
(g73
g59
NtRp4489
(dp4490
g62
(dp4491
sg71
g4204
sg64
(lp4492
g57
(g78
g59
NtRp4493
(dp4494
g62
(dp4495
g82
g83
ssg71
g4489
sg64
(lp4496
S'files'
p4497
asbag57
(g78
g59
NtRp4498
(dp4499
g62
(dp4500
g89
g90
ssg71
g4489
sg64
(lp4501
S':'
asbag57
(g78
g59
NtRp4502
(dp4503
g62
(dp4504
sg71
g4489
sg64
(lp4505
g57
(g58
g59
NtRp4506
(dp4507
g62
(dp4508
g70
I5
ssg71
g4502
sg64
(lp4509
g57
(g66
g59
NtRp4510
(dp4511
g62
(dp4512
g70
I4
ssg71
Nsg64
(lp4513
sbasbasbasbag57
(g73
g59
NtRp4514
(dp4515
g62
(dp4516
sg71
g4204
sg64
(lp4517
g57
(g78
g59
NtRp4518
(dp4519
g62
(dp4520
g82
g83
ssg71
g4514
sg64
(lp4521
S'flash'
p4522
asbag57
(g78
g59
NtRp4523
(dp4524
g62
(dp4525
g89
g90
ssg71
g4514
sg64
(lp4526
S':'
asbag57
(g78
g59
NtRp4527
(dp4528
g62
(dp4529
sg71
g4514
sg64
(lp4530
g57
(g58
g59
NtRp4531
(dp4532
g62
(dp4533
g70
I5
ssg71
g4527
sg64
(lp4534
S''
asbasbasbag57
(g73
g59
NtRp4535
(dp4536
g62
(dp4537
sg71
g4204
sg64
(lp4538
g57
(g78
g59
NtRp4539
(dp4540
g62
(dp4541
g82
g83
ssg71
g4535
sg64
(lp4542
S'generic_patterns'
p4543
asbag57
(g78
g59
NtRp4544
(dp4545
g62
(dp4546
g89
g90
ssg71
g4535
sg64
(lp4547
S':'
asbag57
(g78
g59
NtRp4548
(dp4549
g62
(dp4550
sg71
g4535
sg64
(lp4551
g57
(g58
g59
NtRp4552
(dp4553
g62
(dp4554
g70
I5
ssg71
g4548
sg64
(lp4555
g57
(g66
g59
NtRp4556
(dp4557
g62
(dp4558
g70
I4
ssg71
Nsg64
(lp4559
g57
(g73
g59
NtRp4560
(dp4561
g62
(dp4562
sg71
g4556
sg64
(lp4563
g57
(g78
g59
NtRp4564
(dp4565
g62
(dp4566
sg71
g4560
sg64
(lp4567
g57
(g58
g59
NtRp4568
(dp4569
g62
(dp4570
g70
I4
ssg71
g4564
sg64
(lp4571
S'*'
asbasbasbasbasbasbasbag57
(g73
g59
NtRp4572
(dp4573
g62
(dp4574
sg71
g4204
sg64
(lp4575
g57
(g78
g59
NtRp4576
(dp4577
g62
(dp4578
g82
g83
ssg71
g4572
sg64
(lp4579
S'google_analytics_id'
p4580
asbag57
(g78
g59
NtRp4581
(dp4582
g62
(dp4583
g89
g90
ssg71
g4572
sg64
(lp4584
S':'
asbag57
(g78
g59
NtRp4585
(dp4586
g62
(dp4587
sg71
g4572
sg64
(lp4588
g57
(g58
g59
NtRp4589
(dp4590
g62
(dp4591
g70
I5
ssg71
g4585
sg64
(lp4592
S'None'
p4593
asbasbasbag57
(g73
g59
NtRp4594
(dp4595
g62
(dp4596
sg71
g4204
sg64
(lp4597
g57
(g78
g59
NtRp4598
(dp4599
g62
(dp4600
g82
g83
ssg71
g4594
sg64
(lp4601
S'headers'
p4602
asbag57
(g78
g59
NtRp4603
(dp4604
g62
(dp4605
g89
g90
ssg71
g4594
sg64
(lp4606
S':'
asbag57
(g78
g59
NtRp4607
(dp4608
g62
(dp4609
sg71
g4594
sg64
(lp4610
g57
(g58
g59
NtRp4611
(dp4612
g62
(dp4613
g70
I5
ssg71
g4607
sg64
(lp4614
g57
(g66
g59
NtRp4615
(dp4616
g62
(dp4617
g70
I4
ssg71
Nsg64
(lp4618
g57
(g73
g59
NtRp4619
(dp4620
g62
(dp4621
sg71
g4615
sg64
(lp4622
g57
(g78
g59
NtRp4623
(dp4624
g62
(dp4625
g82
g83
ssg71
g4619
sg64
(lp4626
S'X-Powered-By'
p4627
asbag57
(g78
g59
NtRp4628
(dp4629
g62
(dp4630
g89
g90
ssg71
g4619
sg64
(lp4631
S':'
asbag57
(g78
g59
NtRp4632
(dp4633
g62
(dp4634
sg71
g4619
sg64
(lp4635
g57
(g58
g59
NtRp4636
(dp4637
g62
(dp4638
g70
I4
ssg71
g4632
sg64
(lp4639
S'web2py'
p4640
asbasbasbasbasbasbasbag57
(g73
g59
NtRp4641
(dp4642
g62
(dp4643
sg71
g4204
sg64
(lp4644
g57
(g78
g59
NtRp4645
(dp4646
g62
(dp4647
g82
g83
ssg71
g4641
sg64
(lp4648
S'logo'
p4649
asbag57
(g78
g59
NtRp4650
(dp4651
g62
(dp4652
g89
g90
ssg71
g4641
sg64
(lp4653
S':'
asbag57
(g78
g59
NtRp4654
(dp4655
g62
(dp4656
sg71
g4641
sg64
(lp4657
g57
(g58
g59
NtRp4658
(dp4659
g62
(dp4660
g70
I5
ssg71
g4654
sg64
(lp4661
g57
(cgluon.html
A
p4662
g59
NtRp4663
(dp4664
g62
(dp4665
S'_class'
p4666
S'brand'
p4667
sS'_href'
p4668
S'http://www.web2py.com/'
p4669
ssg71
Nsg64
(lp4670
g57
(cgluon.html
B
p4671
g59
NtRp4672
(dp4673
g62
(dp4674
sg71
g4663
sg64
(lp4675
S'web'
p4676
ag57
(cgluon.html
SPAN
p4677
g59
NtRp4678
(dp4679
g62
(dp4680
sg71
g4672
sg64
(lp4681
I2
asbaS'py'
p4682
asbacgluon.html
XML_unpickle
p4683
(S's\r\x00\x00\x00&trade;&nbsp;'
tRp4684
asbasbasbasbag57
(g73
g59
NtRp4685
(dp4686
g62
(dp4687
sg71
g4204
sg64
(lp4688
g57
(g78
g59
NtRp4689
(dp4690
g62
(dp4691
g82
g83
ssg71
g4685
sg64
(lp4692
S'menu'
p4693
asbag57
(g78
g59
NtRp4694
(dp4695
g62
(dp4696
g89
g90
ssg71
g4685
sg64
(lp4697
S':'
asbag57
(g78
g59
NtRp4698
(dp4699
g62
(dp4700
sg71
g4685
sg64
(lp4701
g57
(g58
g59
NtRp4702
(dp4703
g62
(dp4704
g70
I5
ssg71
g4698
sg64
(lp4705
g57
(g66
g59
NtRp4706
(dp4707
g62
(dp4708
g70
I4
ssg71
Nsg64
(lp4709
g57
(g73
g59
NtRp4710
(dp4711
g62
(dp4712
sg71
g4706
sg64
(lp4713
g57
(g78
g59
NtRp4714
(dp4715
g62
(dp4716
sg71
g4710
sg64
(lp4717
g57
(g58
g59
NtRp4718
(dp4719
g62
(dp4720
g70
I4
ssg71
g4714
sg64
(lp4721
g57
(g66
g59
NtRp4722
(dp4723
g62
(dp4724
g70
I3
ssg71
Nsg64
(lp4725
g57
(g73
g59
NtRp4726
(dp4727
g62
(dp4728
sg71
g4722
sg64
(lp4729
g57
(g78
g59
NtRp4730
(dp4731
g62
(dp4732
sg71
g4726
sg64
(lp4733
g57
(g58
g59
NtRp4734
(dp4735
g62
(dp4736
g70
I3
ssg71
g4730
sg64
(lp4737
cgluon.languages
lazyT_unpickle
p4738
(S's\x04\x00\x00\x00Home'
tRp4739
asbasbasbag57
(g73
g59
NtRp4740
(dp4741
g62
(dp4742
sg71
g4722
sg64
(lp4743
g57
(g78
g59
NtRp4744
(dp4745
g62
(dp4746
sg71
g4740
sg64
(lp4747
g57
(g58
g59
NtRp4748
(dp4749
g62
(dp4750
g70
I3
ssg71
g4744
sg64
(lp4751
g100
asbasbasbag57
(g73
g59
NtRp4752
(dp4753
g62
(dp4754
sg71
g4722
sg64
(lp4755
g57
(g78
g59
NtRp4756
(dp4757
g62
(dp4758
sg71
g4752
sg64
(lp4759
g57
(g58
g59
NtRp4760
(dp4761
g62
(dp4762
g70
I3
ssg71
g4756
sg64
(lp4763
S'/GoGreen_Motors_2/default/index'
p4764
asbasbasbag57
(g73
g59
NtRp4765
(dp4766
g62
(dp4767
sg71
g4722
sg64
(lp4768
g57
(g78
g59
NtRp4769
(dp4770
g62
(dp4771
sg71
g4765
sg64
(lp4772
g57
(g58
g59
NtRp4773
(dp4774
g62
(dp4775
g70
I3
ssg71
g4769
sg64
(lp4776
g57
(g66
g59
NtRp4777
(dp4778
g62
(dp4779
g70
I2
ssg71
Nsg64
(lp4780
sbasbasbasbasbasbasbasbag57
(g73
g59
NtRp4781
(dp4782
g62
(dp4783
sg71
g4706
sg64
(lp4784
g57
(g78
g59
NtRp4785
(dp4786
g62
(dp4787
sg71
g4781
sg64
(lp4788
g57
(g58
g59
NtRp4789
(dp4790
g62
(dp4791
g70
I4
ssg71
g4785
sg64
(lp4792
g57
(g66
g59
NtRp4793
(dp4794
g62
(dp4795
g70
I3
ssg71
Nsg64
(lp4796
g57
(g73
g59
NtRp4797
(dp4798
g62
(dp4799
sg71
g4793
sg64
(lp4800
g57
(g78
g59
NtRp4801
(dp4802
g62
(dp4803
sg71
g4797
sg64
(lp4804
g57
(g58
g59
NtRp4805
(dp4806
g62
(dp4807
g70
I3
ssg71
g4801
sg64
(lp4808
g57
(g4677
g59
NtRp4809
(dp4810
g62
(dp4811
g4666
S'highlighted'
p4812
ssg71
Nsg64
(lp4813
g4640
asbasbasbasbag57
(g73
g59
NtRp4814
(dp4815
g62
(dp4816
sg71
g4793
sg64
(lp4817
g57
(g78
g59
NtRp4818
(dp4819
g62
(dp4820
sg71
g4814
sg64
(lp4821
g57
(g58
g59
NtRp4822
(dp4823
g62
(dp4824
g70
I3
ssg71
g4818
sg64
(lp4825
g100
asbasbasbag57
(g73
g59
NtRp4826
(dp4827
g62
(dp4828
sg71
g4793
sg64
(lp4829
g57
(g78
g59
NtRp4830
(dp4831
g62
(dp4832
sg71
g4826
sg64
(lp4833
g57
(g58
g59
NtRp4834
(dp4835
g62
(dp4836
g70
I3
ssg71
g4830
sg64
(lp4837
S'http://web2py.com'
p4838
asbasbasbag57
(g73
g59
NtRp4839
(dp4840
g62
(dp4841
sg71
g4793
sg64
(lp4842
g57
(g78
g59
NtRp4843
(dp4844
g62
(dp4845
sg71
g4839
sg64
(lp4846
g57
(g58
g59
NtRp4847
(dp4848
g62
(dp4849
g70
I3
ssg71
g4843
sg64
(lp4850
g57
(g66
g59
NtRp4851
(dp4852
g62
(dp4853
g70
I2
ssg71
Nsg64
(lp4854
g57
(g73
g59
NtRp4855
(dp4856
g62
(dp4857
sg71
g4851
sg64
(lp4858
g57
(g78
g59
NtRp4859
(dp4860
g62
(dp4861
sg71
g4855
sg64
(lp4862
g57
(g58
g59
NtRp4863
(dp4864
g62
(dp4865
g70
I2
ssg71
g4859
sg64
(lp4866
g57
(g66
g59
NtRp4867
(dp4868
g62
(dp4869
g70
I1
ssg71
Nsg64
(lp4870
g57
(g73
g59
NtRp4871
(dp4872
g62
(dp4873
sg71
g4867
sg64
(lp4874
g57
(g78
g59
NtRp4875
(dp4876
g62
(dp4877
sg71
g4871
sg64
(lp4878
g57
(g58
g59
NtRp4879
(dp4880
g62
(dp4881
g70
I1
ssg71
g4875
sg64
(lp4882
g4738
(S's\x08\x00\x00\x00My Sites'
tRp4883
asbasbasbag57
(g73
g59
NtRp4884
(dp4885
g62
(dp4886
sg71
g4867
sg64
(lp4887
g57
(g78
g59
NtRp4888
(dp4889
g62
(dp4890
sg71
g4884
sg64
(lp4891
g57
(g58
g59
NtRp4892
(dp4893
g62
(dp4894
g70
I1
ssg71
g4888
sg64
(lp4895
I00
asbasbasbag57
(g73
g59
NtRp4896
(dp4897
g62
(dp4898
sg71
g4867
sg64
(lp4899
g57
(g78
g59
NtRp4900
(dp4901
g62
(dp4902
sg71
g4896
sg64
(lp4903
g57
(g58
g59
NtRp4904
(dp4905
g62
(dp4906
g70
I1
ssg71
g4900
sg64
(lp4907
S'/admin/default/site'
p4908
asbasbasbasbasbasbasbag57
(g73
g59
NtRp4909
(dp4910
g62
(dp4911
sg71
g4851
sg64
(lp4912
g57
(g78
g59
NtRp4913
(dp4914
g62
(dp4915
sg71
g4909
sg64
(lp4916
g57
(g58
g59
NtRp4917
(dp4918
g62
(dp4919
g70
I2
ssg71
g4913
sg64
(lp4920
g57
(g66
g59
NtRp4921
(dp4922
g62
(dp4923
g70
I1
ssg71
Nsg64
(lp4924
g57
(g73
g59
NtRp4925
(dp4926
g62
(dp4927
sg71
g4921
sg64
(lp4928
g57
(g78
g59
NtRp4929
(dp4930
g62
(dp4931
sg71
g4925
sg64
(lp4932
g57
(g58
g59
NtRp4933
(dp4934
g62
(dp4935
g70
I1
ssg71
g4929
sg64
(lp4936
g4738
(S's\x08\x00\x00\x00This App'
tRp4937
asbasbasbag57
(g73
g59
NtRp4938
(dp4939
g62
(dp4940
sg71
g4921
sg64
(lp4941
g57
(g78
g59
NtRp4942
(dp4943
g62
(dp4944
sg71
g4938
sg64
(lp4945
g57
(g58
g59
NtRp4946
(dp4947
g62
(dp4948
g70
I1
ssg71
g4942
sg64
(lp4949
I00
asbasbasbag57
(g73
g59
NtRp4950
(dp4951
g62
(dp4952
sg71
g4921
sg64
(lp4953
g57
(g78
g59
NtRp4954
(dp4955
g62
(dp4956
sg71
g4950
sg64
(lp4957
g57
(g58
g59
NtRp4958
(dp4959
g62
(dp4960
g70
I1
ssg71
g4954
sg64
(lp4961
S'/admin/default/design/GoGreen_Motors_2'
p4962
asbasbasbag57
(g73
g59
NtRp4963
(dp4964
g62
(dp4965
sg71
g4921
sg64
(lp4966
g57
(g78
g59
NtRp4967
(dp4968
g62
(dp4969
sg71
g4963
sg64
(lp4970
g57
(g58
g59
NtRp4971
(dp4972
g62
(dp4973
g70
I1
ssg71
g4967
sg64
(lp4974
(lp4975
(g4738
(S's\n\x00\x00\x00Controller'
tRp4976
I00
S'/admin/default/edit/GoGreen_Motors_2/controllers/default.py'
tp4977
a(g4738
(S's\x04\x00\x00\x00View'
tRp4978
I00
S'/admin/default/edit/GoGreen_Motors_2/views/default/sell_bike.html'
tp4979
a(g4738
(S's\x06\x00\x00\x00Layout'
tRp4980
I00
S'/admin/default/edit/GoGreen_Motors_2/views/layout.html'
tp4981
a(g4738
(S's\n\x00\x00\x00Stylesheet'
tRp4982
I00
S'/admin/default/edit/GoGreen_Motors_2/static/css/web2py.css'
tp4983
a(g4738
(S's\x08\x00\x00\x00DB Model'
tRp4984
I00
S'/admin/default/edit/GoGreen_Motors_2/models/db.py'
tp4985
a(g4738
(S's\n\x00\x00\x00Menu Model'
tRp4986
I00
S'/admin/default/edit/GoGreen_Motors_2/models/menu.py'
tp4987
a(g4738
(S's\x08\x00\x00\x00Database'
tRp4988
I00
S'/GoGreen_Motors_2/appadmin/index'
tp4989
a(g4738
(S's\x06\x00\x00\x00Errors'
tRp4990
I00
S'/admin/default/errors/GoGreen_Motors_2'
tp4991
a(g4738
(S's\x05\x00\x00\x00About'
tRp4992
I00
S'/admin/default/about/GoGreen_Motors_2'
tp4993
aasbasbasbasbasbasbasbag57
(g73
g59
NtRp4994
(dp4995
g62
(dp4996
sg71
g4851
sg64
(lp4997
g57
(g78
g59
NtRp4998
(dp4999
g62
(dp5000
sg71
g4994
sg64
(lp5001
g57
(g58
g59
NtRp5002
(dp5003
g62
(dp5004
g70
I2
ssg71
g4998
sg64
(lp5005
g57
(g66
g59
NtRp5006
(dp5007
g62
(dp5008
g70
I1
ssg71
Nsg64
(lp5009
g57
(g73
g59
NtRp5010
(dp5011
g62
(dp5012
sg71
g5006
sg64
(lp5013
g57
(g78
g59
NtRp5014
(dp5015
g62
(dp5016
sg71
g5010
sg64
(lp5017
g57
(g58
g59
NtRp5018
(dp5019
g62
(dp5020
g70
I1
ssg71
g5014
sg64
(lp5021
S'web2py.com'
p5022
asbasbasbag57
(g73
g59
NtRp5023
(dp5024
g62
(dp5025
sg71
g5006
sg64
(lp5026
g57
(g78
g59
NtRp5027
(dp5028
g62
(dp5029
sg71
g5023
sg64
(lp5030
g57
(g58
g59
NtRp5031
(dp5032
g62
(dp5033
g70
I1
ssg71
g5027
sg64
(lp5034
I00
asbasbasbag57
(g73
g59
NtRp5035
(dp5036
g62
(dp5037
sg71
g5006
sg64
(lp5038
g57
(g78
g59
NtRp5039
(dp5040
g62
(dp5041
sg71
g5035
sg64
(lp5042
g57
(g58
g59
NtRp5043
(dp5044
g62
(dp5045
g70
I1
ssg71
g5039
sg64
(lp5046
S'http://www.web2py.com'
p5047
asbasbasbag57
(g73
g59
NtRp5048
(dp5049
g62
(dp5050
sg71
g5006
sg64
(lp5051
g57
(g78
g59
NtRp5052
(dp5053
g62
(dp5054
sg71
g5048
sg64
(lp5055
g57
(g58
g59
NtRp5056
(dp5057
g62
(dp5058
g70
I1
ssg71
g5052
sg64
(lp5059
(lp5060
(g4738
(S's\x08\x00\x00\x00Download'
tRp5061
I00
S'http://www.web2py.com/examples/default/download'
p5062
tp5063
a(g4738
(S's\x07\x00\x00\x00Support'
tRp5064
I00
S'http://www.web2py.com/examples/default/support'
p5065
tp5066
a(g4738
(S's\x04\x00\x00\x00Demo'
tRp5067
I00
S'http://web2py.com/demo_admin'
p5068
tp5069
a(g4738
(S's\x0e\x00\x00\x00Quick Examples'
tRp5070
I00
S'http://web2py.com/examples/default/examples'
p5071
tp5072
a(g4738
(S's\x03\x00\x00\x00FAQ'
tRp5073
I00
S'http://web2py.com/AlterEgo'
p5074
tp5075
a(g4738
(S's\x06\x00\x00\x00Videos'
tRp5076
I00
S'http://www.web2py.com/examples/default/videos/'
p5077
tp5078
a(g4738
(S's\x11\x00\x00\x00Free Applications'
tRp5079
I00
S'http://web2py.com/appliances'
p5080
tp5081
a(g4738
(S's\x07\x00\x00\x00Plugins'
tRp5082
I00
S'http://web2py.com/plugins'
p5083
tp5084
a(g4738
(S's\x07\x00\x00\x00Layouts'
tRp5085
I00
S'http://web2py.com/layouts'
p5086
tp5087
a(g4738
(S's\x07\x00\x00\x00Recipes'
tRp5088
I00
S'http://web2pyslices.com/'
p5089
tp5090
a(g4738
(S's\x08\x00\x00\x00Semantic'
tRp5091
I00
S'http://web2py.com/semantic'
p5092
tp5093
aasbasbasbasbasbasbasbag57
(g73
g59
NtRp5094
(dp5095
g62
(dp5096
sg71
g4851
sg64
(lp5097
g57
(g78
g59
NtRp5098
(dp5099
g62
(dp5100
sg71
g5094
sg64
(lp5101
g57
(g58
g59
NtRp5102
(dp5103
g62
(dp5104
g70
I2
ssg71
g5098
sg64
(lp5105
g57
(g66
g59
NtRp5106
(dp5107
g62
(dp5108
g70
I1
ssg71
Nsg64
(lp5109
g57
(g73
g59
NtRp5110
(dp5111
g62
(dp5112
sg71
g5106
sg64
(lp5113
g57
(g78
g59
NtRp5114
(dp5115
g62
(dp5116
sg71
g5110
sg64
(lp5117
g57
(g58
g59
NtRp5118
(dp5119
g62
(dp5120
g70
I1
ssg71
g5114
sg64
(lp5121
g4738
(S's\r\x00\x00\x00Documentation'
tRp5122
asbasbasbag57
(g73
g59
NtRp5123
(dp5124
g62
(dp5125
sg71
g5106
sg64
(lp5126
g57
(g78
g59
NtRp5127
(dp5128
g62
(dp5129
sg71
g5123
sg64
(lp5130
g57
(g58
g59
NtRp5131
(dp5132
g62
(dp5133
g70
I1
ssg71
g5127
sg64
(lp5134
I00
asbasbasbag57
(g73
g59
NtRp5135
(dp5136
g62
(dp5137
sg71
g5106
sg64
(lp5138
g57
(g78
g59
NtRp5139
(dp5140
g62
(dp5141
sg71
g5135
sg64
(lp5142
g57
(g58
g59
NtRp5143
(dp5144
g62
(dp5145
g70
I1
ssg71
g5139
sg64
(lp5146
S'http://www.web2py.com/book'
p5147
asbasbasbag57
(g73
g59
NtRp5148
(dp5149
g62
(dp5150
sg71
g5106
sg64
(lp5151
g57
(g78
g59
NtRp5152
(dp5153
g62
(dp5154
sg71
g5148
sg64
(lp5155
g57
(g58
g59
NtRp5156
(dp5157
g62
(dp5158
g70
I1
ssg71
g5152
sg64
(lp5159
(lp5160
(g4738
(S's\x07\x00\x00\x00Preface'
tRp5161
I00
S'http://www.web2py.com/book/default/chapter/00'
p5162
tp5163
a(g4738
(S's\x0c\x00\x00\x00Introduction'
tRp5164
I00
S'http://www.web2py.com/book/default/chapter/01'
p5165
tp5166
a(g4738
(S's\x06\x00\x00\x00Python'
tRp5167
I00
S'http://www.web2py.com/book/default/chapter/02'
p5168
tp5169
a(g4738
(S's\x08\x00\x00\x00Overview'
tRp5170
I00
S'http://www.web2py.com/book/default/chapter/03'
p5171
tp5172
a(g4738
(S's\x08\x00\x00\x00The Core'
tRp5173
I00
S'http://www.web2py.com/book/default/chapter/04'
p5174
tp5175
a(g4738
(S's\t\x00\x00\x00The Views'
tRp5176
I00
S'http://www.web2py.com/book/default/chapter/05'
p5177
tp5178
a(g4738
(S's\x08\x00\x00\x00Database'
tRp5179
I00
S'http://www.web2py.com/book/default/chapter/06'
p5180
tp5181
a(g4738
(S's\x14\x00\x00\x00Forms and Validators'
tRp5182
I00
S'http://www.web2py.com/book/default/chapter/07'
p5183
tp5184
a(g4738
(S's\r\x00\x00\x00Email and SMS'
tRp5185
I00
S'http://www.web2py.com/book/default/chapter/08'
p5186
tp5187
a(g4738
(S's\x0e\x00\x00\x00Access Control'
tRp5188
I00
S'http://www.web2py.com/book/default/chapter/09'
p5189
tp5190
a(g4738
(S's\x08\x00\x00\x00Services'
tRp5191
I00
S'http://www.web2py.com/book/default/chapter/10'
p5192
tp5193
a(g4738
(S's\x0c\x00\x00\x00Ajax Recipes'
tRp5194
I00
S'http://www.web2py.com/book/default/chapter/11'
p5195
tp5196
a(g4738
(S's\x16\x00\x00\x00Components and Plugins'
tRp5197
I00
S'http://www.web2py.com/book/default/chapter/12'
p5198
tp5199
a(g4738
(S's\x12\x00\x00\x00Deployment Recipes'
tRp5200
I00
S'http://www.web2py.com/book/default/chapter/13'
p5201
tp5202
a(g4738
(S's\r\x00\x00\x00Other Recipes'
tRp5203
I00
S'http://www.web2py.com/book/default/chapter/14'
p5204
tp5205
a(g4738
(S's\r\x00\x00\x00Buy this book'
tRp5206
I00
S'http://stores.lulu.com/web2py'
p5207
tp5208
aasbasbasbasbasbasbasbag57
(g73
g59
NtRp5209
(dp5210
g62
(dp5211
sg71
g4851
sg64
(lp5212
g57
(g78
g59
NtRp5213
(dp5214
g62
(dp5215
sg71
g5209
sg64
(lp5216
g57
(g58
g59
NtRp5217
(dp5218
g62
(dp5219
g70
I2
ssg71
g5213
sg64
(lp5220
g57
(g66
g59
NtRp5221
(dp5222
g62
(dp5223
g70
I1
ssg71
Nsg64
(lp5224
g57
(g73
g59
NtRp5225
(dp5226
g62
(dp5227
sg71
g5221
sg64
(lp5228
g57
(g78
g59
NtRp5229
(dp5230
g62
(dp5231
sg71
g5225
sg64
(lp5232
g57
(g58
g59
NtRp5233
(dp5234
g62
(dp5235
g70
I1
ssg71
g5229
sg64
(lp5236
g4738
(S's\t\x00\x00\x00Community'
tRp5237
asbasbasbag57
(g73
g59
NtRp5238
(dp5239
g62
(dp5240
sg71
g5221
sg64
(lp5241
g57
(g78
g59
NtRp5242
(dp5243
g62
(dp5244
sg71
g5238
sg64
(lp5245
g57
(g58
g59
NtRp5246
(dp5247
g62
(dp5248
g70
I1
ssg71
g5242
sg64
(lp5249
I00
asbasbasbag57
(g73
g59
NtRp5250
(dp5251
g62
(dp5252
sg71
g5221
sg64
(lp5253
g57
(g78
g59
NtRp5254
(dp5255
g62
(dp5256
sg71
g5250
sg64
(lp5257
g57
(g58
g59
NtRp5258
(dp5259
g62
(dp5260
g70
I1
ssg71
g5254
sg64
(lp5261
Nasbasbasbag57
(g73
g59
NtRp5262
(dp5263
g62
(dp5264
sg71
g5221
sg64
(lp5265
g57
(g78
g59
NtRp5266
(dp5267
g62
(dp5268
sg71
g5262
sg64
(lp5269
g57
(g58
g59
NtRp5270
(dp5271
g62
(dp5272
g70
I1
ssg71
g5266
sg64
(lp5273
(lp5274
(g4738
(S's\x06\x00\x00\x00Groups'
tRp5275
I00
S'http://www.web2py.com/examples/default/usergroups'
p5276
tp5277
a(g4738
(S's\x07\x00\x00\x00Twitter'
tRp5278
I00
S'http://twitter.com/web2py'
p5279
tp5280
a(g4738
(S's\t\x00\x00\x00Live Chat'
tRp5281
I00
S'http://webchat.freenode.net/?channels=web2py'
p5282
tp5283
aasbasbasbasbasbasbasbag57
(g73
g59
NtRp5284
(dp5285
g62
(dp5286
sg71
g4851
sg64
(lp5287
g57
(g78
g59
NtRp5288
(dp5289
g62
(dp5290
sg71
g5284
sg64
(lp5291
g57
(g58
g59
NtRp5292
(dp5293
g62
(dp5294
g70
I2
ssg71
g5288
sg64
(lp5295
g57
(g66
g59
NtRp5296
(dp5297
g62
(dp5298
g70
I1
ssg71
Nsg64
(lp5299
g57
(g73
g59
NtRp5300
(dp5301
g62
(dp5302
sg71
g5296
sg64
(lp5303
g57
(g78
g59
NtRp5304
(dp5305
g62
(dp5306
sg71
g5300
sg64
(lp5307
g57
(g58
g59
NtRp5308
(dp5309
g62
(dp5310
g70
I1
ssg71
g5304
sg64
(lp5311
g4738
(S's\x07\x00\x00\x00Plugins'
tRp5312
asbasbasbag57
(g73
g59
NtRp5313
(dp5314
g62
(dp5315
sg71
g5296
sg64
(lp5316
g57
(g78
g59
NtRp5317
(dp5318
g62
(dp5319
sg71
g5313
sg64
(lp5320
g57
(g58
g59
NtRp5321
(dp5322
g62
(dp5323
g70
I1
ssg71
g5317
sg64
(lp5324
I00
asbasbasbag57
(g73
g59
NtRp5325
(dp5326
g62
(dp5327
sg71
g5296
sg64
(lp5328
g57
(g78
g59
NtRp5329
(dp5330
g62
(dp5331
sg71
g5325
sg64
(lp5332
g57
(g58
g59
NtRp5333
(dp5334
g62
(dp5335
g70
I1
ssg71
g5329
sg64
(lp5336
Nasbasbasbag57
(g73
g59
NtRp5337
(dp5338
g62
(dp5339
sg71
g5296
sg64
(lp5340
g57
(g78
g59
NtRp5341
(dp5342
g62
(dp5343
sg71
g5337
sg64
(lp5344
g57
(g58
g59
NtRp5345
(dp5346
g62
(dp5347
g70
I1
ssg71
g5341
sg64
(lp5348
(lp5349
(S'plugin_wiki'
p5350
I00
S'http://web2py.com/examples/default/download'
p5351
tp5352
a(g4738
(S's\r\x00\x00\x00Other Plugins'
tRp5353
I00
g5083
tp5354
a(g4738
(S's\x0e\x00\x00\x00Layout Plugins'
tRp5355
I00
g5086
tp5356
aasbasbasbasbasbasbasbasbasbasbasbasbasbasbasbasbasbasbasbag57
(g73
g59
NtRp5357
(dp5358
g62
(dp5359
sg71
g4204
sg64
(lp5360
g57
(g78
g59
NtRp5361
(dp5362
g62
(dp5363
g82
g83
ssg71
g5357
sg64
(lp5364
S'meta'
p5365
asbag57
(g78
g59
NtRp5366
(dp5367
g62
(dp5368
g89
g90
ssg71
g5357
sg64
(lp5369
S':'
asbag57
(g78
g59
NtRp5370
(dp5371
g62
(dp5372
sg71
g5357
sg64
(lp5373
g57
(g58
g59
NtRp5374
(dp5375
g62
(dp5376
g70
I5
ssg71
g5370
sg64
(lp5377
g57
(g66
g59
NtRp5378
(dp5379
g62
(dp5380
g70
I4
ssg71
Nsg64
(lp5381
g57
(g73
g59
NtRp5382
(dp5383
g62
(dp5384
sg71
g5378
sg64
(lp5385
g57
(g78
g59
NtRp5386
(dp5387
g62
(dp5388
g82
g83
ssg71
g5382
sg64
(lp5389
S'author'
p5390
asbag57
(g78
g59
NtRp5391
(dp5392
g62
(dp5393
g89
g90
ssg71
g5382
sg64
(lp5394
S':'
asbag57
(g78
g59
NtRp5395
(dp5396
g62
(dp5397
sg71
g5382
sg64
(lp5398
g57
(g58
g59
NtRp5399
(dp5400
g62
(dp5401
g70
I4
ssg71
g5395
sg64
(lp5402
S'Your Name <you@example.com>'
p5403
asbasbasbag57
(g73
g59
NtRp5404
(dp5405
g62
(dp5406
sg71
g5378
sg64
(lp5407
g57
(g78
g59
NtRp5408
(dp5409
g62
(dp5410
g82
g83
ssg71
g5404
sg64
(lp5411
S'description'
p5412
asbag57
(g78
g59
NtRp5413
(dp5414
g62
(dp5415
g89
g90
ssg71
g5404
sg64
(lp5416
S':'
asbag57
(g78
g59
NtRp5417
(dp5418
g62
(dp5419
sg71
g5404
sg64
(lp5420
g57
(g58
g59
NtRp5421
(dp5422
g62
(dp5423
g70
I4
ssg71
g5417
sg64
(lp5424
S'a cool new app'
p5425
asbasbasbag57
(g73
g59
NtRp5426
(dp5427
g62
(dp5428
sg71
g5378
sg64
(lp5429
g57
(g78
g59
NtRp5430
(dp5431
g62
(dp5432
g82
g83
ssg71
g5426
sg64
(lp5433
S'generator'
p5434
asbag57
(g78
g59
NtRp5435
(dp5436
g62
(dp5437
g89
g90
ssg71
g5426
sg64
(lp5438
S':'
asbag57
(g78
g59
NtRp5439
(dp5440
g62
(dp5441
sg71
g5426
sg64
(lp5442
g57
(g58
g59
NtRp5443
(dp5444
g62
(dp5445
g70
I4
ssg71
g5439
sg64
(lp5446
S'Web2py Web Framework'
p5447
asbasbasbag57
(g73
g59
NtRp5448
(dp5449
g62
(dp5450
sg71
g5378
sg64
(lp5451
g57
(g78
g59
NtRp5452
(dp5453
g62
(dp5454
g82
g83
ssg71
g5448
sg64
(lp5455
S'keywords'
p5456
asbag57
(g78
g59
NtRp5457
(dp5458
g62
(dp5459
g89
g90
ssg71
g5448
sg64
(lp5460
S':'
asbag57
(g78
g59
NtRp5461
(dp5462
g62
(dp5463
sg71
g5448
sg64
(lp5464
g57
(g58
g59
NtRp5465
(dp5466
g62
(dp5467
g70
I4
ssg71
g5461
sg64
(lp5468
S'web2py, python, framework'
p5469
asbasbasbasbasbasbasbag57
(g73
g59
NtRp5470
(dp5471
g62
(dp5472
sg71
g4204
sg64
(lp5473
g57
(g78
g59
NtRp5474
(dp5475
g62
(dp5476
g82
g83
ssg71
g5470
sg64
(lp5477
S'models_to_run'
p5478
asbag57
(g78
g59
NtRp5479
(dp5480
g62
(dp5481
g89
g90
ssg71
g5470
sg64
(lp5482
S':'
asbag57
(g78
g59
NtRp5483
(dp5484
g62
(dp5485
sg71
g5470
sg64
(lp5486
g57
(g58
g59
NtRp5487
(dp5488
g62
(dp5489
g70
I5
ssg71
g5483
sg64
(lp5490
g57
(g66
g59
NtRp5491
(dp5492
g62
(dp5493
g70
I4
ssg71
Nsg64
(lp5494
g57
(g73
g59
NtRp5495
(dp5496
g62
(dp5497
sg71
g5491
sg64
(lp5498
g57
(g78
g59
NtRp5499
(dp5500
g62
(dp5501
sg71
g5495
sg64
(lp5502
g57
(g58
g59
NtRp5503
(dp5504
g62
(dp5505
g70
I4
ssg71
g5499
sg64
(lp5506
S'^\\w+\\.py$'
p5507
asbasbasbag57
(g73
g59
NtRp5508
(dp5509
g62
(dp5510
sg71
g5491
sg64
(lp5511
g57
(g78
g59
NtRp5512
(dp5513
g62
(dp5514
sg71
g5508
sg64
(lp5515
g57
(g58
g59
NtRp5516
(dp5517
g62
(dp5518
g70
I4
ssg71
g5512
sg64
(lp5519
S'^default/\\w+\\.py$'
p5520
asbasbasbag57
(g73
g59
NtRp5521
(dp5522
g62
(dp5523
sg71
g5491
sg64
(lp5524
g57
(g78
g59
NtRp5525
(dp5526
g62
(dp5527
sg71
g5521
sg64
(lp5528
g57
(g58
g59
NtRp5529
(dp5530
g62
(dp5531
g70
I4
ssg71
g5525
sg64
(lp5532
S'^default/sell_bike/\\w+\\.py$'
p5533
asbasbasbasbasbasbasbag57
(g73
g59
NtRp5534
(dp5535
g62
(dp5536
sg71
g4204
sg64
(lp5537
g57
(g78
g59
NtRp5538
(dp5539
g62
(dp5540
g82
g83
ssg71
g5534
sg64
(lp5541
S'postprocessing'
p5542
asbag57
(g78
g59
NtRp5543
(dp5544
g62
(dp5545
g89
g90
ssg71
g5534
sg64
(lp5546
S':'
asbag57
(g78
g59
NtRp5547
(dp5548
g62
(dp5549
sg71
g5534
sg64
(lp5550
g57
(g58
g59
NtRp5551
(dp5552
g62
(dp5553
g70
I5
ssg71
g5547
sg64
(lp5554
g57
(g66
g59
NtRp5555
(dp5556
g62
(dp5557
g70
I4
ssg71
Nsg64
(lp5558
sbasbasbasbag57
(g73
g59
NtRp5559
(dp5560
g62
(dp5561
sg71
g4204
sg64
(lp5562
g57
(g78
g59
NtRp5563
(dp5564
g62
(dp5565
g82
g83
ssg71
g5559
sg64
(lp5566
S'session_cookie_expires'
p5567
asbag57
(g78
g59
NtRp5568
(dp5569
g62
(dp5570
g89
g90
ssg71
g5559
sg64
(lp5571
S':'
asbag57
(g78
g59
NtRp5572
(dp5573
g62
(dp5574
sg71
g5559
sg64
(lp5575
g57
(g58
g59
NtRp5576
(dp5577
g62
(dp5578
g70
I5
ssg71
g5572
sg64
(lp5579
S'None'
p5580
asbasbasbag57
(g73
g59
NtRp5581
(dp5582
g62
(dp5583
sg71
g4204
sg64
(lp5584
g57
(g78
g59
NtRp5585
(dp5586
g62
(dp5587
g82
g83
ssg71
g5581
sg64
(lp5588
S'session_data_name'
p5589
asbag57
(g78
g59
NtRp5590
(dp5591
g62
(dp5592
g89
g90
ssg71
g5581
sg64
(lp5593
S':'
asbag57
(g78
g59
NtRp5594
(dp5595
g62
(dp5596
sg71
g5581
sg64
(lp5597
g57
(g58
g59
NtRp5598
(dp5599
g62
(dp5600
g70
I5
ssg71
g5594
sg64
(lp5601
S'session_data_gogreen_motors_2'
p5602
asbasbasbag57
(g73
g59
NtRp5603
(dp5604
g62
(dp5605
sg71
g4204
sg64
(lp5606
g57
(g78
g59
NtRp5607
(dp5608
g62
(dp5609
g82
g83
ssg71
g5603
sg64
(lp5610
S'session_file'
p5611
asbag57
(g78
g59
NtRp5612
(dp5613
g62
(dp5614
g89
g90
ssg71
g5603
sg64
(lp5615
S':'
asbag57
(g78
g59
NtRp5616
(dp5617
g62
(dp5618
sg71
g5603
sg64
(lp5619
g57
(g58
g59
NtRp5620
(dp5621
g62
(dp5622
g70
I5
ssg71
g5616
sg64
(lp5623
S"<open file '/home/urvashi/Desktop/WEB2PY/web2py/applications/GoGreen_Motors_2/sessions/127.0.0.1-ab57762a-d3ab-493d-b392-b6f6f290162c', mode 'rb+' at 0x7fb13c2ebf60>"
p5624
asbasbasbag57
(g73
g59
NtRp5625
(dp5626
g62
(dp5627
sg71
g4204
sg64
(lp5628
g57
(g78
g59
NtRp5629
(dp5630
g62
(dp5631
g82
g83
ssg71
g5625
sg64
(lp5632
S'session_filename'
p5633
asbag57
(g78
g59
NtRp5634
(dp5635
g62
(dp5636
g89
g90
ssg71
g5625
sg64
(lp5637
S':'
asbag57
(g78
g59
NtRp5638
(dp5639
g62
(dp5640
sg71
g5625
sg64
(lp5641
g57
(g58
g59
NtRp5642
(dp5643
g62
(dp5644
g70
I5
ssg71
g5638
sg64
(lp5645
S'/home/urvashi/Desktop/WEB2PY/web2py/applications/GoGreen_Motors_2/sessions/127.0.0.1-ab57762a-d3ab-493d-b392-b6f6f290162c'
p5646
asbasbasbag57
(g73
g59
NtRp5647
(dp5648
g62
(dp5649
sg71
g4204
sg64
(lp5650
g57
(g78
g59
NtRp5651
(dp5652
g62
(dp5653
g82
g83
ssg71
g5647
sg64
(lp5654
S'session_id'
p5655
asbag57
(g78
g59
NtRp5656
(dp5657
g62
(dp5658
g89
g90
ssg71
g5647
sg64
(lp5659
S':'
asbag57
(g78
g59
NtRp5660
(dp5661
g62
(dp5662
sg71
g5647
sg64
(lp5663
g57
(g58
g59
NtRp5664
(dp5665
g62
(dp5666
g70
I5
ssg71
g5660
sg64
(lp5667
g475
asbasbasbag57
(g73
g59
NtRp5668
(dp5669
g62
(dp5670
sg71
g4204
sg64
(lp5671
g57
(g78
g59
NtRp5672
(dp5673
g62
(dp5674
g82
g83
ssg71
g5668
sg64
(lp5675
S'session_id_name'
p5676
asbag57
(g78
g59
NtRp5677
(dp5678
g62
(dp5679
g89
g90
ssg71
g5668
sg64
(lp5680
S':'
asbag57
(g78
g59
NtRp5681
(dp5682
g62
(dp5683
sg71
g5668
sg64
(lp5684
g57
(g58
g59
NtRp5685
(dp5686
g62
(dp5687
g70
I5
ssg71
g5681
sg64
(lp5688
g4261
asbasbasbag57
(g73
g59
NtRp5689
(dp5690
g62
(dp5691
sg71
g4204
sg64
(lp5692
g57
(g78
g59
NtRp5693
(dp5694
g62
(dp5695
g82
g83
ssg71
g5689
sg64
(lp5696
S'session_locked'
p5697
asbag57
(g78
g59
NtRp5698
(dp5699
g62
(dp5700
g89
g90
ssg71
g5689
sg64
(lp5701
S':'
asbag57
(g78
g59
NtRp5702
(dp5703
g62
(dp5704
sg71
g5689
sg64
(lp5705
g57
(g58
g59
NtRp5706
(dp5707
g62
(dp5708
g70
I5
ssg71
g5702
sg64
(lp5709
g1877
asbasbasbag57
(g73
g59
NtRp5710
(dp5711
g62
(dp5712
sg71
g4204
sg64
(lp5713
g57
(g78
g59
NtRp5714
(dp5715
g62
(dp5716
g82
g83
ssg71
g5710
sg64
(lp5717
S'session_new'
p5718
asbag57
(g78
g59
NtRp5719
(dp5720
g62
(dp5721
g89
g90
ssg71
g5710
sg64
(lp5722
S':'
asbag57
(g78
g59
NtRp5723
(dp5724
g62
(dp5725
sg71
g5710
sg64
(lp5726
g57
(g58
g59
NtRp5727
(dp5728
g62
(dp5729
g70
I5
ssg71
g5723
sg64
(lp5730
g100
asbasbasbag57
(g73
g59
NtRp5731
(dp5732
g62
(dp5733
sg71
g4204
sg64
(lp5734
g57
(g78
g59
NtRp5735
(dp5736
g62
(dp5737
g82
g83
ssg71
g5731
sg64
(lp5738
S'session_storage_type'
p5739
asbag57
(g78
g59
NtRp5740
(dp5741
g62
(dp5742
g89
g90
ssg71
g5731
sg64
(lp5743
S':'
asbag57
(g78
g59
NtRp5744
(dp5745
g62
(dp5746
sg71
g5731
sg64
(lp5747
g57
(g58
g59
NtRp5748
(dp5749
g62
(dp5750
g70
I5
ssg71
g5744
sg64
(lp5751
g3702
asbasbasbag57
(g73
g59
NtRp5752
(dp5753
g62
(dp5754
sg71
g4204
sg64
(lp5755
g57
(g78
g59
NtRp5756
(dp5757
g62
(dp5758
g82
g83
ssg71
g5752
sg64
(lp5759
S'status'
p5760
asbag57
(g78
g59
NtRp5761
(dp5762
g62
(dp5763
g89
g90
ssg71
g5752
sg64
(lp5764
S':'
asbag57
(g78
g59
NtRp5765
(dp5766
g62
(dp5767
sg71
g5752
sg64
(lp5768
g57
(g58
g59
NtRp5769
(dp5770
g62
(dp5771
g70
I5
ssg71
g5765
sg64
(lp5772
S'200'
p5773
asbasbasbag57
(g73
g59
NtRp5774
(dp5775
g62
(dp5776
sg71
g4204
sg64
(lp5777
g57
(g78
g59
NtRp5778
(dp5779
g62
(dp5780
g82
g83
ssg71
g5774
sg64
(lp5781
S'subtitle'
p5782
asbag57
(g78
g59
NtRp5783
(dp5784
g62
(dp5785
g89
g90
ssg71
g5774
sg64
(lp5786
S':'
asbag57
(g78
g59
NtRp5787
(dp5788
g62
(dp5789
sg71
g5774
sg64
(lp5790
g57
(g58
g59
NtRp5791
(dp5792
g62
(dp5793
g70
I5
ssg71
g5787
sg64
(lp5794
g4738
(S's\r\x00\x00\x00customize me!'
tRp5795
asbasbasbag57
(g73
g59
NtRp5796
(dp5797
g62
(dp5798
sg71
g4204
sg64
(lp5799
g57
(g78
g59
NtRp5800
(dp5801
g62
(dp5802
g82
g83
ssg71
g5796
sg64
(lp5803
S'title'
p5804
asbag57
(g78
g59
NtRp5805
(dp5806
g62
(dp5807
g89
g90
ssg71
g5796
sg64
(lp5808
S':'
asbag57
(g78
g59
NtRp5809
(dp5810
g62
(dp5811
sg71
g5796
sg64
(lp5812
g57
(g58
g59
NtRp5813
(dp5814
g62
(dp5815
g70
I5
ssg71
g5809
sg64
(lp5816
S'Gogreen Motors 2'
p5817
asbasbasbag57
(g73
g59
NtRp5818
(dp5819
g62
(dp5820
sg71
g4204
sg64
(lp5821
g57
(g78
g59
NtRp5822
(dp5823
g62
(dp5824
g82
g83
ssg71
g5818
sg64
(lp5825
S'view'
p5826
asbag57
(g78
g59
NtRp5827
(dp5828
g62
(dp5829
g89
g90
ssg71
g5818
sg64
(lp5830
S':'
asbag57
(g78
g59
NtRp5831
(dp5832
g62
(dp5833
sg71
g5818
sg64
(lp5834
g57
(g58
g59
NtRp5835
(dp5836
g62
(dp5837
g70
I5
ssg71
g5831
sg64
(lp5838
S'default/sell_bike.html'
p5839
asbasbasbasbasbsS'locals'
p5840
(dp5841
S'c'
S'1'
sS'm'
S'1'
sS'form'
p5842
S'<gluon.sqlhtml.SQLFORM object>'
p5843
sssS'traceback'
p5844
S'Traceback (most recent call last):\n  File "/home/urvashi/Desktop/WEB2PY/web2py/gluon/restricted.py", line 212, in restricted\n    exec ccode in environment\n  File "/home/urvashi/Desktop/WEB2PY/web2py/applications/GoGreen_Motors_2/controllers/default.py", line 279, in <module>\n  File "/home/urvashi/Desktop/WEB2PY/web2py/gluon/globals.py", line 193, in <lambda>\n    self._caller = lambda f: f()\n  File "/home/urvashi/Desktop/WEB2PY/web2py/applications/GoGreen_Motors_2/controllers/default.py", line 189, in sell_bike\n    w=int(request.vars.Waiting_list_no)\nTypeError: int() argument must be a string or a number, not \'NoneType\'\n'
p5845
s.