(dp1
S'output'
p2
S"<class '_mysql_exceptions.IntegrityError'> (1452, 'Cannot add or update a child row: a foreign key constraint fails (`DBPHASE3`.`BOUGHT`, CONSTRAINT `BOUGHT_ibfk_1` FOREIGN KEY (`Customer_ID`) REFERENCES `CUSTOMER` (`Customer_ID`))')"
p3
sS'layer'
p4
S'/home/urvashi/Desktop/WEB2PY/web2py/applications/GoGreen_Motors_2/controllers/default.py'
p5
sS'code'
p6
S'# -*- coding: utf-8 -*-\n# this file is released under public domain and you can use without limitations\n\n#########################################################################\n## This is a samples controller\n## - index is the default action of any application\n## - user is required for authentication and authorization\n## - download is for downloading files uploaded in the db (does streaming)\n## - call exposes all registered services (none by default)\n#########################################################################\n\n\ndef index():\n    \'auth\' in globals()\n   \n    message="Go Green Welcomes You !!"\n    if auth.user :\n        if auth.user.id==1:\n            message="Welcome TSM HYDERABAD"\n            redirect(URL(\'admin\'))\n        else:\n            message="Welcome Employee"\n            redirect(URL(\'empl\'))\n    else:\n        redirect(URL(\'user\'))\n    return locals()\n\ndef admin():\n    man=db(db.EMPLOYEE.Designation==\'Manager\').select()\n    team=db(db.EMPLOYEE.Designation==\'Team Leader\').select()\n    exe=db(db.EMPLOYEE.Designation==\'Executive\').select()\n    return locals()\ndef add_employee():\n    \'auth\' in globals()\n\n    if auth.user:\n         if auth.user.id!=1:\n             redirect(URL(\'user\'))\n         else:\n            form=SQLFORM(db.EMPLOYEE)\n            if form.accepts(request.vars,session):\n                    response.flash=\'Employee Added !!\'\n            elif form.errors:\n                    response.flash=\'ERRORS!!!\'\n    else:\n         redirect(URL(\'user\'))\n    return locals()\n\ndef delete_employee():\n    \'auth\' in globals()\n    message=""\n    if auth.user.id==1:\n        list=db(db.EMPLOYEE.Emp_ID>0).select()\n        form=SQLFORM.factory(\n                    db.Field(\'usrname\',db.EMPLOYEE,requires=IS_IN_DB(db,\'EMPLOYEE.Emp_ID\',\'EMPLOYEE.Email_id\'),required=True))\n        if form.accepts(request.vars,session):\n                    e=db(db.EMPLOYEE.Emp_ID==int(request.vars.usrname)).select()\n                    db(db.EMPLOYEE.Emp_ID==int(request.vars.usrname)).delete()\n                    db(db.auth_user.email==e[0][\'Email_id\']).delete()\n                    message="employee deleted !!"\n                    redirect(URL(\'delete_employee\'))\n        elif form.errors:\n                    response.flash=\'ERRORS!!!\'\n    else:\n        redirect(URL(\'user\'))\n    return locals()\n\n\ndef add_model():\n    \'auth\' in globals()\n    if auth.user.id==1:\n        form=SQLFORM(db.MODEL)\n        if form.accepts(request.vars,session):\n                    response.flash=\'Model Added !!\'\n        elif form.errors:\n                    response.flash=\'ERRORS!!!\'\n    else:\n        redirect(URL(\'index\'))\n    return locals()\ndef del_model():\n    \'auth\' in globals()\n    message=""\n    if auth.user.id==1:\n        form=SQLFORM.factory(\n                    db.Field(\'model\',db.MODEL,requires=IS_IN_DB(db,\'MODEL.Model_no\',\'Models.Name\'),required=True))\n        if form.accepts(request.vars,session):\n                    db(db.MODEL.Model_no==request.vars.model).delete()\n                    response.flash="Model Deleted !!"\n                    redirect(URL(\'del_model\'))\n        elif form.errors:\n                    response.flash=\'ERRORS!!!\'\n    else:\n        redirect(URL(\'index\'))\n    return locals()\n\ndef add_other_product():\n    \'auth\' in globals()\n    if auth.user.id==1:\n        form=SQLFORM(db.OTHER_PRODUCTS)\n        if form.accepts(request.vars,session):\n                    response.flash=\'Product Added !!\'\n        elif form.errors:\n                    response.flash=\'ERRORS!!!\'\n    else:\n        redirect(URL(\'index\'))\n    return locals()\ndef del_other_product():\n    \'auth\' in globals()\n    message=""\n    if auth.user.id==1:\n        form=SQLFORM.factory(\n                    db.Field(\'product\',db.OTHER_PRODUCTS,requires=IS_IN_DB(db,\'OTHER_PRODUCTS.Product_ID\',\'OTHER_PRODUCTS.Name\'),required=True))\n        if form.accepts(request.vars,session):\n                    db(db.OTHER_PRODUCTS.Product_ID==request.vars.product).delete()\n                    response.flash="Product Deleted !!"\n                    redirect(URL(\'del_other_product\'))\n        elif form.errors:\n                    response.flash=\'ERRORS!!!\'\n    else:\n        redirect(URL(\'index\'))\n    return locals()\n\ndef empl():\n    if auth.user:\n       if auth.user:\n           e=db((auth.user.id==db.auth_user.id) & (db.auth_user.email==db.EMPLOYEE.Email_id)).select()\n           mod=db(db.MODEL.Model_no>0).select()\n        #   wait=db(db.Waiting_list.id>0).select(orderby=(db.Waiting_list.Ordered_on))\n    return locals()\ndef add_customer():\n    \'auth\' in globals()\n    if auth.user:\n        form=SQLFORM(db.CUSTOMER)\n        if form.accepts(request.vars,session):\n                    response.flash=\'Customer Added !!\'\n        elif form.errors:\n                    response.flash=\'ERRORS!!!\'\n    else:\n        redirect(URL(\'index\'))\n    return locals()\n    \ndef add_sale():\n    \'auth\' in globals()\n    if auth.user:\n        form=SQLFORM(db.BOUGHT)\n        if form.accepts(request.vars,session):\n                    response.flash=\'Product Sold !!\'\n        elif form.errors:\n                    response.flash=\'ERRORS!!!\'\n    else:\n        redirect(URL(\'index\'))\n    return locals()\n    \ndef user():\n    """\n    exposes:\n    http://..../[app]/default/user/login\n    http://..../[app]/default/user/logout\n    http://..../[app]/default/user/register\n    http://..../[app]/default/user/profile\n    http://..../[app]/default/user/retrieve_password\n    http://..../[app]/default/user/change_password\n    use @auth.requires_login()\n        @auth.requires_membership(\'group name\')\n        @auth.requires_permission(\'read\',\'table name\',record_id)\n    to decorate functions that need access control\n    """\n    return dict(form=auth())\n\n\ndef download():\n    """\n    allows downloading of uploaded files\n    http://..../[app]/default/download/[filename]\n    """\n    return response.download(request, db)\n\n\ndef call():\n    """\n    exposes services. for example:\n    http://..../[app]/default/call/jsonrpc\n    decorate with @services.jsonrpc the functions to expose\n    supports xml, json, xmlrpc, jsonrpc, amfrpc, rss, csv\n    """\n    return service()\n\n\n@auth.requires_signature()\ndef data():\n    """\n    http://..../[app]/default/data/tables\n    http://..../[app]/default/data/create/[table]\n    http://..../[app]/default/data/read/[table]/[id]\n    http://..../[app]/default/data/update/[table]/[id]\n    http://..../[app]/default/data/delete/[table]/[id]\n    http://..../[app]/default/data/select/[table]\n    http://..../[app]/default/data/search/[table]\n    but URLs must be signed, i.e. linked with\n      A(\'table\',_href=URL(\'data/tables\',user_signature=True))\n    or with the signed load operator\n      LOAD(\'default\',\'data.load\',args=\'tables\',ajax=True,user_signature=True)\n    """\n    return dict(form=crud())\n\nresponse._vars=response._caller(add_sale)\n'
p7
sS'snapshot'
p8
(dp9
S'exception'
p10
(dp11
S'__module__'
p12
S"'_mysql_exceptions'"
p13
sS'__getslice__'
p14
S"<method-wrapper '__getslice__' of IntegrityError object>"
p15
sS'__str__'
p16
S"<method-wrapper '__str__' of IntegrityError object>"
p17
sS'__reduce__'
p18
S'<built-in method __reduce__ of IntegrityError object>'
p19
sS'__dict__'
p20
S'{}'
p21
sS'__sizeof__'
p22
S'<built-in method __sizeof__ of IntegrityError object>'
p23
sS'__weakref__'
p24
S'None'
p25
sS'__init__'
p26
S"<method-wrapper '__init__' of IntegrityError object>"
p27
sS'__setattr__'
p28
S"<method-wrapper '__setattr__' of IntegrityError object>"
p29
sS'__reduce_ex__'
p30
S'<built-in method __reduce_ex__ of IntegrityError object>'
p31
sS'__new__'
p32
S'<built-in method __new__ of type object>'
p33
sS'__format__'
p34
S'<built-in method __format__ of IntegrityError object>'
p35
sS'__class__'
p36
S"<class '_mysql_exceptions.IntegrityError'>"
p37
sS'__doc__'
p38
S"'Exception raised when the relational integrity o... foreign key check fails, duplicate key,\\n    etc.'"
p39
sS'__getitem__'
p40
S"<method-wrapper '__getitem__' of IntegrityError object>"
p41
sS'__setstate__'
p42
S'<built-in method __setstate__ of IntegrityError object>'
p43
sS'__getattribute__'
p44
S"<method-wrapper '__getattribute__' of IntegrityError object>"
p45
sS'args'
p46
S"(1452, 'Cannot add or update a child row: a foreign key ...tomer_ID`) REFERENCES `CUSTOMER` (`Customer_ID`))')"
p47
sS'__subclasshook__'
p48
S'<built-in method __subclasshook__ of type object>'
p49
sS'__unicode__'
p50
S'<built-in method __unicode__ of IntegrityError object>'
p51
sS'__delattr__'
p52
S"<method-wrapper '__delattr__' of IntegrityError object>"
p53
sS'__repr__'
p54
S"<method-wrapper '__repr__' of IntegrityError object>"
p55
sS'__hash__'
p56
S"<method-wrapper '__hash__' of IntegrityError object>"
p57
ssS'evalue'
p58
S"(1452, 'Cannot add or update a child row: a foreign key constraint fails (`DBPHASE3`.`BOUGHT`, CONSTRAINT `BOUGHT_ibfk_1` FOREIGN KEY (`Customer_ID`) REFERENCES `CUSTOMER` (`Customer_ID`))')"
p59
sS'request'
p60
ccopy_reg
_reconstructor
p61
(cgluon.html
BEAUTIFY
p62
c__builtin__
object
p63
NtRp64
(dp65
S'attributes'
p66
(dp67
sS'components'
p68
(lp69
g61
(cgluon.html
TABLE
p70
g63
NtRp71
(dp72
g66
(dp73
S'level'
p74
I5
ssS'parent'
p75
Nsg68
(lp76
g61
(cgluon.html
TR
p77
g63
NtRp78
(dp79
g66
(dp80
sg75
g71
sg68
(lp81
g61
(cgluon.html
TD
p82
g63
NtRp83
(dp84
g66
(dp85
S'_style'
p86
S'font-weight:bold;vertical-align:top'
p87
ssg75
g78
sg68
(lp88
S'ajax'
p89
asbag61
(g82
g63
NtRp90
(dp91
g66
(dp92
S'_valign'
p93
S'top'
p94
ssg75
g78
sg68
(lp95
S':'
asbag61
(g82
g63
NtRp96
(dp97
g66
(dp98
sg75
g78
sg68
(lp99
g61
(g62
g63
NtRp100
(dp101
g66
(dp102
g74
I5
ssg75
g96
sg68
(lp103
S'False'
p104
asbasbasbag61
(g77
g63
NtRp105
(dp106
g66
(dp107
sg75
g71
sg68
(lp108
g61
(g82
g63
NtRp109
(dp110
g66
(dp111
g86
g87
ssg75
g105
sg68
(lp112
S'application'
p113
asbag61
(g82
g63
NtRp114
(dp115
g66
(dp116
g93
g94
ssg75
g105
sg68
(lp117
S':'
asbag61
(g82
g63
NtRp118
(dp119
g66
(dp120
sg75
g105
sg68
(lp121
g61
(g62
g63
NtRp122
(dp123
g66
(dp124
g74
I5
ssg75
g118
sg68
(lp125
S'GoGreen_Motors_2'
p126
asbasbasbag61
(g77
g63
NtRp127
(dp128
g66
(dp129
sg75
g71
sg68
(lp130
g61
(g82
g63
NtRp131
(dp132
g66
(dp133
g86
g87
ssg75
g127
sg68
(lp134
g46
asbag61
(g82
g63
NtRp135
(dp136
g66
(dp137
g93
g94
ssg75
g127
sg68
(lp138
S':'
asbag61
(g82
g63
NtRp139
(dp140
g66
(dp141
sg75
g127
sg68
(lp142
g61
(g62
g63
NtRp143
(dp144
g66
(dp145
g74
I5
ssg75
g139
sg68
(lp146
g61
(g70
g63
NtRp147
(dp148
g66
(dp149
g74
I4
ssg75
Nsg68
(lp150
sbasbasbasbag61
(g77
g63
NtRp151
(dp152
g66
(dp153
sg75
g71
sg68
(lp154
g61
(g82
g63
NtRp155
(dp156
g66
(dp157
g86
g87
ssg75
g151
sg68
(lp158
S'body'
p159
asbag61
(g82
g63
NtRp160
(dp161
g66
(dp162
g93
g94
ssg75
g151
sg68
(lp163
S':'
asbag61
(g82
g63
NtRp164
(dp165
g66
(dp166
sg75
g151
sg68
(lp167
g61
(g62
g63
NtRp168
(dp169
g66
(dp170
g74
I5
ssg75
g164
sg68
(lp171
S"<open file '<fdopen>', mode 'w+b' at 0x7fa08420ed20>"
p172
asbasbasbag61
(g77
g63
NtRp173
(dp174
g66
(dp175
sg75
g71
sg68
(lp176
g61
(g82
g63
NtRp177
(dp178
g66
(dp179
g86
g87
ssg75
g173
sg68
(lp180
S'cid'
p181
asbag61
(g82
g63
NtRp182
(dp183
g66
(dp184
g93
g94
ssg75
g173
sg68
(lp185
S':'
asbag61
(g82
g63
NtRp186
(dp187
g66
(dp188
sg75
g173
sg68
(lp189
g61
(g62
g63
NtRp190
(dp191
g66
(dp192
g74
I5
ssg75
g186
sg68
(lp193
S'None'
p194
asbasbasbag61
(g77
g63
NtRp195
(dp196
g66
(dp197
sg75
g71
sg68
(lp198
g61
(g82
g63
NtRp199
(dp200
g66
(dp201
g86
g87
ssg75
g195
sg68
(lp202
S'client'
p203
asbag61
(g82
g63
NtRp204
(dp205
g66
(dp206
g93
g94
ssg75
g195
sg68
(lp207
S':'
asbag61
(g82
g63
NtRp208
(dp209
g66
(dp210
sg75
g195
sg68
(lp211
g61
(g62
g63
NtRp212
(dp213
g66
(dp214
g74
I5
ssg75
g208
sg68
(lp215
S'127.0.0.1'
p216
asbasbasbag61
(g77
g63
NtRp217
(dp218
g66
(dp219
sg75
g71
sg68
(lp220
g61
(g82
g63
NtRp221
(dp222
g66
(dp223
g86
g87
ssg75
g217
sg68
(lp224
S'controller'
p225
asbag61
(g82
g63
NtRp226
(dp227
g66
(dp228
g93
g94
ssg75
g217
sg68
(lp229
S':'
asbag61
(g82
g63
NtRp230
(dp231
g66
(dp232
sg75
g217
sg68
(lp233
g61
(g62
g63
NtRp234
(dp235
g66
(dp236
g74
I5
ssg75
g230
sg68
(lp237
S'default'
p238
asbasbasbag61
(g77
g63
NtRp239
(dp240
g66
(dp241
sg75
g71
sg68
(lp242
g61
(g82
g63
NtRp243
(dp244
g66
(dp245
g86
g87
ssg75
g239
sg68
(lp246
S'cookies'
p247
asbag61
(g82
g63
NtRp248
(dp249
g66
(dp250
g93
g94
ssg75
g239
sg68
(lp251
S':'
asbag61
(g82
g63
NtRp252
(dp253
g66
(dp254
sg75
g239
sg68
(lp255
g61
(g62
g63
NtRp256
(dp257
g66
(dp258
g74
I5
ssg75
g252
sg68
(lp259
g61
(g70
g63
NtRp260
(dp261
g66
(dp262
g74
I4
ssg75
Nsg68
(lp263
g61
(g77
g63
NtRp264
(dp265
g66
(dp266
sg75
g260
sg68
(lp267
g61
(g82
g63
NtRp268
(dp269
g66
(dp270
g86
g87
ssg75
g264
sg68
(lp271
S'session_id_admin'
p272
asbag61
(g82
g63
NtRp273
(dp274
g66
(dp275
g93
g94
ssg75
g264
sg68
(lp276
S':'
asbag61
(g82
g63
NtRp277
(dp278
g66
(dp279
sg75
g264
sg68
(lp280
g61
(g62
g63
NtRp281
(dp282
g66
(dp283
g74
I4
ssg75
g277
sg68
(lp284
S'127.0.0.1-32a52561-f000-4a73-90e1-bca802325e3e'
p285
ag61
(g70
g63
NtRp286
(dp287
g66
(dp288
g74
I3
ssg75
Nsg68
(lp289
g61
(g77
g63
NtRp290
(dp291
g66
(dp292
sg75
g286
sg68
(lp293
g61
(g82
g63
NtRp294
(dp295
g66
(dp296
g86
g87
ssg75
g290
sg68
(lp297
S'comment'
p298
asbag61
(g82
g63
NtRp299
(dp300
g66
(dp301
g93
g94
ssg75
g290
sg68
(lp302
S':'
asbag61
(g82
g63
NtRp303
(dp304
g66
(dp305
sg75
g290
sg68
(lp306
g61
(g62
g63
NtRp307
(dp308
g66
(dp309
g74
I3
ssg75
g303
sg68
(lp310
S''
asbasbasbag61
(g77
g63
NtRp311
(dp312
g66
(dp313
sg75
g286
sg68
(lp314
g61
(g82
g63
NtRp315
(dp316
g66
(dp317
g86
g87
ssg75
g311
sg68
(lp318
S'domain'
p319
asbag61
(g82
g63
NtRp320
(dp321
g66
(dp322
g93
g94
ssg75
g311
sg68
(lp323
S':'
asbag61
(g82
g63
NtRp324
(dp325
g66
(dp326
sg75
g311
sg68
(lp327
g61
(g62
g63
NtRp328
(dp329
g66
(dp330
g74
I3
ssg75
g324
sg68
(lp331
S''
asbasbasbag61
(g77
g63
NtRp332
(dp333
g66
(dp334
sg75
g286
sg68
(lp335
g61
(g82
g63
NtRp336
(dp337
g66
(dp338
g86
g87
ssg75
g332
sg68
(lp339
S'expires'
p340
asbag61
(g82
g63
NtRp341
(dp342
g66
(dp343
g93
g94
ssg75
g332
sg68
(lp344
S':'
asbag61
(g82
g63
NtRp345
(dp346
g66
(dp347
sg75
g332
sg68
(lp348
g61
(g62
g63
NtRp349
(dp350
g66
(dp351
g74
I3
ssg75
g345
sg68
(lp352
S''
asbasbasbag61
(g77
g63
NtRp353
(dp354
g66
(dp355
sg75
g286
sg68
(lp356
g61
(g82
g63
NtRp357
(dp358
g66
(dp359
g86
g87
ssg75
g353
sg68
(lp360
S'httponly'
p361
asbag61
(g82
g63
NtRp362
(dp363
g66
(dp364
g93
g94
ssg75
g353
sg68
(lp365
S':'
asbag61
(g82
g63
NtRp366
(dp367
g66
(dp368
sg75
g353
sg68
(lp369
g61
(g62
g63
NtRp370
(dp371
g66
(dp372
g74
I3
ssg75
g366
sg68
(lp373
S''
asbasbasbag61
(g77
g63
NtRp374
(dp375
g66
(dp376
sg75
g286
sg68
(lp377
g61
(g82
g63
NtRp378
(dp379
g66
(dp380
g86
g87
ssg75
g374
sg68
(lp381
S'max-age'
p382
asbag61
(g82
g63
NtRp383
(dp384
g66
(dp385
g93
g94
ssg75
g374
sg68
(lp386
S':'
asbag61
(g82
g63
NtRp387
(dp388
g66
(dp389
sg75
g374
sg68
(lp390
g61
(g62
g63
NtRp391
(dp392
g66
(dp393
g74
I3
ssg75
g387
sg68
(lp394
S''
asbasbasbag61
(g77
g63
NtRp395
(dp396
g66
(dp397
sg75
g286
sg68
(lp398
g61
(g82
g63
NtRp399
(dp400
g66
(dp401
g86
g87
ssg75
g395
sg68
(lp402
S'path'
p403
asbag61
(g82
g63
NtRp404
(dp405
g66
(dp406
g93
g94
ssg75
g395
sg68
(lp407
S':'
asbag61
(g82
g63
NtRp408
(dp409
g66
(dp410
sg75
g395
sg68
(lp411
g61
(g62
g63
NtRp412
(dp413
g66
(dp414
g74
I3
ssg75
g408
sg68
(lp415
S''
asbasbasbag61
(g77
g63
NtRp416
(dp417
g66
(dp418
sg75
g286
sg68
(lp419
g61
(g82
g63
NtRp420
(dp421
g66
(dp422
g86
g87
ssg75
g416
sg68
(lp423
S'secure'
p424
asbag61
(g82
g63
NtRp425
(dp426
g66
(dp427
g93
g94
ssg75
g416
sg68
(lp428
S':'
asbag61
(g82
g63
NtRp429
(dp430
g66
(dp431
sg75
g416
sg68
(lp432
g61
(g62
g63
NtRp433
(dp434
g66
(dp435
g74
I3
ssg75
g429
sg68
(lp436
S''
asbasbasbag61
(g77
g63
NtRp437
(dp438
g66
(dp439
sg75
g286
sg68
(lp440
g61
(g82
g63
NtRp441
(dp442
g66
(dp443
g86
g87
ssg75
g437
sg68
(lp444
S'version'
p445
asbag61
(g82
g63
NtRp446
(dp447
g66
(dp448
g93
g94
ssg75
g437
sg68
(lp449
S':'
asbag61
(g82
g63
NtRp450
(dp451
g66
(dp452
sg75
g437
sg68
(lp453
g61
(g62
g63
NtRp454
(dp455
g66
(dp456
g74
I3
ssg75
g450
sg68
(lp457
S''
asbasbasbasbasbasbasbag61
(g77
g63
NtRp458
(dp459
g66
(dp460
sg75
g260
sg68
(lp461
g61
(g82
g63
NtRp462
(dp463
g66
(dp464
g86
g87
ssg75
g458
sg68
(lp465
S'session_id_gogreen_motors'
p466
asbag61
(g82
g63
NtRp467
(dp468
g66
(dp469
g93
g94
ssg75
g458
sg68
(lp470
S':'
asbag61
(g82
g63
NtRp471
(dp472
g66
(dp473
sg75
g458
sg68
(lp474
g61
(g62
g63
NtRp475
(dp476
g66
(dp477
g74
I4
ssg75
g471
sg68
(lp478
S'127.0.0.1-112d03d3-9ed9-48f1-ac2f-957ce25761c8'
p479
ag61
(g70
g63
NtRp480
(dp481
g66
(dp482
g74
I3
ssg75
Nsg68
(lp483
g61
(g77
g63
NtRp484
(dp485
g66
(dp486
sg75
g480
sg68
(lp487
g61
(g82
g63
NtRp488
(dp489
g66
(dp490
g86
g87
ssg75
g484
sg68
(lp491
g298
asbag61
(g82
g63
NtRp492
(dp493
g66
(dp494
g93
g94
ssg75
g484
sg68
(lp495
S':'
asbag61
(g82
g63
NtRp496
(dp497
g66
(dp498
sg75
g484
sg68
(lp499
g61
(g62
g63
NtRp500
(dp501
g66
(dp502
g74
I3
ssg75
g496
sg68
(lp503
S''
asbasbasbag61
(g77
g63
NtRp504
(dp505
g66
(dp506
sg75
g480
sg68
(lp507
g61
(g82
g63
NtRp508
(dp509
g66
(dp510
g86
g87
ssg75
g504
sg68
(lp511
g319
asbag61
(g82
g63
NtRp512
(dp513
g66
(dp514
g93
g94
ssg75
g504
sg68
(lp515
S':'
asbag61
(g82
g63
NtRp516
(dp517
g66
(dp518
sg75
g504
sg68
(lp519
g61
(g62
g63
NtRp520
(dp521
g66
(dp522
g74
I3
ssg75
g516
sg68
(lp523
S''
asbasbasbag61
(g77
g63
NtRp524
(dp525
g66
(dp526
sg75
g480
sg68
(lp527
g61
(g82
g63
NtRp528
(dp529
g66
(dp530
g86
g87
ssg75
g524
sg68
(lp531
g340
asbag61
(g82
g63
NtRp532
(dp533
g66
(dp534
g93
g94
ssg75
g524
sg68
(lp535
S':'
asbag61
(g82
g63
NtRp536
(dp537
g66
(dp538
sg75
g524
sg68
(lp539
g61
(g62
g63
NtRp540
(dp541
g66
(dp542
g74
I3
ssg75
g536
sg68
(lp543
S''
asbasbasbag61
(g77
g63
NtRp544
(dp545
g66
(dp546
sg75
g480
sg68
(lp547
g61
(g82
g63
NtRp548
(dp549
g66
(dp550
g86
g87
ssg75
g544
sg68
(lp551
g361
asbag61
(g82
g63
NtRp552
(dp553
g66
(dp554
g93
g94
ssg75
g544
sg68
(lp555
S':'
asbag61
(g82
g63
NtRp556
(dp557
g66
(dp558
sg75
g544
sg68
(lp559
g61
(g62
g63
NtRp560
(dp561
g66
(dp562
g74
I3
ssg75
g556
sg68
(lp563
S''
asbasbasbag61
(g77
g63
NtRp564
(dp565
g66
(dp566
sg75
g480
sg68
(lp567
g61
(g82
g63
NtRp568
(dp569
g66
(dp570
g86
g87
ssg75
g564
sg68
(lp571
g382
asbag61
(g82
g63
NtRp572
(dp573
g66
(dp574
g93
g94
ssg75
g564
sg68
(lp575
S':'
asbag61
(g82
g63
NtRp576
(dp577
g66
(dp578
sg75
g564
sg68
(lp579
g61
(g62
g63
NtRp580
(dp581
g66
(dp582
g74
I3
ssg75
g576
sg68
(lp583
S''
asbasbasbag61
(g77
g63
NtRp584
(dp585
g66
(dp586
sg75
g480
sg68
(lp587
g61
(g82
g63
NtRp588
(dp589
g66
(dp590
g86
g87
ssg75
g584
sg68
(lp591
g403
asbag61
(g82
g63
NtRp592
(dp593
g66
(dp594
g93
g94
ssg75
g584
sg68
(lp595
S':'
asbag61
(g82
g63
NtRp596
(dp597
g66
(dp598
sg75
g584
sg68
(lp599
g61
(g62
g63
NtRp600
(dp601
g66
(dp602
g74
I3
ssg75
g596
sg68
(lp603
S''
asbasbasbag61
(g77
g63
NtRp604
(dp605
g66
(dp606
sg75
g480
sg68
(lp607
g61
(g82
g63
NtRp608
(dp609
g66
(dp610
g86
g87
ssg75
g604
sg68
(lp611
g424
asbag61
(g82
g63
NtRp612
(dp613
g66
(dp614
g93
g94
ssg75
g604
sg68
(lp615
S':'
asbag61
(g82
g63
NtRp616
(dp617
g66
(dp618
sg75
g604
sg68
(lp619
g61
(g62
g63
NtRp620
(dp621
g66
(dp622
g74
I3
ssg75
g616
sg68
(lp623
S''
asbasbasbag61
(g77
g63
NtRp624
(dp625
g66
(dp626
sg75
g480
sg68
(lp627
g61
(g82
g63
NtRp628
(dp629
g66
(dp630
g86
g87
ssg75
g624
sg68
(lp631
g445
asbag61
(g82
g63
NtRp632
(dp633
g66
(dp634
g93
g94
ssg75
g624
sg68
(lp635
S':'
asbag61
(g82
g63
NtRp636
(dp637
g66
(dp638
sg75
g624
sg68
(lp639
g61
(g62
g63
NtRp640
(dp641
g66
(dp642
g74
I3
ssg75
g636
sg68
(lp643
S''
asbasbasbasbasbasbasbag61
(g77
g63
NtRp644
(dp645
g66
(dp646
sg75
g260
sg68
(lp647
g61
(g82
g63
NtRp648
(dp649
g66
(dp650
g86
g87
ssg75
g644
sg68
(lp651
S'session_id_gogreen_motors_2'
p652
asbag61
(g82
g63
NtRp653
(dp654
g66
(dp655
g93
g94
ssg75
g644
sg68
(lp656
S':'
asbag61
(g82
g63
NtRp657
(dp658
g66
(dp659
sg75
g644
sg68
(lp660
g61
(g62
g63
NtRp661
(dp662
g66
(dp663
g74
I4
ssg75
g657
sg68
(lp664
S'127.0.0.1-7b9c0c70-b6cb-4ea9-8c10-36eb3d436819'
p665
ag61
(g70
g63
NtRp666
(dp667
g66
(dp668
g74
I3
ssg75
Nsg68
(lp669
g61
(g77
g63
NtRp670
(dp671
g66
(dp672
sg75
g666
sg68
(lp673
g61
(g82
g63
NtRp674
(dp675
g66
(dp676
g86
g87
ssg75
g670
sg68
(lp677
g298
asbag61
(g82
g63
NtRp678
(dp679
g66
(dp680
g93
g94
ssg75
g670
sg68
(lp681
S':'
asbag61
(g82
g63
NtRp682
(dp683
g66
(dp684
sg75
g670
sg68
(lp685
g61
(g62
g63
NtRp686
(dp687
g66
(dp688
g74
I3
ssg75
g682
sg68
(lp689
S''
asbasbasbag61
(g77
g63
NtRp690
(dp691
g66
(dp692
sg75
g666
sg68
(lp693
g61
(g82
g63
NtRp694
(dp695
g66
(dp696
g86
g87
ssg75
g690
sg68
(lp697
g319
asbag61
(g82
g63
NtRp698
(dp699
g66
(dp700
g93
g94
ssg75
g690
sg68
(lp701
S':'
asbag61
(g82
g63
NtRp702
(dp703
g66
(dp704
sg75
g690
sg68
(lp705
g61
(g62
g63
NtRp706
(dp707
g66
(dp708
g74
I3
ssg75
g702
sg68
(lp709
S''
asbasbasbag61
(g77
g63
NtRp710
(dp711
g66
(dp712
sg75
g666
sg68
(lp713
g61
(g82
g63
NtRp714
(dp715
g66
(dp716
g86
g87
ssg75
g710
sg68
(lp717
g340
asbag61
(g82
g63
NtRp718
(dp719
g66
(dp720
g93
g94
ssg75
g710
sg68
(lp721
S':'
asbag61
(g82
g63
NtRp722
(dp723
g66
(dp724
sg75
g710
sg68
(lp725
g61
(g62
g63
NtRp726
(dp727
g66
(dp728
g74
I3
ssg75
g722
sg68
(lp729
S''
asbasbasbag61
(g77
g63
NtRp730
(dp731
g66
(dp732
sg75
g666
sg68
(lp733
g61
(g82
g63
NtRp734
(dp735
g66
(dp736
g86
g87
ssg75
g730
sg68
(lp737
g361
asbag61
(g82
g63
NtRp738
(dp739
g66
(dp740
g93
g94
ssg75
g730
sg68
(lp741
S':'
asbag61
(g82
g63
NtRp742
(dp743
g66
(dp744
sg75
g730
sg68
(lp745
g61
(g62
g63
NtRp746
(dp747
g66
(dp748
g74
I3
ssg75
g742
sg68
(lp749
S''
asbasbasbag61
(g77
g63
NtRp750
(dp751
g66
(dp752
sg75
g666
sg68
(lp753
g61
(g82
g63
NtRp754
(dp755
g66
(dp756
g86
g87
ssg75
g750
sg68
(lp757
g382
asbag61
(g82
g63
NtRp758
(dp759
g66
(dp760
g93
g94
ssg75
g750
sg68
(lp761
S':'
asbag61
(g82
g63
NtRp762
(dp763
g66
(dp764
sg75
g750
sg68
(lp765
g61
(g62
g63
NtRp766
(dp767
g66
(dp768
g74
I3
ssg75
g762
sg68
(lp769
S''
asbasbasbag61
(g77
g63
NtRp770
(dp771
g66
(dp772
sg75
g666
sg68
(lp773
g61
(g82
g63
NtRp774
(dp775
g66
(dp776
g86
g87
ssg75
g770
sg68
(lp777
g403
asbag61
(g82
g63
NtRp778
(dp779
g66
(dp780
g93
g94
ssg75
g770
sg68
(lp781
S':'
asbag61
(g82
g63
NtRp782
(dp783
g66
(dp784
sg75
g770
sg68
(lp785
g61
(g62
g63
NtRp786
(dp787
g66
(dp788
g74
I3
ssg75
g782
sg68
(lp789
S''
asbasbasbag61
(g77
g63
NtRp790
(dp791
g66
(dp792
sg75
g666
sg68
(lp793
g61
(g82
g63
NtRp794
(dp795
g66
(dp796
g86
g87
ssg75
g790
sg68
(lp797
g424
asbag61
(g82
g63
NtRp798
(dp799
g66
(dp800
g93
g94
ssg75
g790
sg68
(lp801
S':'
asbag61
(g82
g63
NtRp802
(dp803
g66
(dp804
sg75
g790
sg68
(lp805
g61
(g62
g63
NtRp806
(dp807
g66
(dp808
g74
I3
ssg75
g802
sg68
(lp809
S''
asbasbasbag61
(g77
g63
NtRp810
(dp811
g66
(dp812
sg75
g666
sg68
(lp813
g61
(g82
g63
NtRp814
(dp815
g66
(dp816
g86
g87
ssg75
g810
sg68
(lp817
g445
asbag61
(g82
g63
NtRp818
(dp819
g66
(dp820
g93
g94
ssg75
g810
sg68
(lp821
S':'
asbag61
(g82
g63
NtRp822
(dp823
g66
(dp824
sg75
g810
sg68
(lp825
g61
(g62
g63
NtRp826
(dp827
g66
(dp828
g74
I3
ssg75
g822
sg68
(lp829
S''
asbasbasbasbasbasbasbag61
(g77
g63
NtRp830
(dp831
g66
(dp832
sg75
g260
sg68
(lp833
g61
(g82
g63
NtRp834
(dp835
g66
(dp836
g86
g87
ssg75
g830
sg68
(lp837
S'session_id_welcome'
p838
asbag61
(g82
g63
NtRp839
(dp840
g66
(dp841
g93
g94
ssg75
g830
sg68
(lp842
S':'
asbag61
(g82
g63
NtRp843
(dp844
g66
(dp845
sg75
g830
sg68
(lp846
g61
(g62
g63
NtRp847
(dp848
g66
(dp849
g74
I4
ssg75
g843
sg68
(lp850
S'127.0.0.1-b55dc8c1-3f58-490f-8267-c01e058493d9'
p851
ag61
(g70
g63
NtRp852
(dp853
g66
(dp854
g74
I3
ssg75
Nsg68
(lp855
g61
(g77
g63
NtRp856
(dp857
g66
(dp858
sg75
g852
sg68
(lp859
g61
(g82
g63
NtRp860
(dp861
g66
(dp862
g86
g87
ssg75
g856
sg68
(lp863
g298
asbag61
(g82
g63
NtRp864
(dp865
g66
(dp866
g93
g94
ssg75
g856
sg68
(lp867
S':'
asbag61
(g82
g63
NtRp868
(dp869
g66
(dp870
sg75
g856
sg68
(lp871
g61
(g62
g63
NtRp872
(dp873
g66
(dp874
g74
I3
ssg75
g868
sg68
(lp875
S''
asbasbasbag61
(g77
g63
NtRp876
(dp877
g66
(dp878
sg75
g852
sg68
(lp879
g61
(g82
g63
NtRp880
(dp881
g66
(dp882
g86
g87
ssg75
g876
sg68
(lp883
g319
asbag61
(g82
g63
NtRp884
(dp885
g66
(dp886
g93
g94
ssg75
g876
sg68
(lp887
S':'
asbag61
(g82
g63
NtRp888
(dp889
g66
(dp890
sg75
g876
sg68
(lp891
g61
(g62
g63
NtRp892
(dp893
g66
(dp894
g74
I3
ssg75
g888
sg68
(lp895
S''
asbasbasbag61
(g77
g63
NtRp896
(dp897
g66
(dp898
sg75
g852
sg68
(lp899
g61
(g82
g63
NtRp900
(dp901
g66
(dp902
g86
g87
ssg75
g896
sg68
(lp903
g340
asbag61
(g82
g63
NtRp904
(dp905
g66
(dp906
g93
g94
ssg75
g896
sg68
(lp907
S':'
asbag61
(g82
g63
NtRp908
(dp909
g66
(dp910
sg75
g896
sg68
(lp911
g61
(g62
g63
NtRp912
(dp913
g66
(dp914
g74
I3
ssg75
g908
sg68
(lp915
S''
asbasbasbag61
(g77
g63
NtRp916
(dp917
g66
(dp918
sg75
g852
sg68
(lp919
g61
(g82
g63
NtRp920
(dp921
g66
(dp922
g86
g87
ssg75
g916
sg68
(lp923
g361
asbag61
(g82
g63
NtRp924
(dp925
g66
(dp926
g93
g94
ssg75
g916
sg68
(lp927
S':'
asbag61
(g82
g63
NtRp928
(dp929
g66
(dp930
sg75
g916
sg68
(lp931
g61
(g62
g63
NtRp932
(dp933
g66
(dp934
g74
I3
ssg75
g928
sg68
(lp935
S''
asbasbasbag61
(g77
g63
NtRp936
(dp937
g66
(dp938
sg75
g852
sg68
(lp939
g61
(g82
g63
NtRp940
(dp941
g66
(dp942
g86
g87
ssg75
g936
sg68
(lp943
g382
asbag61
(g82
g63
NtRp944
(dp945
g66
(dp946
g93
g94
ssg75
g936
sg68
(lp947
S':'
asbag61
(g82
g63
NtRp948
(dp949
g66
(dp950
sg75
g936
sg68
(lp951
g61
(g62
g63
NtRp952
(dp953
g66
(dp954
g74
I3
ssg75
g948
sg68
(lp955
S''
asbasbasbag61
(g77
g63
NtRp956
(dp957
g66
(dp958
sg75
g852
sg68
(lp959
g61
(g82
g63
NtRp960
(dp961
g66
(dp962
g86
g87
ssg75
g956
sg68
(lp963
g403
asbag61
(g82
g63
NtRp964
(dp965
g66
(dp966
g93
g94
ssg75
g956
sg68
(lp967
S':'
asbag61
(g82
g63
NtRp968
(dp969
g66
(dp970
sg75
g956
sg68
(lp971
g61
(g62
g63
NtRp972
(dp973
g66
(dp974
g74
I3
ssg75
g968
sg68
(lp975
S''
asbasbasbag61
(g77
g63
NtRp976
(dp977
g66
(dp978
sg75
g852
sg68
(lp979
g61
(g82
g63
NtRp980
(dp981
g66
(dp982
g86
g87
ssg75
g976
sg68
(lp983
g424
asbag61
(g82
g63
NtRp984
(dp985
g66
(dp986
g93
g94
ssg75
g976
sg68
(lp987
S':'
asbag61
(g82
g63
NtRp988
(dp989
g66
(dp990
sg75
g976
sg68
(lp991
g61
(g62
g63
NtRp992
(dp993
g66
(dp994
g74
I3
ssg75
g988
sg68
(lp995
S''
asbasbasbag61
(g77
g63
NtRp996
(dp997
g66
(dp998
sg75
g852
sg68
(lp999
g61
(g82
g63
NtRp1000
(dp1001
g66
(dp1002
g86
g87
ssg75
g996
sg68
(lp1003
g445
asbag61
(g82
g63
NtRp1004
(dp1005
g66
(dp1006
g93
g94
ssg75
g996
sg68
(lp1007
S':'
asbag61
(g82
g63
NtRp1008
(dp1009
g66
(dp1010
sg75
g996
sg68
(lp1011
g61
(g62
g63
NtRp1012
(dp1013
g66
(dp1014
g74
I3
ssg75
g1008
sg68
(lp1015
S''
asbasbasbasbasbasbasbasbasbasbasbag61
(g77
g63
NtRp1016
(dp1017
g66
(dp1018
sg75
g71
sg68
(lp1019
g61
(g82
g63
NtRp1020
(dp1021
g66
(dp1022
g86
g87
ssg75
g1016
sg68
(lp1023
S'env'
p1024
asbag61
(g82
g63
NtRp1025
(dp1026
g66
(dp1027
g93
g94
ssg75
g1016
sg68
(lp1028
S':'
asbag61
(g82
g63
NtRp1029
(dp1030
g66
(dp1031
sg75
g1016
sg68
(lp1032
g61
(g62
g63
NtRp1033
(dp1034
g66
(dp1035
g74
I5
ssg75
g1029
sg68
(lp1036
g61
(g70
g63
NtRp1037
(dp1038
g66
(dp1039
g74
I4
ssg75
Nsg68
(lp1040
g61
(g77
g63
NtRp1041
(dp1042
g66
(dp1043
sg75
g1037
sg68
(lp1044
g61
(g82
g63
NtRp1045
(dp1046
g66
(dp1047
g86
g87
ssg75
g1041
sg68
(lp1048
S'app_folders'
p1049
asbag61
(g82
g63
NtRp1050
(dp1051
g66
(dp1052
g93
g94
ssg75
g1041
sg68
(lp1053
S':'
asbag61
(g82
g63
NtRp1054
(dp1055
g66
(dp1056
sg75
g1041
sg68
(lp1057
g61
(g62
g63
NtRp1058
(dp1059
g66
(dp1060
g74
I4
ssg75
g1054
sg68
(lp1061
S"set(['/home/urvashi/Desktop/WEB2PY/web2py/applications/admin/', '/home/urvashi/Desktop/WEB2PY/web2py/applications/welcome/', '/home/urvashi/Desktop/WEB2PY/web2py/applications/GoGreen_Motors_2/', '/home/urvashi/Desktop/WEB2PY/web2py/applications/GoGreen_Motors/'])"
p1062
asbasbasbag61
(g77
g63
NtRp1063
(dp1064
g66
(dp1065
sg75
g1037
sg68
(lp1066
g61
(g82
g63
NtRp1067
(dp1068
g66
(dp1069
g86
g87
ssg75
g1063
sg68
(lp1070
S'applications_parent'
p1071
asbag61
(g82
g63
NtRp1072
(dp1073
g66
(dp1074
g93
g94
ssg75
g1063
sg68
(lp1075
S':'
asbag61
(g82
g63
NtRp1076
(dp1077
g66
(dp1078
sg75
g1063
sg68
(lp1079
g61
(g62
g63
NtRp1080
(dp1081
g66
(dp1082
g74
I4
ssg75
g1076
sg68
(lp1083
S'/home/urvashi/Desktop/WEB2PY/web2py'
p1084
asbasbasbag61
(g77
g63
NtRp1085
(dp1086
g66
(dp1087
sg75
g1037
sg68
(lp1088
g61
(g82
g63
NtRp1089
(dp1090
g66
(dp1091
g86
g87
ssg75
g1085
sg68
(lp1092
S'cmd_args'
p1093
asbag61
(g82
g63
NtRp1094
(dp1095
g66
(dp1096
g93
g94
ssg75
g1085
sg68
(lp1097
S':'
asbag61
(g82
g63
NtRp1098
(dp1099
g66
(dp1100
sg75
g1085
sg68
(lp1101
g61
(g62
g63
NtRp1102
(dp1103
g66
(dp1104
g74
I4
ssg75
g1098
sg68
(lp1105
g61
(g70
g63
NtRp1106
(dp1107
g66
(dp1108
g74
I3
ssg75
Nsg68
(lp1109
sbasbasbasbag61
(g77
g63
NtRp1110
(dp1111
g66
(dp1112
sg75
g1037
sg68
(lp1113
g61
(g82
g63
NtRp1114
(dp1115
g66
(dp1116
g86
g87
ssg75
g1110
sg68
(lp1117
S'cmd_options'
p1118
asbag61
(g82
g63
NtRp1119
(dp1120
g66
(dp1121
g93
g94
ssg75
g1110
sg68
(lp1122
S':'
asbag61
(g82
g63
NtRp1123
(dp1124
g66
(dp1125
sg75
g1110
sg68
(lp1126
g61
(g62
g63
NtRp1127
(dp1128
g66
(dp1129
g74
I4
ssg75
g1123
sg68
(lp1130
S"<Values at 0x21632d8: {'verbose': False, 'ip': '127.0.0.1', 'with_scheduler': False, 'ips': [], 'shutdown_timeout': 5, 'taskbar': False, 'port': 8000, 'maxthreads': None, 'softcron': False, 'server_name': 'urvashi-VPCEH35EN', 'bpython': False, 'nogui': False, 'pid_filename': 'httpserver.pid', 'extcron': False, 'runcron': False, 'run_system_tests': False, 'test': None, 'folder': '/home/urvashi/Desktop/WEB2PY/web2py', 'config': '', 'minthreads': None, 'winservice': '', 'shell': None, 'run': '', 'log_filename': 'httpserver.log', 'debuglevel': 30, 'args': [''], 'socket_timeout': 5, 'ssl_ca_certificate': None, 'scheduler': None, 'profiler_filename': None, 'ssl_private_key': '', 'scheduler_groups': None, 'password': '123', 'request_queue_size': 5, 'ssl_certificate': '', 'cronjob': False, 'numthreads': None, 'quiet': False, 'interfaces': None, 'import_models': False, 'timeout': 10, 'plain': False, 'nobanner': False}>"
p1131
asbasbasbag61
(g77
g63
NtRp1132
(dp1133
g66
(dp1134
sg75
g1037
sg68
(lp1135
g61
(g82
g63
NtRp1136
(dp1137
g66
(dp1138
g86
g87
ssg75
g1132
sg68
(lp1139
S'content_length'
p1140
asbag61
(g82
g63
NtRp1141
(dp1142
g66
(dp1143
g93
g94
ssg75
g1132
sg68
(lp1144
S':'
asbag61
(g82
g63
NtRp1145
(dp1146
g66
(dp1147
sg75
g1132
sg68
(lp1148
g61
(g62
g63
NtRp1149
(dp1150
g66
(dp1151
g74
I4
ssg75
g1145
sg68
(lp1152
S'709'
p1153
asbasbasbag61
(g77
g63
NtRp1154
(dp1155
g66
(dp1156
sg75
g1037
sg68
(lp1157
g61
(g82
g63
NtRp1158
(dp1159
g66
(dp1160
g86
g87
ssg75
g1154
sg68
(lp1161
S'content_type'
p1162
asbag61
(g82
g63
NtRp1163
(dp1164
g66
(dp1165
g93
g94
ssg75
g1154
sg68
(lp1166
S':'
asbag61
(g82
g63
NtRp1167
(dp1168
g66
(dp1169
sg75
g1154
sg68
(lp1170
g61
(g62
g63
NtRp1171
(dp1172
g66
(dp1173
g74
I4
ssg75
g1167
sg68
(lp1174
S'multipart/form-data; boundary=---------------------------146149113214068127831252907429'
p1175
asbasbasbag61
(g77
g63
NtRp1176
(dp1177
g66
(dp1178
sg75
g1037
sg68
(lp1179
g61
(g82
g63
NtRp1180
(dp1181
g66
(dp1182
g86
g87
ssg75
g1176
sg68
(lp1183
S'db_sessions'
p1184
asbag61
(g82
g63
NtRp1185
(dp1186
g66
(dp1187
g93
g94
ssg75
g1176
sg68
(lp1188
S':'
asbag61
(g82
g63
NtRp1189
(dp1190
g66
(dp1191
sg75
g1176
sg68
(lp1192
g61
(g62
g63
NtRp1193
(dp1194
g66
(dp1195
g74
I4
ssg75
g1189
sg68
(lp1196
S'set([])'
p1197
asbasbasbag61
(g77
g63
NtRp1198
(dp1199
g66
(dp1200
sg75
g1037
sg68
(lp1201
g61
(g82
g63
NtRp1202
(dp1203
g66
(dp1204
g86
g87
ssg75
g1198
sg68
(lp1205
S'debugging'
p1206
asbag61
(g82
g63
NtRp1207
(dp1208
g66
(dp1209
g93
g94
ssg75
g1198
sg68
(lp1210
S':'
asbag61
(g82
g63
NtRp1211
(dp1212
g66
(dp1213
sg75
g1198
sg68
(lp1214
g61
(g62
g63
NtRp1215
(dp1216
g66
(dp1217
g74
I4
ssg75
g1211
sg68
(lp1218
g104
asbasbasbag61
(g77
g63
NtRp1219
(dp1220
g66
(dp1221
sg75
g1037
sg68
(lp1222
g61
(g82
g63
NtRp1223
(dp1224
g66
(dp1225
g86
g87
ssg75
g1219
sg68
(lp1226
S'gluon_parent'
p1227
asbag61
(g82
g63
NtRp1228
(dp1229
g66
(dp1230
g93
g94
ssg75
g1219
sg68
(lp1231
S':'
asbag61
(g82
g63
NtRp1232
(dp1233
g66
(dp1234
sg75
g1219
sg68
(lp1235
g61
(g62
g63
NtRp1236
(dp1237
g66
(dp1238
g74
I4
ssg75
g1232
sg68
(lp1239
S'/home/urvashi/Desktop/WEB2PY/web2py'
p1240
asbasbasbag61
(g77
g63
NtRp1241
(dp1242
g66
(dp1243
sg75
g1037
sg68
(lp1244
g61
(g82
g63
NtRp1245
(dp1246
g66
(dp1247
g86
g87
ssg75
g1241
sg68
(lp1248
S'http_accept'
p1249
asbag61
(g82
g63
NtRp1250
(dp1251
g66
(dp1252
g93
g94
ssg75
g1241
sg68
(lp1253
S':'
asbag61
(g82
g63
NtRp1254
(dp1255
g66
(dp1256
sg75
g1241
sg68
(lp1257
g61
(g62
g63
NtRp1258
(dp1259
g66
(dp1260
g74
I4
ssg75
g1254
sg68
(lp1261
S'text/html,application/xhtml+xml,application/xml;q=0.9,*/*;q=0.8'
p1262
asbasbasbag61
(g77
g63
NtRp1263
(dp1264
g66
(dp1265
sg75
g1037
sg68
(lp1266
g61
(g82
g63
NtRp1267
(dp1268
g66
(dp1269
g86
g87
ssg75
g1263
sg68
(lp1270
S'http_accept_encoding'
p1271
asbag61
(g82
g63
NtRp1272
(dp1273
g66
(dp1274
g93
g94
ssg75
g1263
sg68
(lp1275
S':'
asbag61
(g82
g63
NtRp1276
(dp1277
g66
(dp1278
sg75
g1263
sg68
(lp1279
g61
(g62
g63
NtRp1280
(dp1281
g66
(dp1282
g74
I4
ssg75
g1276
sg68
(lp1283
S'gzip, deflate'
p1284
asbasbasbag61
(g77
g63
NtRp1285
(dp1286
g66
(dp1287
sg75
g1037
sg68
(lp1288
g61
(g82
g63
NtRp1289
(dp1290
g66
(dp1291
g86
g87
ssg75
g1285
sg68
(lp1292
S'http_accept_language'
p1293
asbag61
(g82
g63
NtRp1294
(dp1295
g66
(dp1296
g93
g94
ssg75
g1285
sg68
(lp1297
S':'
asbag61
(g82
g63
NtRp1298
(dp1299
g66
(dp1300
sg75
g1285
sg68
(lp1301
g61
(g62
g63
NtRp1302
(dp1303
g66
(dp1304
g74
I4
ssg75
g1298
sg68
(lp1305
S'en-us,en;q=0.5'
p1306
asbasbasbag61
(g77
g63
NtRp1307
(dp1308
g66
(dp1309
sg75
g1037
sg68
(lp1310
g61
(g82
g63
NtRp1311
(dp1312
g66
(dp1313
g86
g87
ssg75
g1307
sg68
(lp1314
S'http_connection'
p1315
asbag61
(g82
g63
NtRp1316
(dp1317
g66
(dp1318
g93
g94
ssg75
g1307
sg68
(lp1319
S':'
asbag61
(g82
g63
NtRp1320
(dp1321
g66
(dp1322
sg75
g1307
sg68
(lp1323
g61
(g62
g63
NtRp1324
(dp1325
g66
(dp1326
g74
I4
ssg75
g1320
sg68
(lp1327
S'keep-alive'
p1328
asbasbasbag61
(g77
g63
NtRp1329
(dp1330
g66
(dp1331
sg75
g1037
sg68
(lp1332
g61
(g82
g63
NtRp1333
(dp1334
g66
(dp1335
g86
g87
ssg75
g1329
sg68
(lp1336
S'http_content_length'
p1337
asbag61
(g82
g63
NtRp1338
(dp1339
g66
(dp1340
g93
g94
ssg75
g1329
sg68
(lp1341
S':'
asbag61
(g82
g63
NtRp1342
(dp1343
g66
(dp1344
sg75
g1329
sg68
(lp1345
g61
(g62
g63
NtRp1346
(dp1347
g66
(dp1348
g74
I4
ssg75
g1342
sg68
(lp1349
g1153
asbasbasbag61
(g77
g63
NtRp1350
(dp1351
g66
(dp1352
sg75
g1037
sg68
(lp1353
g61
(g82
g63
NtRp1354
(dp1355
g66
(dp1356
g86
g87
ssg75
g1350
sg68
(lp1357
S'http_content_type'
p1358
asbag61
(g82
g63
NtRp1359
(dp1360
g66
(dp1361
g93
g94
ssg75
g1350
sg68
(lp1362
S':'
asbag61
(g82
g63
NtRp1363
(dp1364
g66
(dp1365
sg75
g1350
sg68
(lp1366
g61
(g62
g63
NtRp1367
(dp1368
g66
(dp1369
g74
I4
ssg75
g1363
sg68
(lp1370
g1175
asbasbasbag61
(g77
g63
NtRp1371
(dp1372
g66
(dp1373
sg75
g1037
sg68
(lp1374
g61
(g82
g63
NtRp1375
(dp1376
g66
(dp1377
g86
g87
ssg75
g1371
sg68
(lp1378
S'http_cookie'
p1379
asbag61
(g82
g63
NtRp1380
(dp1381
g66
(dp1382
g93
g94
ssg75
g1371
sg68
(lp1383
S':'
asbag61
(g82
g63
NtRp1384
(dp1385
g66
(dp1386
sg75
g1371
sg68
(lp1387
g61
(g62
g63
NtRp1388
(dp1389
g66
(dp1390
g74
I4
ssg75
g1384
sg68
(lp1391
S'session_id_welcome=127.0.0.1-b55dc8c1-3f58-490f-8267-c01e058493d9; session_id_admin=127.0.0.1-32a52561-f000-4a73-90e1-bca802325e3e; session_id_gogreen_motors_2=127.0.0.1-7b9c0c70-b6cb-4ea9-8c10-36eb3d436819; session_id_gogreen_motors=127.0.0.1-112d03d3-9ed9-48f1-ac2f-957ce25761c8'
p1392
asbasbasbag61
(g77
g63
NtRp1393
(dp1394
g66
(dp1395
sg75
g1037
sg68
(lp1396
g61
(g82
g63
NtRp1397
(dp1398
g66
(dp1399
g86
g87
ssg75
g1393
sg68
(lp1400
S'http_host'
p1401
asbag61
(g82
g63
NtRp1402
(dp1403
g66
(dp1404
g93
g94
ssg75
g1393
sg68
(lp1405
S':'
asbag61
(g82
g63
NtRp1406
(dp1407
g66
(dp1408
sg75
g1393
sg68
(lp1409
g61
(g62
g63
NtRp1410
(dp1411
g66
(dp1412
g74
I4
ssg75
g1406
sg68
(lp1413
S'127.0.0.1:8000'
p1414
asbasbasbag61
(g77
g63
NtRp1415
(dp1416
g66
(dp1417
sg75
g1037
sg68
(lp1418
g61
(g82
g63
NtRp1419
(dp1420
g66
(dp1421
g86
g87
ssg75
g1415
sg68
(lp1422
S'http_referer'
p1423
asbag61
(g82
g63
NtRp1424
(dp1425
g66
(dp1426
g93
g94
ssg75
g1415
sg68
(lp1427
S':'
asbag61
(g82
g63
NtRp1428
(dp1429
g66
(dp1430
sg75
g1415
sg68
(lp1431
g61
(g62
g63
NtRp1432
(dp1433
g66
(dp1434
g74
I4
ssg75
g1428
sg68
(lp1435
S'http://127.0.0.1:8000/GoGreen_Motors_2/default/add_sale'
p1436
asbasbasbag61
(g77
g63
NtRp1437
(dp1438
g66
(dp1439
sg75
g1037
sg68
(lp1440
g61
(g82
g63
NtRp1441
(dp1442
g66
(dp1443
g86
g87
ssg75
g1437
sg68
(lp1444
S'http_user_agent'
p1445
asbag61
(g82
g63
NtRp1446
(dp1447
g66
(dp1448
g93
g94
ssg75
g1437
sg68
(lp1449
S':'
asbag61
(g82
g63
NtRp1450
(dp1451
g66
(dp1452
sg75
g1437
sg68
(lp1453
g61
(g62
g63
NtRp1454
(dp1455
g66
(dp1456
g74
I4
ssg75
g1450
sg68
(lp1457
S'Mozilla/5.0 (X11; Ubuntu; Linux x86_64; rv:11.0) Gecko/20100101 Firefox/11.0'
p1458
asbasbasbag61
(g77
g63
NtRp1459
(dp1460
g66
(dp1461
sg75
g1037
sg68
(lp1462
g61
(g82
g63
NtRp1463
(dp1464
g66
(dp1465
g86
g87
ssg75
g1459
sg68
(lp1466
S'is_jython'
p1467
asbag61
(g82
g63
NtRp1468
(dp1469
g66
(dp1470
g93
g94
ssg75
g1459
sg68
(lp1471
S':'
asbag61
(g82
g63
NtRp1472
(dp1473
g66
(dp1474
sg75
g1459
sg68
(lp1475
g61
(g62
g63
NtRp1476
(dp1477
g66
(dp1478
g74
I4
ssg75
g1472
sg68
(lp1479
g104
asbasbasbag61
(g77
g63
NtRp1480
(dp1481
g66
(dp1482
sg75
g1037
sg68
(lp1483
g61
(g82
g63
NtRp1484
(dp1485
g66
(dp1486
g86
g87
ssg75
g1480
sg68
(lp1487
S'is_pypy'
p1488
asbag61
(g82
g63
NtRp1489
(dp1490
g66
(dp1491
g93
g94
ssg75
g1480
sg68
(lp1492
S':'
asbag61
(g82
g63
NtRp1493
(dp1494
g66
(dp1495
sg75
g1480
sg68
(lp1496
g61
(g62
g63
NtRp1497
(dp1498
g66
(dp1499
g74
I4
ssg75
g1493
sg68
(lp1500
g104
asbasbasbag61
(g77
g63
NtRp1501
(dp1502
g66
(dp1503
sg75
g1037
sg68
(lp1504
g61
(g82
g63
NtRp1505
(dp1506
g66
(dp1507
g86
g87
ssg75
g1501
sg68
(lp1508
S'local_hosts'
p1509
asbag61
(g82
g63
NtRp1510
(dp1511
g66
(dp1512
g93
g94
ssg75
g1501
sg68
(lp1513
S':'
asbag61
(g82
g63
NtRp1514
(dp1515
g66
(dp1516
sg75
g1501
sg68
(lp1517
g61
(g62
g63
NtRp1518
(dp1519
g66
(dp1520
g74
I4
ssg75
g1514
sg68
(lp1521
g61
(g70
g63
NtRp1522
(dp1523
g66
(dp1524
g74
I3
ssg75
Nsg68
(lp1525
g61
(g77
g63
NtRp1526
(dp1527
g66
(dp1528
sg75
g1522
sg68
(lp1529
g61
(g82
g63
NtRp1530
(dp1531
g66
(dp1532
sg75
g1526
sg68
(lp1533
g61
(g62
g63
NtRp1534
(dp1535
g66
(dp1536
g74
I3
ssg75
g1530
sg68
(lp1537
S'::1'
p1538
asbasbasbag61
(g77
g63
NtRp1539
(dp1540
g66
(dp1541
sg75
g1522
sg68
(lp1542
g61
(g82
g63
NtRp1543
(dp1544
g66
(dp1545
sg75
g1539
sg68
(lp1546
g61
(g62
g63
NtRp1547
(dp1548
g66
(dp1549
g74
I3
ssg75
g1543
sg68
(lp1550
S'127.0.1.1'
p1551
asbasbasbag61
(g77
g63
NtRp1552
(dp1553
g66
(dp1554
sg75
g1522
sg68
(lp1555
g61
(g82
g63
NtRp1556
(dp1557
g66
(dp1558
sg75
g1552
sg68
(lp1559
g61
(g62
g63
NtRp1560
(dp1561
g66
(dp1562
g74
I3
ssg75
g1556
sg68
(lp1563
S'::ffff:127.0.0.1'
p1564
asbasbasbag61
(g77
g63
NtRp1565
(dp1566
g66
(dp1567
sg75
g1522
sg68
(lp1568
g61
(g82
g63
NtRp1569
(dp1570
g66
(dp1571
sg75
g1565
sg68
(lp1572
g61
(g62
g63
NtRp1573
(dp1574
g66
(dp1575
g74
I3
ssg75
g1569
sg68
(lp1576
S'127.0.0.1'
p1577
asbasbasbag61
(g77
g63
NtRp1578
(dp1579
g66
(dp1580
sg75
g1522
sg68
(lp1581
g61
(g82
g63
NtRp1582
(dp1583
g66
(dp1584
sg75
g1578
sg68
(lp1585
g61
(g62
g63
NtRp1586
(dp1587
g66
(dp1588
g74
I3
ssg75
g1582
sg68
(lp1589
S'urvashi-VPCEH35EN'
p1590
asbasbasbasbasbasbasbag61
(g77
g63
NtRp1591
(dp1592
g66
(dp1593
sg75
g1037
sg68
(lp1594
g61
(g82
g63
NtRp1595
(dp1596
g66
(dp1597
g86
g87
ssg75
g1591
sg68
(lp1598
S'path_info'
p1599
asbag61
(g82
g63
NtRp1600
(dp1601
g66
(dp1602
g93
g94
ssg75
g1591
sg68
(lp1603
S':'
asbag61
(g82
g63
NtRp1604
(dp1605
g66
(dp1606
sg75
g1591
sg68
(lp1607
g61
(g62
g63
NtRp1608
(dp1609
g66
(dp1610
g74
I4
ssg75
g1604
sg68
(lp1611
S'/GoGreen_Motors_2/default/add_sale'
p1612
asbasbasbag61
(g77
g63
NtRp1613
(dp1614
g66
(dp1615
sg75
g1037
sg68
(lp1616
g61
(g82
g63
NtRp1617
(dp1618
g66
(dp1619
g86
g87
ssg75
g1613
sg68
(lp1620
S'query_string'
p1621
asbag61
(g82
g63
NtRp1622
(dp1623
g66
(dp1624
g93
g94
ssg75
g1613
sg68
(lp1625
S':'
asbag61
(g82
g63
NtRp1626
(dp1627
g66
(dp1628
sg75
g1613
sg68
(lp1629
g61
(g62
g63
NtRp1630
(dp1631
g66
(dp1632
g74
I4
ssg75
g1626
sg68
(lp1633
S''
asbasbasbag61
(g77
g63
NtRp1634
(dp1635
g66
(dp1636
sg75
g1037
sg68
(lp1637
g61
(g82
g63
NtRp1638
(dp1639
g66
(dp1640
g86
g87
ssg75
g1634
sg68
(lp1641
S'remote_addr'
p1642
asbag61
(g82
g63
NtRp1643
(dp1644
g66
(dp1645
g93
g94
ssg75
g1634
sg68
(lp1646
S':'
asbag61
(g82
g63
NtRp1647
(dp1648
g66
(dp1649
sg75
g1634
sg68
(lp1650
g61
(g62
g63
NtRp1651
(dp1652
g66
(dp1653
g74
I4
ssg75
g1647
sg68
(lp1654
g216
asbasbasbag61
(g77
g63
NtRp1655
(dp1656
g66
(dp1657
sg75
g1037
sg68
(lp1658
g61
(g82
g63
NtRp1659
(dp1660
g66
(dp1661
g86
g87
ssg75
g1655
sg68
(lp1662
S'remote_port'
p1663
asbag61
(g82
g63
NtRp1664
(dp1665
g66
(dp1666
g93
g94
ssg75
g1655
sg68
(lp1667
S':'
asbag61
(g82
g63
NtRp1668
(dp1669
g66
(dp1670
sg75
g1655
sg68
(lp1671
g61
(g62
g63
NtRp1672
(dp1673
g66
(dp1674
g74
I4
ssg75
g1668
sg68
(lp1675
S'36110'
p1676
asbasbasbag61
(g77
g63
NtRp1677
(dp1678
g66
(dp1679
sg75
g1037
sg68
(lp1680
g61
(g82
g63
NtRp1681
(dp1682
g66
(dp1683
g86
g87
ssg75
g1677
sg68
(lp1684
S'request_method'
p1685
asbag61
(g82
g63
NtRp1686
(dp1687
g66
(dp1688
g93
g94
ssg75
g1677
sg68
(lp1689
S':'
asbag61
(g82
g63
NtRp1690
(dp1691
g66
(dp1692
sg75
g1677
sg68
(lp1693
g61
(g62
g63
NtRp1694
(dp1695
g66
(dp1696
g74
I4
ssg75
g1690
sg68
(lp1697
S'POST'
p1698
asbasbasbag61
(g77
g63
NtRp1699
(dp1700
g66
(dp1701
sg75
g1037
sg68
(lp1702
g61
(g82
g63
NtRp1703
(dp1704
g66
(dp1705
g86
g87
ssg75
g1699
sg68
(lp1706
S'request_uri'
p1707
asbag61
(g82
g63
NtRp1708
(dp1709
g66
(dp1710
g93
g94
ssg75
g1699
sg68
(lp1711
S':'
asbag61
(g82
g63
NtRp1712
(dp1713
g66
(dp1714
sg75
g1699
sg68
(lp1715
g61
(g62
g63
NtRp1716
(dp1717
g66
(dp1718
g74
I4
ssg75
g1712
sg68
(lp1719
g1612
asbasbasbag61
(g77
g63
NtRp1720
(dp1721
g66
(dp1722
sg75
g1037
sg68
(lp1723
g61
(g82
g63
NtRp1724
(dp1725
g66
(dp1726
g86
g87
ssg75
g1720
sg68
(lp1727
S'script_name'
p1728
asbag61
(g82
g63
NtRp1729
(dp1730
g66
(dp1731
g93
g94
ssg75
g1720
sg68
(lp1732
S':'
asbag61
(g82
g63
NtRp1733
(dp1734
g66
(dp1735
sg75
g1720
sg68
(lp1736
g61
(g62
g63
NtRp1737
(dp1738
g66
(dp1739
g74
I4
ssg75
g1733
sg68
(lp1740
S''
asbasbasbag61
(g77
g63
NtRp1741
(dp1742
g66
(dp1743
sg75
g1037
sg68
(lp1744
g61
(g82
g63
NtRp1745
(dp1746
g66
(dp1747
g86
g87
ssg75
g1741
sg68
(lp1748
S'server_name'
p1749
asbag61
(g82
g63
NtRp1750
(dp1751
g66
(dp1752
g93
g94
ssg75
g1741
sg68
(lp1753
S':'
asbag61
(g82
g63
NtRp1754
(dp1755
g66
(dp1756
sg75
g1741
sg68
(lp1757
g61
(g62
g63
NtRp1758
(dp1759
g66
(dp1760
g74
I4
ssg75
g1754
sg68
(lp1761
S'urvashi-VPCEH35EN'
p1762
asbasbasbag61
(g77
g63
NtRp1763
(dp1764
g66
(dp1765
sg75
g1037
sg68
(lp1766
g61
(g82
g63
NtRp1767
(dp1768
g66
(dp1769
g86
g87
ssg75
g1763
sg68
(lp1770
S'server_port'
p1771
asbag61
(g82
g63
NtRp1772
(dp1773
g66
(dp1774
g93
g94
ssg75
g1763
sg68
(lp1775
S':'
asbag61
(g82
g63
NtRp1776
(dp1777
g66
(dp1778
sg75
g1763
sg68
(lp1779
g61
(g62
g63
NtRp1780
(dp1781
g66
(dp1782
g74
I4
ssg75
g1776
sg68
(lp1783
S'8000'
p1784
asbasbasbag61
(g77
g63
NtRp1785
(dp1786
g66
(dp1787
sg75
g1037
sg68
(lp1788
g61
(g82
g63
NtRp1789
(dp1790
g66
(dp1791
g86
g87
ssg75
g1785
sg68
(lp1792
S'server_protocol'
p1793
asbag61
(g82
g63
NtRp1794
(dp1795
g66
(dp1796
g93
g94
ssg75
g1785
sg68
(lp1797
S':'
asbag61
(g82
g63
NtRp1798
(dp1799
g66
(dp1800
sg75
g1785
sg68
(lp1801
g61
(g62
g63
NtRp1802
(dp1803
g66
(dp1804
g74
I4
ssg75
g1798
sg68
(lp1805
S'HTTP/1.1'
p1806
asbasbasbag61
(g77
g63
NtRp1807
(dp1808
g66
(dp1809
sg75
g1037
sg68
(lp1810
g61
(g82
g63
NtRp1811
(dp1812
g66
(dp1813
g86
g87
ssg75
g1807
sg68
(lp1814
S'server_software'
p1815
asbag61
(g82
g63
NtRp1816
(dp1817
g66
(dp1818
g93
g94
ssg75
g1807
sg68
(lp1819
S':'
asbag61
(g82
g63
NtRp1820
(dp1821
g66
(dp1822
sg75
g1807
sg68
(lp1823
g61
(g62
g63
NtRp1824
(dp1825
g66
(dp1826
g74
I4
ssg75
g1820
sg68
(lp1827
S'Rocket 1.2.6'
p1828
asbasbasbag61
(g77
g63
NtRp1829
(dp1830
g66
(dp1831
sg75
g1037
sg68
(lp1832
g61
(g82
g63
NtRp1833
(dp1834
g66
(dp1835
g86
g87
ssg75
g1829
sg68
(lp1836
S'web2py_path'
p1837
asbag61
(g82
g63
NtRp1838
(dp1839
g66
(dp1840
g93
g94
ssg75
g1829
sg68
(lp1841
S':'
asbag61
(g82
g63
NtRp1842
(dp1843
g66
(dp1844
sg75
g1829
sg68
(lp1845
g61
(g62
g63
NtRp1846
(dp1847
g66
(dp1848
g74
I4
ssg75
g1842
sg68
(lp1849
g1084
asbasbasbag61
(g77
g63
NtRp1850
(dp1851
g66
(dp1852
sg75
g1037
sg68
(lp1853
g61
(g82
g63
NtRp1854
(dp1855
g66
(dp1856
g86
g87
ssg75
g1850
sg68
(lp1857
S'web2py_version'
p1858
asbag61
(g82
g63
NtRp1859
(dp1860
g66
(dp1861
g93
g94
ssg75
g1850
sg68
(lp1862
S':'
asbag61
(g82
g63
NtRp1863
(dp1864
g66
(dp1865
sg75
g1850
sg68
(lp1866
g61
(g62
g63
NtRp1867
(dp1868
g66
(dp1869
g74
I4
ssg75
g1863
sg68
(lp1870
g61
(g70
g63
NtRp1871
(dp1872
g66
(dp1873
g74
I3
ssg75
Nsg68
(lp1874
g61
(g77
g63
NtRp1875
(dp1876
g66
(dp1877
sg75
g1871
sg68
(lp1878
g61
(g82
g63
NtRp1879
(dp1880
g66
(dp1881
sg75
g1875
sg68
(lp1882
g61
(g62
g63
NtRp1883
(dp1884
g66
(dp1885
g74
I3
ssg75
g1879
sg68
(lp1886
S'2'
asbasbasbag61
(g77
g63
NtRp1887
(dp1888
g66
(dp1889
sg75
g1871
sg68
(lp1890
g61
(g82
g63
NtRp1891
(dp1892
g66
(dp1893
sg75
g1887
sg68
(lp1894
g61
(g62
g63
NtRp1895
(dp1896
g66
(dp1897
g74
I3
ssg75
g1891
sg68
(lp1898
S'3'
asbasbasbag61
(g77
g63
NtRp1899
(dp1900
g66
(dp1901
sg75
g1871
sg68
(lp1902
g61
(g82
g63
NtRp1903
(dp1904
g66
(dp1905
sg75
g1899
sg68
(lp1906
g61
(g62
g63
NtRp1907
(dp1908
g66
(dp1909
g74
I3
ssg75
g1903
sg68
(lp1910
S'2'
asbasbasbag61
(g77
g63
NtRp1911
(dp1912
g66
(dp1913
sg75
g1871
sg68
(lp1914
g61
(g82
g63
NtRp1915
(dp1916
g66
(dp1917
sg75
g1911
sg68
(lp1918
g61
(g62
g63
NtRp1919
(dp1920
g66
(dp1921
g74
I3
ssg75
g1915
sg68
(lp1922
S'datetime.datetime(2012, 12, 17, 15, 3, 30)'
p1923
asbasbasbag61
(g77
g63
NtRp1924
(dp1925
g66
(dp1926
sg75
g1871
sg68
(lp1927
g61
(g82
g63
NtRp1928
(dp1929
g66
(dp1930
sg75
g1924
sg68
(lp1931
g61
(g62
g63
NtRp1932
(dp1933
g66
(dp1934
g74
I3
ssg75
g1928
sg68
(lp1935
S'stable'
p1936
asbasbasbasbasbasbasbag61
(g77
g63
NtRp1937
(dp1938
g66
(dp1939
sg75
g1037
sg68
(lp1940
g61
(g82
g63
NtRp1941
(dp1942
g66
(dp1943
g86
g87
ssg75
g1937
sg68
(lp1944
S'wsgi_errors'
p1945
asbag61
(g82
g63
NtRp1946
(dp1947
g66
(dp1948
g93
g94
ssg75
g1937
sg68
(lp1949
S':'
asbag61
(g82
g63
NtRp1950
(dp1951
g66
(dp1952
sg75
g1937
sg68
(lp1953
g61
(g62
g63
NtRp1954
(dp1955
g66
(dp1956
g74
I4
ssg75
g1950
sg68
(lp1957
S"<open file '<stderr>', mode 'w' at 0x7fa097cd0270>"
p1958
asbasbasbag61
(g77
g63
NtRp1959
(dp1960
g66
(dp1961
sg75
g1037
sg68
(lp1962
g61
(g82
g63
NtRp1963
(dp1964
g66
(dp1965
g86
g87
ssg75
g1959
sg68
(lp1966
S'wsgi_file_wrapper'
p1967
asbag61
(g82
g63
NtRp1968
(dp1969
g66
(dp1970
g93
g94
ssg75
g1959
sg68
(lp1971
S':'
asbag61
(g82
g63
NtRp1972
(dp1973
g66
(dp1974
sg75
g1959
sg68
(lp1975
g61
(g62
g63
NtRp1976
(dp1977
g66
(dp1978
g74
I4
ssg75
g1972
sg68
(lp1979
S'<class wsgiref.util.FileWrapper at 0x1d21b48>'
p1980
asbasbasbag61
(g77
g63
NtRp1981
(dp1982
g66
(dp1983
sg75
g1037
sg68
(lp1984
g61
(g82
g63
NtRp1985
(dp1986
g66
(dp1987
g86
g87
ssg75
g1981
sg68
(lp1988
S'wsgi_input'
p1989
asbag61
(g82
g63
NtRp1990
(dp1991
g66
(dp1992
g93
g94
ssg75
g1981
sg68
(lp1993
S':'
asbag61
(g82
g63
NtRp1994
(dp1995
g66
(dp1996
sg75
g1981
sg68
(lp1997
g61
(g62
g63
NtRp1998
(dp1999
g66
(dp2000
g74
I4
ssg75
g1994
sg68
(lp2001
S'<socket._fileobject object at 0x7fa08c1885d0>'
p2002
asbasbasbag61
(g77
g63
NtRp2003
(dp2004
g66
(dp2005
sg75
g1037
sg68
(lp2006
g61
(g82
g63
NtRp2007
(dp2008
g66
(dp2009
g86
g87
ssg75
g2003
sg68
(lp2010
S'wsgi_multiprocess'
p2011
asbag61
(g82
g63
NtRp2012
(dp2013
g66
(dp2014
g93
g94
ssg75
g2003
sg68
(lp2015
S':'
asbag61
(g82
g63
NtRp2016
(dp2017
g66
(dp2018
sg75
g2003
sg68
(lp2019
g61
(g62
g63
NtRp2020
(dp2021
g66
(dp2022
g74
I4
ssg75
g2016
sg68
(lp2023
g104
asbasbasbag61
(g77
g63
NtRp2024
(dp2025
g66
(dp2026
sg75
g1037
sg68
(lp2027
g61
(g82
g63
NtRp2028
(dp2029
g66
(dp2030
g86
g87
ssg75
g2024
sg68
(lp2031
S'wsgi_multithread'
p2032
asbag61
(g82
g63
NtRp2033
(dp2034
g66
(dp2035
g93
g94
ssg75
g2024
sg68
(lp2036
S':'
asbag61
(g82
g63
NtRp2037
(dp2038
g66
(dp2039
sg75
g2024
sg68
(lp2040
g61
(g62
g63
NtRp2041
(dp2042
g66
(dp2043
g74
I4
ssg75
g2037
sg68
(lp2044
S'True'
p2045
asbasbasbag61
(g77
g63
NtRp2046
(dp2047
g66
(dp2048
sg75
g1037
sg68
(lp2049
g61
(g82
g63
NtRp2050
(dp2051
g66
(dp2052
g86
g87
ssg75
g2046
sg68
(lp2053
S'wsgi_run_once'
p2054
asbag61
(g82
g63
NtRp2055
(dp2056
g66
(dp2057
g93
g94
ssg75
g2046
sg68
(lp2058
S':'
asbag61
(g82
g63
NtRp2059
(dp2060
g66
(dp2061
sg75
g2046
sg68
(lp2062
g61
(g62
g63
NtRp2063
(dp2064
g66
(dp2065
g74
I4
ssg75
g2059
sg68
(lp2066
g104
asbasbasbag61
(g77
g63
NtRp2067
(dp2068
g66
(dp2069
sg75
g1037
sg68
(lp2070
g61
(g82
g63
NtRp2071
(dp2072
g66
(dp2073
g86
g87
ssg75
g2067
sg68
(lp2074
S'wsgi_url_scheme'
p2075
asbag61
(g82
g63
NtRp2076
(dp2077
g66
(dp2078
g93
g94
ssg75
g2067
sg68
(lp2079
S':'
asbag61
(g82
g63
NtRp2080
(dp2081
g66
(dp2082
sg75
g2067
sg68
(lp2083
g61
(g62
g63
NtRp2084
(dp2085
g66
(dp2086
g74
I4
ssg75
g2080
sg68
(lp2087
S'http'
p2088
asbasbasbag61
(g77
g63
NtRp2089
(dp2090
g66
(dp2091
sg75
g1037
sg68
(lp2092
g61
(g82
g63
NtRp2093
(dp2094
g66
(dp2095
g86
g87
ssg75
g2089
sg68
(lp2096
S'wsgi_version'
p2097
asbag61
(g82
g63
NtRp2098
(dp2099
g66
(dp2100
g93
g94
ssg75
g2089
sg68
(lp2101
S':'
asbag61
(g82
g63
NtRp2102
(dp2103
g66
(dp2104
sg75
g2089
sg68
(lp2105
g61
(g62
g63
NtRp2106
(dp2107
g66
(dp2108
g74
I4
ssg75
g2102
sg68
(lp2109
g61
(g70
g63
NtRp2110
(dp2111
g66
(dp2112
g74
I3
ssg75
Nsg68
(lp2113
g61
(g77
g63
NtRp2114
(dp2115
g66
(dp2116
sg75
g2110
sg68
(lp2117
g61
(g82
g63
NtRp2118
(dp2119
g66
(dp2120
sg75
g2114
sg68
(lp2121
g61
(g62
g63
NtRp2122
(dp2123
g66
(dp2124
g74
I3
ssg75
g2118
sg68
(lp2125
S'1'
asbasbasbag61
(g77
g63
NtRp2126
(dp2127
g66
(dp2128
sg75
g2110
sg68
(lp2129
g61
(g82
g63
NtRp2130
(dp2131
g66
(dp2132
sg75
g2126
sg68
(lp2133
g61
(g62
g63
NtRp2134
(dp2135
g66
(dp2136
g74
I3
ssg75
g2130
sg68
(lp2137
S'0'
asbasbasbasbasbasbasbasbasbasbasbag61
(g77
g63
NtRp2138
(dp2139
g66
(dp2140
sg75
g71
sg68
(lp2141
g61
(g82
g63
NtRp2142
(dp2143
g66
(dp2144
g86
g87
ssg75
g2138
sg68
(lp2145
S'extension'
p2146
asbag61
(g82
g63
NtRp2147
(dp2148
g66
(dp2149
g93
g94
ssg75
g2138
sg68
(lp2150
S':'
asbag61
(g82
g63
NtRp2151
(dp2152
g66
(dp2153
sg75
g2138
sg68
(lp2154
g61
(g62
g63
NtRp2155
(dp2156
g66
(dp2157
g74
I5
ssg75
g2151
sg68
(lp2158
S'html'
p2159
asbasbasbag61
(g77
g63
NtRp2160
(dp2161
g66
(dp2162
sg75
g71
sg68
(lp2163
g61
(g82
g63
NtRp2164
(dp2165
g66
(dp2166
g86
g87
ssg75
g2160
sg68
(lp2167
S'folder'
p2168
asbag61
(g82
g63
NtRp2169
(dp2170
g66
(dp2171
g93
g94
ssg75
g2160
sg68
(lp2172
S':'
asbag61
(g82
g63
NtRp2173
(dp2174
g66
(dp2175
sg75
g2160
sg68
(lp2176
g61
(g62
g63
NtRp2177
(dp2178
g66
(dp2179
g74
I5
ssg75
g2173
sg68
(lp2180
S'/home/urvashi/Desktop/WEB2PY/web2py/applications/GoGreen_Motors_2/'
p2181
asbasbasbag61
(g77
g63
NtRp2182
(dp2183
g66
(dp2184
sg75
g71
sg68
(lp2185
g61
(g82
g63
NtRp2186
(dp2187
g66
(dp2188
g86
g87
ssg75
g2182
sg68
(lp2189
S'function'
p2190
asbag61
(g82
g63
NtRp2191
(dp2192
g66
(dp2193
g93
g94
ssg75
g2182
sg68
(lp2194
S':'
asbag61
(g82
g63
NtRp2195
(dp2196
g66
(dp2197
sg75
g2182
sg68
(lp2198
g61
(g62
g63
NtRp2199
(dp2200
g66
(dp2201
g74
I5
ssg75
g2195
sg68
(lp2202
S'add_sale'
p2203
asbasbasbag61
(g77
g63
NtRp2204
(dp2205
g66
(dp2206
sg75
g71
sg68
(lp2207
g61
(g82
g63
NtRp2208
(dp2209
g66
(dp2210
g86
g87
ssg75
g2204
sg68
(lp2211
S'get_vars'
p2212
asbag61
(g82
g63
NtRp2213
(dp2214
g66
(dp2215
g93
g94
ssg75
g2204
sg68
(lp2216
S':'
asbag61
(g82
g63
NtRp2217
(dp2218
g66
(dp2219
sg75
g2204
sg68
(lp2220
g61
(g62
g63
NtRp2221
(dp2222
g66
(dp2223
g74
I5
ssg75
g2217
sg68
(lp2224
g61
(g70
g63
NtRp2225
(dp2226
g66
(dp2227
g74
I4
ssg75
Nsg68
(lp2228
sbasbasbasbag61
(g77
g63
NtRp2229
(dp2230
g66
(dp2231
sg75
g71
sg68
(lp2232
g61
(g82
g63
NtRp2233
(dp2234
g66
(dp2235
g86
g87
ssg75
g2229
sg68
(lp2236
S'global_settings'
p2237
asbag61
(g82
g63
NtRp2238
(dp2239
g66
(dp2240
g93
g94
ssg75
g2229
sg68
(lp2241
S':'
asbag61
(g82
g63
NtRp2242
(dp2243
g66
(dp2244
sg75
g2229
sg68
(lp2245
g61
(g62
g63
NtRp2246
(dp2247
g66
(dp2248
g74
I5
ssg75
g2242
sg68
(lp2249
g61
(g70
g63
NtRp2250
(dp2251
g66
(dp2252
g74
I4
ssg75
Nsg68
(lp2253
g61
(g77
g63
NtRp2254
(dp2255
g66
(dp2256
sg75
g2250
sg68
(lp2257
g61
(g82
g63
NtRp2258
(dp2259
g66
(dp2260
g86
g87
ssg75
g2254
sg68
(lp2261
g1049
asbag61
(g82
g63
NtRp2262
(dp2263
g66
(dp2264
g93
g94
ssg75
g2254
sg68
(lp2265
S':'
asbag61
(g82
g63
NtRp2266
(dp2267
g66
(dp2268
sg75
g2254
sg68
(lp2269
g61
(g62
g63
NtRp2270
(dp2271
g66
(dp2272
g74
I4
ssg75
g2266
sg68
(lp2273
S"set(['/home/urvashi/Desktop/WEB2PY/web2py/applications/admin/', '/home/urvashi/Desktop/WEB2PY/web2py/applications/welcome/', '/home/urvashi/Desktop/WEB2PY/web2py/applications/GoGreen_Motors_2/', '/home/urvashi/Desktop/WEB2PY/web2py/applications/GoGreen_Motors/'])"
p2274
asbasbasbag61
(g77
g63
NtRp2275
(dp2276
g66
(dp2277
sg75
g2250
sg68
(lp2278
g61
(g82
g63
NtRp2279
(dp2280
g66
(dp2281
g86
g87
ssg75
g2275
sg68
(lp2282
g1071
asbag61
(g82
g63
NtRp2283
(dp2284
g66
(dp2285
g93
g94
ssg75
g2275
sg68
(lp2286
S':'
asbag61
(g82
g63
NtRp2287
(dp2288
g66
(dp2289
sg75
g2275
sg68
(lp2290
g61
(g62
g63
NtRp2291
(dp2292
g66
(dp2293
g74
I4
ssg75
g2287
sg68
(lp2294
g1084
asbasbasbag61
(g77
g63
NtRp2295
(dp2296
g66
(dp2297
sg75
g2250
sg68
(lp2298
g61
(g82
g63
NtRp2299
(dp2300
g66
(dp2301
g86
g87
ssg75
g2295
sg68
(lp2302
g1093
asbag61
(g82
g63
NtRp2303
(dp2304
g66
(dp2305
g93
g94
ssg75
g2295
sg68
(lp2306
S':'
asbag61
(g82
g63
NtRp2307
(dp2308
g66
(dp2309
sg75
g2295
sg68
(lp2310
g61
(g62
g63
NtRp2311
(dp2312
g66
(dp2313
g74
I4
ssg75
g2307
sg68
(lp2314
g61
(g70
g63
NtRp2315
(dp2316
g66
(dp2317
g74
I3
ssg75
Nsg68
(lp2318
sbasbasbasbag61
(g77
g63
NtRp2319
(dp2320
g66
(dp2321
sg75
g2250
sg68
(lp2322
g61
(g82
g63
NtRp2323
(dp2324
g66
(dp2325
g86
g87
ssg75
g2319
sg68
(lp2326
g1118
asbag61
(g82
g63
NtRp2327
(dp2328
g66
(dp2329
g93
g94
ssg75
g2319
sg68
(lp2330
S':'
asbag61
(g82
g63
NtRp2331
(dp2332
g66
(dp2333
sg75
g2319
sg68
(lp2334
g61
(g62
g63
NtRp2335
(dp2336
g66
(dp2337
g74
I4
ssg75
g2331
sg68
(lp2338
S"<Values at 0x21632d8: {'verbose': False, 'ip': '127.0.0.1', 'with_scheduler': False, 'ips': [], 'shutdown_timeout': 5, 'taskbar': False, 'port': 8000, 'maxthreads': None, 'softcron': False, 'server_name': 'urvashi-VPCEH35EN', 'bpython': False, 'nogui': False, 'pid_filename': 'httpserver.pid', 'extcron': False, 'runcron': False, 'run_system_tests': False, 'test': None, 'folder': '/home/urvashi/Desktop/WEB2PY/web2py', 'config': '', 'minthreads': None, 'winservice': '', 'shell': None, 'run': '', 'log_filename': 'httpserver.log', 'debuglevel': 30, 'args': [''], 'socket_timeout': 5, 'ssl_ca_certificate': None, 'scheduler': None, 'profiler_filename': None, 'ssl_private_key': '', 'scheduler_groups': None, 'password': '123', 'request_queue_size': 5, 'ssl_certificate': '', 'cronjob': False, 'numthreads': None, 'quiet': False, 'interfaces': None, 'import_models': False, 'timeout': 10, 'plain': False, 'nobanner': False}>"
p2339
asbasbasbag61
(g77
g63
NtRp2340
(dp2341
g66
(dp2342
sg75
g2250
sg68
(lp2343
g61
(g82
g63
NtRp2344
(dp2345
g66
(dp2346
g86
g87
ssg75
g2340
sg68
(lp2347
g1184
asbag61
(g82
g63
NtRp2348
(dp2349
g66
(dp2350
g93
g94
ssg75
g2340
sg68
(lp2351
S':'
asbag61
(g82
g63
NtRp2352
(dp2353
g66
(dp2354
sg75
g2340
sg68
(lp2355
g61
(g62
g63
NtRp2356
(dp2357
g66
(dp2358
g74
I4
ssg75
g2352
sg68
(lp2359
S'set([])'
p2360
asbasbasbag61
(g77
g63
NtRp2361
(dp2362
g66
(dp2363
sg75
g2250
sg68
(lp2364
g61
(g82
g63
NtRp2365
(dp2366
g66
(dp2367
g86
g87
ssg75
g2361
sg68
(lp2368
g1206
asbag61
(g82
g63
NtRp2369
(dp2370
g66
(dp2371
g93
g94
ssg75
g2361
sg68
(lp2372
S':'
asbag61
(g82
g63
NtRp2373
(dp2374
g66
(dp2375
sg75
g2361
sg68
(lp2376
g61
(g62
g63
NtRp2377
(dp2378
g66
(dp2379
g74
I4
ssg75
g2373
sg68
(lp2380
g104
asbasbasbag61
(g77
g63
NtRp2381
(dp2382
g66
(dp2383
sg75
g2250
sg68
(lp2384
g61
(g82
g63
NtRp2385
(dp2386
g66
(dp2387
g86
g87
ssg75
g2381
sg68
(lp2388
g1227
asbag61
(g82
g63
NtRp2389
(dp2390
g66
(dp2391
g93
g94
ssg75
g2381
sg68
(lp2392
S':'
asbag61
(g82
g63
NtRp2393
(dp2394
g66
(dp2395
sg75
g2381
sg68
(lp2396
g61
(g62
g63
NtRp2397
(dp2398
g66
(dp2399
g74
I4
ssg75
g2393
sg68
(lp2400
g1240
asbasbasbag61
(g77
g63
NtRp2401
(dp2402
g66
(dp2403
sg75
g2250
sg68
(lp2404
g61
(g82
g63
NtRp2405
(dp2406
g66
(dp2407
g86
g87
ssg75
g2401
sg68
(lp2408
g1467
asbag61
(g82
g63
NtRp2409
(dp2410
g66
(dp2411
g93
g94
ssg75
g2401
sg68
(lp2412
S':'
asbag61
(g82
g63
NtRp2413
(dp2414
g66
(dp2415
sg75
g2401
sg68
(lp2416
g61
(g62
g63
NtRp2417
(dp2418
g66
(dp2419
g74
I4
ssg75
g2413
sg68
(lp2420
g104
asbasbasbag61
(g77
g63
NtRp2421
(dp2422
g66
(dp2423
sg75
g2250
sg68
(lp2424
g61
(g82
g63
NtRp2425
(dp2426
g66
(dp2427
g86
g87
ssg75
g2421
sg68
(lp2428
g1488
asbag61
(g82
g63
NtRp2429
(dp2430
g66
(dp2431
g93
g94
ssg75
g2421
sg68
(lp2432
S':'
asbag61
(g82
g63
NtRp2433
(dp2434
g66
(dp2435
sg75
g2421
sg68
(lp2436
g61
(g62
g63
NtRp2437
(dp2438
g66
(dp2439
g74
I4
ssg75
g2433
sg68
(lp2440
g104
asbasbasbag61
(g77
g63
NtRp2441
(dp2442
g66
(dp2443
sg75
g2250
sg68
(lp2444
g61
(g82
g63
NtRp2445
(dp2446
g66
(dp2447
g86
g87
ssg75
g2441
sg68
(lp2448
g1509
asbag61
(g82
g63
NtRp2449
(dp2450
g66
(dp2451
g93
g94
ssg75
g2441
sg68
(lp2452
S':'
asbag61
(g82
g63
NtRp2453
(dp2454
g66
(dp2455
sg75
g2441
sg68
(lp2456
g61
(g62
g63
NtRp2457
(dp2458
g66
(dp2459
g74
I4
ssg75
g2453
sg68
(lp2460
g61
(g70
g63
NtRp2461
(dp2462
g66
(dp2463
g74
I3
ssg75
Nsg68
(lp2464
g61
(g77
g63
NtRp2465
(dp2466
g66
(dp2467
sg75
g2461
sg68
(lp2468
g61
(g82
g63
NtRp2469
(dp2470
g66
(dp2471
sg75
g2465
sg68
(lp2472
g61
(g62
g63
NtRp2473
(dp2474
g66
(dp2475
g74
I3
ssg75
g2469
sg68
(lp2476
g1538
asbasbasbag61
(g77
g63
NtRp2477
(dp2478
g66
(dp2479
sg75
g2461
sg68
(lp2480
g61
(g82
g63
NtRp2481
(dp2482
g66
(dp2483
sg75
g2477
sg68
(lp2484
g61
(g62
g63
NtRp2485
(dp2486
g66
(dp2487
g74
I3
ssg75
g2481
sg68
(lp2488
g1551
asbasbasbag61
(g77
g63
NtRp2489
(dp2490
g66
(dp2491
sg75
g2461
sg68
(lp2492
g61
(g82
g63
NtRp2493
(dp2494
g66
(dp2495
sg75
g2489
sg68
(lp2496
g61
(g62
g63
NtRp2497
(dp2498
g66
(dp2499
g74
I3
ssg75
g2493
sg68
(lp2500
g1564
asbasbasbag61
(g77
g63
NtRp2501
(dp2502
g66
(dp2503
sg75
g2461
sg68
(lp2504
g61
(g82
g63
NtRp2505
(dp2506
g66
(dp2507
sg75
g2501
sg68
(lp2508
g61
(g62
g63
NtRp2509
(dp2510
g66
(dp2511
g74
I3
ssg75
g2505
sg68
(lp2512
g1577
asbasbasbag61
(g77
g63
NtRp2513
(dp2514
g66
(dp2515
sg75
g2461
sg68
(lp2516
g61
(g82
g63
NtRp2517
(dp2518
g66
(dp2519
sg75
g2513
sg68
(lp2520
g61
(g62
g63
NtRp2521
(dp2522
g66
(dp2523
g74
I3
ssg75
g2517
sg68
(lp2524
g1590
asbasbasbasbasbasbasbag61
(g77
g63
NtRp2525
(dp2526
g66
(dp2527
sg75
g2250
sg68
(lp2528
g61
(g82
g63
NtRp2529
(dp2530
g66
(dp2531
g86
g87
ssg75
g2525
sg68
(lp2532
g1858
asbag61
(g82
g63
NtRp2533
(dp2534
g66
(dp2535
g93
g94
ssg75
g2525
sg68
(lp2536
S':'
asbag61
(g82
g63
NtRp2537
(dp2538
g66
(dp2539
sg75
g2525
sg68
(lp2540
g61
(g62
g63
NtRp2541
(dp2542
g66
(dp2543
g74
I4
ssg75
g2537
sg68
(lp2544
g61
(g70
g63
NtRp2545
(dp2546
g66
(dp2547
g74
I3
ssg75
Nsg68
(lp2548
g61
(g77
g63
NtRp2549
(dp2550
g66
(dp2551
sg75
g2545
sg68
(lp2552
g61
(g82
g63
NtRp2553
(dp2554
g66
(dp2555
sg75
g2549
sg68
(lp2556
g61
(g62
g63
NtRp2557
(dp2558
g66
(dp2559
g74
I3
ssg75
g2553
sg68
(lp2560
S'2'
asbasbasbag61
(g77
g63
NtRp2561
(dp2562
g66
(dp2563
sg75
g2545
sg68
(lp2564
g61
(g82
g63
NtRp2565
(dp2566
g66
(dp2567
sg75
g2561
sg68
(lp2568
g61
(g62
g63
NtRp2569
(dp2570
g66
(dp2571
g74
I3
ssg75
g2565
sg68
(lp2572
S'3'
asbasbasbag61
(g77
g63
NtRp2573
(dp2574
g66
(dp2575
sg75
g2545
sg68
(lp2576
g61
(g82
g63
NtRp2577
(dp2578
g66
(dp2579
sg75
g2573
sg68
(lp2580
g61
(g62
g63
NtRp2581
(dp2582
g66
(dp2583
g74
I3
ssg75
g2577
sg68
(lp2584
S'2'
asbasbasbag61
(g77
g63
NtRp2585
(dp2586
g66
(dp2587
sg75
g2545
sg68
(lp2588
g61
(g82
g63
NtRp2589
(dp2590
g66
(dp2591
sg75
g2585
sg68
(lp2592
g61
(g62
g63
NtRp2593
(dp2594
g66
(dp2595
g74
I3
ssg75
g2589
sg68
(lp2596
S'datetime.datetime(2012, 12, 17, 15, 3, 30)'
p2597
asbasbasbag61
(g77
g63
NtRp2598
(dp2599
g66
(dp2600
sg75
g2545
sg68
(lp2601
g61
(g82
g63
NtRp2602
(dp2603
g66
(dp2604
sg75
g2598
sg68
(lp2605
g61
(g62
g63
NtRp2606
(dp2607
g66
(dp2608
g74
I3
ssg75
g2602
sg68
(lp2609
g1936
asbasbasbasbasbasbasbasbasbasbasbag61
(g77
g63
NtRp2610
(dp2611
g66
(dp2612
sg75
g71
sg68
(lp2613
g61
(g82
g63
NtRp2614
(dp2615
g66
(dp2616
g86
g87
ssg75
g2610
sg68
(lp2617
S'is_https'
p2618
asbag61
(g82
g63
NtRp2619
(dp2620
g66
(dp2621
g93
g94
ssg75
g2610
sg68
(lp2622
S':'
asbag61
(g82
g63
NtRp2623
(dp2624
g66
(dp2625
sg75
g2610
sg68
(lp2626
g61
(g62
g63
NtRp2627
(dp2628
g66
(dp2629
g74
I5
ssg75
g2623
sg68
(lp2630
g104
asbasbasbag61
(g77
g63
NtRp2631
(dp2632
g66
(dp2633
sg75
g71
sg68
(lp2634
g61
(g82
g63
NtRp2635
(dp2636
g66
(dp2637
g86
g87
ssg75
g2631
sg68
(lp2638
S'is_local'
p2639
asbag61
(g82
g63
NtRp2640
(dp2641
g66
(dp2642
g93
g94
ssg75
g2631
sg68
(lp2643
S':'
asbag61
(g82
g63
NtRp2644
(dp2645
g66
(dp2646
sg75
g2631
sg68
(lp2647
g61
(g62
g63
NtRp2648
(dp2649
g66
(dp2650
g74
I5
ssg75
g2644
sg68
(lp2651
g2045
asbasbasbag61
(g77
g63
NtRp2652
(dp2653
g66
(dp2654
sg75
g71
sg68
(lp2655
g61
(g82
g63
NtRp2656
(dp2657
g66
(dp2658
g86
g87
ssg75
g2652
sg68
(lp2659
S'is_restful'
p2660
asbag61
(g82
g63
NtRp2661
(dp2662
g66
(dp2663
g93
g94
ssg75
g2652
sg68
(lp2664
S':'
asbag61
(g82
g63
NtRp2665
(dp2666
g66
(dp2667
sg75
g2652
sg68
(lp2668
g61
(g62
g63
NtRp2669
(dp2670
g66
(dp2671
g74
I5
ssg75
g2665
sg68
(lp2672
g104
asbasbasbag61
(g77
g63
NtRp2673
(dp2674
g66
(dp2675
sg75
g71
sg68
(lp2676
g61
(g82
g63
NtRp2677
(dp2678
g66
(dp2679
g86
g87
ssg75
g2673
sg68
(lp2680
S'now'
p2681
asbag61
(g82
g63
NtRp2682
(dp2683
g66
(dp2684
g93
g94
ssg75
g2673
sg68
(lp2685
S':'
asbag61
(g82
g63
NtRp2686
(dp2687
g66
(dp2688
sg75
g2673
sg68
(lp2689
g61
(g62
g63
NtRp2690
(dp2691
g66
(dp2692
g74
I5
ssg75
g2686
sg68
(lp2693
S'datetime.datetime(2013, 10, 21, 19, 49, 9, 431363)'
p2694
asbasbasbag61
(g77
g63
NtRp2695
(dp2696
g66
(dp2697
sg75
g71
sg68
(lp2698
g61
(g82
g63
NtRp2699
(dp2700
g66
(dp2701
g86
g87
ssg75
g2695
sg68
(lp2702
S'post_vars'
p2703
asbag61
(g82
g63
NtRp2704
(dp2705
g66
(dp2706
g93
g94
ssg75
g2695
sg68
(lp2707
S':'
asbag61
(g82
g63
NtRp2708
(dp2709
g66
(dp2710
sg75
g2695
sg68
(lp2711
g61
(g62
g63
NtRp2712
(dp2713
g66
(dp2714
g74
I5
ssg75
g2708
sg68
(lp2715
g61
(g70
g63
NtRp2716
(dp2717
g66
(dp2718
g74
I4
ssg75
Nsg68
(lp2719
g61
(g77
g63
NtRp2720
(dp2721
g66
(dp2722
sg75
g2716
sg68
(lp2723
g61
(g82
g63
NtRp2724
(dp2725
g66
(dp2726
g86
g87
ssg75
g2720
sg68
(lp2727
S'Customer_ID'
p2728
asbag61
(g82
g63
NtRp2729
(dp2730
g66
(dp2731
g93
g94
ssg75
g2720
sg68
(lp2732
S':'
asbag61
(g82
g63
NtRp2733
(dp2734
g66
(dp2735
sg75
g2720
sg68
(lp2736
g61
(g62
g63
NtRp2737
(dp2738
g66
(dp2739
g74
I4
ssg75
g2733
sg68
(lp2740
S'Juhi Tandon'
p2741
asbasbasbag61
(g77
g63
NtRp2742
(dp2743
g66
(dp2744
sg75
g2716
sg68
(lp2745
g61
(g82
g63
NtRp2746
(dp2747
g66
(dp2748
g86
g87
ssg75
g2742
sg68
(lp2749
S'Product_ID'
p2750
asbag61
(g82
g63
NtRp2751
(dp2752
g66
(dp2753
g93
g94
ssg75
g2742
sg68
(lp2754
S':'
asbag61
(g82
g63
NtRp2755
(dp2756
g66
(dp2757
sg75
g2742
sg68
(lp2758
g61
(g62
g63
NtRp2759
(dp2760
g66
(dp2761
g74
I4
ssg75
g2755
sg68
(lp2762
S'Tshirt'
p2763
asbasbasbag61
(g77
g63
NtRp2764
(dp2765
g66
(dp2766
sg75
g2716
sg68
(lp2767
g61
(g82
g63
NtRp2768
(dp2769
g66
(dp2770
g86
g87
ssg75
g2764
sg68
(lp2771
S'Receipt_no'
p2772
asbag61
(g82
g63
NtRp2773
(dp2774
g66
(dp2775
g93
g94
ssg75
g2764
sg68
(lp2776
S':'
asbag61
(g82
g63
NtRp2777
(dp2778
g66
(dp2779
sg75
g2764
sg68
(lp2780
g61
(g62
g63
NtRp2781
(dp2782
g66
(dp2783
g74
I4
ssg75
g2777
sg68
(lp2784
S'25'
p2785
asbasbasbasbasbasbasbag61
(g77
g63
NtRp2786
(dp2787
g66
(dp2788
sg75
g71
sg68
(lp2789
g61
(g82
g63
NtRp2790
(dp2791
g66
(dp2792
g86
g87
ssg75
g2786
sg68
(lp2793
S'raw_args'
p2794
asbag61
(g82
g63
NtRp2795
(dp2796
g66
(dp2797
g93
g94
ssg75
g2786
sg68
(lp2798
S':'
asbag61
(g82
g63
NtRp2799
(dp2800
g66
(dp2801
sg75
g2786
sg68
(lp2802
g61
(g62
g63
NtRp2803
(dp2804
g66
(dp2805
g74
I5
ssg75
g2799
sg68
(lp2806
S''
asbasbasbag61
(g77
g63
NtRp2807
(dp2808
g66
(dp2809
sg75
g71
sg68
(lp2810
g61
(g82
g63
NtRp2811
(dp2812
g66
(dp2813
g86
g87
ssg75
g2807
sg68
(lp2814
S'raw_extension'
p2815
asbag61
(g82
g63
NtRp2816
(dp2817
g66
(dp2818
g93
g94
ssg75
g2807
sg68
(lp2819
S':'
asbag61
(g82
g63
NtRp2820
(dp2821
g66
(dp2822
sg75
g2807
sg68
(lp2823
g61
(g62
g63
NtRp2824
(dp2825
g66
(dp2826
g74
I5
ssg75
g2820
sg68
(lp2827
S'None'
p2828
asbasbasbag61
(g77
g63
NtRp2829
(dp2830
g66
(dp2831
sg75
g71
sg68
(lp2832
g61
(g82
g63
NtRp2833
(dp2834
g66
(dp2835
g86
g87
ssg75
g2829
sg68
(lp2836
S'url'
p2837
asbag61
(g82
g63
NtRp2838
(dp2839
g66
(dp2840
g93
g94
ssg75
g2829
sg68
(lp2841
S':'
asbag61
(g82
g63
NtRp2842
(dp2843
g66
(dp2844
sg75
g2829
sg68
(lp2845
g61
(g62
g63
NtRp2846
(dp2847
g66
(dp2848
g74
I5
ssg75
g2842
sg68
(lp2849
g1612
asbasbasbag61
(g77
g63
NtRp2850
(dp2851
g66
(dp2852
sg75
g71
sg68
(lp2853
g61
(g82
g63
NtRp2854
(dp2855
g66
(dp2856
g86
g87
ssg75
g2850
sg68
(lp2857
S'utcnow'
p2858
asbag61
(g82
g63
NtRp2859
(dp2860
g66
(dp2861
g93
g94
ssg75
g2850
sg68
(lp2862
S':'
asbag61
(g82
g63
NtRp2863
(dp2864
g66
(dp2865
sg75
g2850
sg68
(lp2866
g61
(g62
g63
NtRp2867
(dp2868
g66
(dp2869
g74
I5
ssg75
g2863
sg68
(lp2870
S'datetime.datetime(2013, 10, 21, 14, 19, 9, 431391)'
p2871
asbasbasbag61
(g77
g63
NtRp2872
(dp2873
g66
(dp2874
sg75
g71
sg68
(lp2875
g61
(g82
g63
NtRp2876
(dp2877
g66
(dp2878
g86
g87
ssg75
g2872
sg68
(lp2879
S'uuid'
p2880
asbag61
(g82
g63
NtRp2881
(dp2882
g66
(dp2883
g93
g94
ssg75
g2872
sg68
(lp2884
S':'
asbag61
(g82
g63
NtRp2885
(dp2886
g66
(dp2887
sg75
g2872
sg68
(lp2888
g61
(g62
g63
NtRp2889
(dp2890
g66
(dp2891
g74
I5
ssg75
g2885
sg68
(lp2892
S'GoGreen_Motors_2/127.0.0.1.2013-10-21.19-49-09.03e9abd4-7b31-4f29-980e-08cfca105238'
p2893
asbasbasbag61
(g77
g63
NtRp2894
(dp2895
g66
(dp2896
sg75
g71
sg68
(lp2897
g61
(g82
g63
NtRp2898
(dp2899
g66
(dp2900
g86
g87
ssg75
g2894
sg68
(lp2901
S'vars'
p2902
asbag61
(g82
g63
NtRp2903
(dp2904
g66
(dp2905
g93
g94
ssg75
g2894
sg68
(lp2906
S':'
asbag61
(g82
g63
NtRp2907
(dp2908
g66
(dp2909
sg75
g2894
sg68
(lp2910
g61
(g62
g63
NtRp2911
(dp2912
g66
(dp2913
g74
I5
ssg75
g2907
sg68
(lp2914
g61
(g70
g63
NtRp2915
(dp2916
g66
(dp2917
g74
I4
ssg75
Nsg68
(lp2918
g61
(g77
g63
NtRp2919
(dp2920
g66
(dp2921
sg75
g2915
sg68
(lp2922
g61
(g82
g63
NtRp2923
(dp2924
g66
(dp2925
g86
g87
ssg75
g2919
sg68
(lp2926
g2728
asbag61
(g82
g63
NtRp2927
(dp2928
g66
(dp2929
g93
g94
ssg75
g2919
sg68
(lp2930
S':'
asbag61
(g82
g63
NtRp2931
(dp2932
g66
(dp2933
sg75
g2919
sg68
(lp2934
g61
(g62
g63
NtRp2935
(dp2936
g66
(dp2937
g74
I4
ssg75
g2931
sg68
(lp2938
g2741
asbasbasbag61
(g77
g63
NtRp2939
(dp2940
g66
(dp2941
sg75
g2915
sg68
(lp2942
g61
(g82
g63
NtRp2943
(dp2944
g66
(dp2945
g86
g87
ssg75
g2939
sg68
(lp2946
g2750
asbag61
(g82
g63
NtRp2947
(dp2948
g66
(dp2949
g93
g94
ssg75
g2939
sg68
(lp2950
S':'
asbag61
(g82
g63
NtRp2951
(dp2952
g66
(dp2953
sg75
g2939
sg68
(lp2954
g61
(g62
g63
NtRp2955
(dp2956
g66
(dp2957
g74
I4
ssg75
g2951
sg68
(lp2958
g2763
asbasbasbag61
(g77
g63
NtRp2959
(dp2960
g66
(dp2961
sg75
g2915
sg68
(lp2962
g61
(g82
g63
NtRp2963
(dp2964
g66
(dp2965
g86
g87
ssg75
g2959
sg68
(lp2966
g2772
asbag61
(g82
g63
NtRp2967
(dp2968
g66
(dp2969
g93
g94
ssg75
g2959
sg68
(lp2970
S':'
asbag61
(g82
g63
NtRp2971
(dp2972
g66
(dp2973
sg75
g2959
sg68
(lp2974
g61
(g62
g63
NtRp2975
(dp2976
g66
(dp2977
g74
I4
ssg75
g2971
sg68
(lp2978
g2785
asbasbasbasbasbasbasbag61
(g77
g63
NtRp2979
(dp2980
g66
(dp2981
sg75
g71
sg68
(lp2982
g61
(g82
g63
NtRp2983
(dp2984
g66
(dp2985
g86
g87
ssg75
g2979
sg68
(lp2986
S'wsgi'
p2987
asbag61
(g82
g63
NtRp2988
(dp2989
g66
(dp2990
g93
g94
ssg75
g2979
sg68
(lp2991
S':'
asbag61
(g82
g63
NtRp2992
(dp2993
g66
(dp2994
sg75
g2979
sg68
(lp2995
g61
(g62
g63
NtRp2996
(dp2997
g66
(dp2998
g74
I5
ssg75
g2992
sg68
(lp2999
g61
(g70
g63
NtRp3000
(dp3001
g66
(dp3002
g74
I4
ssg75
Nsg68
(lp3003
g61
(g77
g63
NtRp3004
(dp3005
g66
(dp3006
sg75
g3000
sg68
(lp3007
g61
(g82
g63
NtRp3008
(dp3009
g66
(dp3010
g86
g87
ssg75
g3004
sg68
(lp3011
S'environ'
p3012
asbag61
(g82
g63
NtRp3013
(dp3014
g66
(dp3015
g93
g94
ssg75
g3004
sg68
(lp3016
S':'
asbag61
(g82
g63
NtRp3017
(dp3018
g66
(dp3019
sg75
g3004
sg68
(lp3020
g61
(g62
g63
NtRp3021
(dp3022
g66
(dp3023
g74
I4
ssg75
g3017
sg68
(lp3024
g61
(g70
g63
NtRp3025
(dp3026
g66
(dp3027
g74
I3
ssg75
Nsg68
(lp3028
g61
(g77
g63
NtRp3029
(dp3030
g66
(dp3031
sg75
g3025
sg68
(lp3032
g61
(g82
g63
NtRp3033
(dp3034
g66
(dp3035
g86
g87
ssg75
g3029
sg68
(lp3036
S'CONTENT_LENGTH'
p3037
asbag61
(g82
g63
NtRp3038
(dp3039
g66
(dp3040
g93
g94
ssg75
g3029
sg68
(lp3041
S':'
asbag61
(g82
g63
NtRp3042
(dp3043
g66
(dp3044
sg75
g3029
sg68
(lp3045
g61
(g62
g63
NtRp3046
(dp3047
g66
(dp3048
g74
I3
ssg75
g3042
sg68
(lp3049
g1153
asbasbasbag61
(g77
g63
NtRp3050
(dp3051
g66
(dp3052
sg75
g3025
sg68
(lp3053
g61
(g82
g63
NtRp3054
(dp3055
g66
(dp3056
g86
g87
ssg75
g3050
sg68
(lp3057
S'CONTENT_TYPE'
p3058
asbag61
(g82
g63
NtRp3059
(dp3060
g66
(dp3061
g93
g94
ssg75
g3050
sg68
(lp3062
S':'
asbag61
(g82
g63
NtRp3063
(dp3064
g66
(dp3065
sg75
g3050
sg68
(lp3066
g61
(g62
g63
NtRp3067
(dp3068
g66
(dp3069
g74
I3
ssg75
g3063
sg68
(lp3070
g1175
asbasbasbag61
(g77
g63
NtRp3071
(dp3072
g66
(dp3073
sg75
g3025
sg68
(lp3074
g61
(g82
g63
NtRp3075
(dp3076
g66
(dp3077
g86
g87
ssg75
g3071
sg68
(lp3078
S'HTTP_ACCEPT'
p3079
asbag61
(g82
g63
NtRp3080
(dp3081
g66
(dp3082
g93
g94
ssg75
g3071
sg68
(lp3083
S':'
asbag61
(g82
g63
NtRp3084
(dp3085
g66
(dp3086
sg75
g3071
sg68
(lp3087
g61
(g62
g63
NtRp3088
(dp3089
g66
(dp3090
g74
I3
ssg75
g3084
sg68
(lp3091
g1262
asbasbasbag61
(g77
g63
NtRp3092
(dp3093
g66
(dp3094
sg75
g3025
sg68
(lp3095
g61
(g82
g63
NtRp3096
(dp3097
g66
(dp3098
g86
g87
ssg75
g3092
sg68
(lp3099
S'HTTP_ACCEPT_ENCODING'
p3100
asbag61
(g82
g63
NtRp3101
(dp3102
g66
(dp3103
g93
g94
ssg75
g3092
sg68
(lp3104
S':'
asbag61
(g82
g63
NtRp3105
(dp3106
g66
(dp3107
sg75
g3092
sg68
(lp3108
g61
(g62
g63
NtRp3109
(dp3110
g66
(dp3111
g74
I3
ssg75
g3105
sg68
(lp3112
g1284
asbasbasbag61
(g77
g63
NtRp3113
(dp3114
g66
(dp3115
sg75
g3025
sg68
(lp3116
g61
(g82
g63
NtRp3117
(dp3118
g66
(dp3119
g86
g87
ssg75
g3113
sg68
(lp3120
S'HTTP_ACCEPT_LANGUAGE'
p3121
asbag61
(g82
g63
NtRp3122
(dp3123
g66
(dp3124
g93
g94
ssg75
g3113
sg68
(lp3125
S':'
asbag61
(g82
g63
NtRp3126
(dp3127
g66
(dp3128
sg75
g3113
sg68
(lp3129
g61
(g62
g63
NtRp3130
(dp3131
g66
(dp3132
g74
I3
ssg75
g3126
sg68
(lp3133
g1306
asbasbasbag61
(g77
g63
NtRp3134
(dp3135
g66
(dp3136
sg75
g3025
sg68
(lp3137
g61
(g82
g63
NtRp3138
(dp3139
g66
(dp3140
g86
g87
ssg75
g3134
sg68
(lp3141
S'HTTP_CONNECTION'
p3142
asbag61
(g82
g63
NtRp3143
(dp3144
g66
(dp3145
g93
g94
ssg75
g3134
sg68
(lp3146
S':'
asbag61
(g82
g63
NtRp3147
(dp3148
g66
(dp3149
sg75
g3134
sg68
(lp3150
g61
(g62
g63
NtRp3151
(dp3152
g66
(dp3153
g74
I3
ssg75
g3147
sg68
(lp3154
g1328
asbasbasbag61
(g77
g63
NtRp3155
(dp3156
g66
(dp3157
sg75
g3025
sg68
(lp3158
g61
(g82
g63
NtRp3159
(dp3160
g66
(dp3161
g86
g87
ssg75
g3155
sg68
(lp3162
S'HTTP_CONTENT_LENGTH'
p3163
asbag61
(g82
g63
NtRp3164
(dp3165
g66
(dp3166
g93
g94
ssg75
g3155
sg68
(lp3167
S':'
asbag61
(g82
g63
NtRp3168
(dp3169
g66
(dp3170
sg75
g3155
sg68
(lp3171
g61
(g62
g63
NtRp3172
(dp3173
g66
(dp3174
g74
I3
ssg75
g3168
sg68
(lp3175
g1153
asbasbasbag61
(g77
g63
NtRp3176
(dp3177
g66
(dp3178
sg75
g3025
sg68
(lp3179
g61
(g82
g63
NtRp3180
(dp3181
g66
(dp3182
g86
g87
ssg75
g3176
sg68
(lp3183
S'HTTP_CONTENT_TYPE'
p3184
asbag61
(g82
g63
NtRp3185
(dp3186
g66
(dp3187
g93
g94
ssg75
g3176
sg68
(lp3188
S':'
asbag61
(g82
g63
NtRp3189
(dp3190
g66
(dp3191
sg75
g3176
sg68
(lp3192
g61
(g62
g63
NtRp3193
(dp3194
g66
(dp3195
g74
I3
ssg75
g3189
sg68
(lp3196
g1175
asbasbasbag61
(g77
g63
NtRp3197
(dp3198
g66
(dp3199
sg75
g3025
sg68
(lp3200
g61
(g82
g63
NtRp3201
(dp3202
g66
(dp3203
g86
g87
ssg75
g3197
sg68
(lp3204
S'HTTP_COOKIE'
p3205
asbag61
(g82
g63
NtRp3206
(dp3207
g66
(dp3208
g93
g94
ssg75
g3197
sg68
(lp3209
S':'
asbag61
(g82
g63
NtRp3210
(dp3211
g66
(dp3212
sg75
g3197
sg68
(lp3213
g61
(g62
g63
NtRp3214
(dp3215
g66
(dp3216
g74
I3
ssg75
g3210
sg68
(lp3217
g1392
asbasbasbag61
(g77
g63
NtRp3218
(dp3219
g66
(dp3220
sg75
g3025
sg68
(lp3221
g61
(g82
g63
NtRp3222
(dp3223
g66
(dp3224
g86
g87
ssg75
g3218
sg68
(lp3225
S'HTTP_HOST'
p3226
asbag61
(g82
g63
NtRp3227
(dp3228
g66
(dp3229
g93
g94
ssg75
g3218
sg68
(lp3230
S':'
asbag61
(g82
g63
NtRp3231
(dp3232
g66
(dp3233
sg75
g3218
sg68
(lp3234
g61
(g62
g63
NtRp3235
(dp3236
g66
(dp3237
g74
I3
ssg75
g3231
sg68
(lp3238
g1414
asbasbasbag61
(g77
g63
NtRp3239
(dp3240
g66
(dp3241
sg75
g3025
sg68
(lp3242
g61
(g82
g63
NtRp3243
(dp3244
g66
(dp3245
g86
g87
ssg75
g3239
sg68
(lp3246
S'HTTP_REFERER'
p3247
asbag61
(g82
g63
NtRp3248
(dp3249
g66
(dp3250
g93
g94
ssg75
g3239
sg68
(lp3251
S':'
asbag61
(g82
g63
NtRp3252
(dp3253
g66
(dp3254
sg75
g3239
sg68
(lp3255
g61
(g62
g63
NtRp3256
(dp3257
g66
(dp3258
g74
I3
ssg75
g3252
sg68
(lp3259
g1436
asbasbasbag61
(g77
g63
NtRp3260
(dp3261
g66
(dp3262
sg75
g3025
sg68
(lp3263
g61
(g82
g63
NtRp3264
(dp3265
g66
(dp3266
g86
g87
ssg75
g3260
sg68
(lp3267
S'HTTP_USER_AGENT'
p3268
asbag61
(g82
g63
NtRp3269
(dp3270
g66
(dp3271
g93
g94
ssg75
g3260
sg68
(lp3272
S':'
asbag61
(g82
g63
NtRp3273
(dp3274
g66
(dp3275
sg75
g3260
sg68
(lp3276
g61
(g62
g63
NtRp3277
(dp3278
g66
(dp3279
g74
I3
ssg75
g3273
sg68
(lp3280
g1458
asbasbasbag61
(g77
g63
NtRp3281
(dp3282
g66
(dp3283
sg75
g3025
sg68
(lp3284
g61
(g82
g63
NtRp3285
(dp3286
g66
(dp3287
g86
g87
ssg75
g3281
sg68
(lp3288
S'PATH_INFO'
p3289
asbag61
(g82
g63
NtRp3290
(dp3291
g66
(dp3292
g93
g94
ssg75
g3281
sg68
(lp3293
S':'
asbag61
(g82
g63
NtRp3294
(dp3295
g66
(dp3296
sg75
g3281
sg68
(lp3297
g61
(g62
g63
NtRp3298
(dp3299
g66
(dp3300
g74
I3
ssg75
g3294
sg68
(lp3301
g1612
asbasbasbag61
(g77
g63
NtRp3302
(dp3303
g66
(dp3304
sg75
g3025
sg68
(lp3305
g61
(g82
g63
NtRp3306
(dp3307
g66
(dp3308
g86
g87
ssg75
g3302
sg68
(lp3309
S'QUERY_STRING'
p3310
asbag61
(g82
g63
NtRp3311
(dp3312
g66
(dp3313
g93
g94
ssg75
g3302
sg68
(lp3314
S':'
asbag61
(g82
g63
NtRp3315
(dp3316
g66
(dp3317
sg75
g3302
sg68
(lp3318
g61
(g62
g63
NtRp3319
(dp3320
g66
(dp3321
g74
I3
ssg75
g3315
sg68
(lp3322
S''
asbasbasbag61
(g77
g63
NtRp3323
(dp3324
g66
(dp3325
sg75
g3025
sg68
(lp3326
g61
(g82
g63
NtRp3327
(dp3328
g66
(dp3329
g86
g87
ssg75
g3323
sg68
(lp3330
S'REMOTE_ADDR'
p3331
asbag61
(g82
g63
NtRp3332
(dp3333
g66
(dp3334
g93
g94
ssg75
g3323
sg68
(lp3335
S':'
asbag61
(g82
g63
NtRp3336
(dp3337
g66
(dp3338
sg75
g3323
sg68
(lp3339
g61
(g62
g63
NtRp3340
(dp3341
g66
(dp3342
g74
I3
ssg75
g3336
sg68
(lp3343
g216
asbasbasbag61
(g77
g63
NtRp3344
(dp3345
g66
(dp3346
sg75
g3025
sg68
(lp3347
g61
(g82
g63
NtRp3348
(dp3349
g66
(dp3350
g86
g87
ssg75
g3344
sg68
(lp3351
S'REMOTE_PORT'
p3352
asbag61
(g82
g63
NtRp3353
(dp3354
g66
(dp3355
g93
g94
ssg75
g3344
sg68
(lp3356
S':'
asbag61
(g82
g63
NtRp3357
(dp3358
g66
(dp3359
sg75
g3344
sg68
(lp3360
g61
(g62
g63
NtRp3361
(dp3362
g66
(dp3363
g74
I3
ssg75
g3357
sg68
(lp3364
g1676
asbasbasbag61
(g77
g63
NtRp3365
(dp3366
g66
(dp3367
sg75
g3025
sg68
(lp3368
g61
(g82
g63
NtRp3369
(dp3370
g66
(dp3371
g86
g87
ssg75
g3365
sg68
(lp3372
S'REQUEST_METHOD'
p3373
asbag61
(g82
g63
NtRp3374
(dp3375
g66
(dp3376
g93
g94
ssg75
g3365
sg68
(lp3377
S':'
asbag61
(g82
g63
NtRp3378
(dp3379
g66
(dp3380
sg75
g3365
sg68
(lp3381
g61
(g62
g63
NtRp3382
(dp3383
g66
(dp3384
g74
I3
ssg75
g3378
sg68
(lp3385
g1698
asbasbasbag61
(g77
g63
NtRp3386
(dp3387
g66
(dp3388
sg75
g3025
sg68
(lp3389
g61
(g82
g63
NtRp3390
(dp3391
g66
(dp3392
g86
g87
ssg75
g3386
sg68
(lp3393
S'REQUEST_URI'
p3394
asbag61
(g82
g63
NtRp3395
(dp3396
g66
(dp3397
g93
g94
ssg75
g3386
sg68
(lp3398
S':'
asbag61
(g82
g63
NtRp3399
(dp3400
g66
(dp3401
sg75
g3386
sg68
(lp3402
g61
(g62
g63
NtRp3403
(dp3404
g66
(dp3405
g74
I3
ssg75
g3399
sg68
(lp3406
g1612
asbasbasbag61
(g77
g63
NtRp3407
(dp3408
g66
(dp3409
sg75
g3025
sg68
(lp3410
g61
(g82
g63
NtRp3411
(dp3412
g66
(dp3413
g86
g87
ssg75
g3407
sg68
(lp3414
S'SCRIPT_NAME'
p3415
asbag61
(g82
g63
NtRp3416
(dp3417
g66
(dp3418
g93
g94
ssg75
g3407
sg68
(lp3419
S':'
asbag61
(g82
g63
NtRp3420
(dp3421
g66
(dp3422
sg75
g3407
sg68
(lp3423
g61
(g62
g63
NtRp3424
(dp3425
g66
(dp3426
g74
I3
ssg75
g3420
sg68
(lp3427
S''
asbasbasbag61
(g77
g63
NtRp3428
(dp3429
g66
(dp3430
sg75
g3025
sg68
(lp3431
g61
(g82
g63
NtRp3432
(dp3433
g66
(dp3434
g86
g87
ssg75
g3428
sg68
(lp3435
S'SERVER_NAME'
p3436
asbag61
(g82
g63
NtRp3437
(dp3438
g66
(dp3439
g93
g94
ssg75
g3428
sg68
(lp3440
S':'
asbag61
(g82
g63
NtRp3441
(dp3442
g66
(dp3443
sg75
g3428
sg68
(lp3444
g61
(g62
g63
NtRp3445
(dp3446
g66
(dp3447
g74
I3
ssg75
g3441
sg68
(lp3448
g1762
asbasbasbag61
(g77
g63
NtRp3449
(dp3450
g66
(dp3451
sg75
g3025
sg68
(lp3452
g61
(g82
g63
NtRp3453
(dp3454
g66
(dp3455
g86
g87
ssg75
g3449
sg68
(lp3456
S'SERVER_PORT'
p3457
asbag61
(g82
g63
NtRp3458
(dp3459
g66
(dp3460
g93
g94
ssg75
g3449
sg68
(lp3461
S':'
asbag61
(g82
g63
NtRp3462
(dp3463
g66
(dp3464
sg75
g3449
sg68
(lp3465
g61
(g62
g63
NtRp3466
(dp3467
g66
(dp3468
g74
I3
ssg75
g3462
sg68
(lp3469
g1784
asbasbasbag61
(g77
g63
NtRp3470
(dp3471
g66
(dp3472
sg75
g3025
sg68
(lp3473
g61
(g82
g63
NtRp3474
(dp3475
g66
(dp3476
g86
g87
ssg75
g3470
sg68
(lp3477
S'SERVER_PROTOCOL'
p3478
asbag61
(g82
g63
NtRp3479
(dp3480
g66
(dp3481
g93
g94
ssg75
g3470
sg68
(lp3482
S':'
asbag61
(g82
g63
NtRp3483
(dp3484
g66
(dp3485
sg75
g3470
sg68
(lp3486
g61
(g62
g63
NtRp3487
(dp3488
g66
(dp3489
g74
I3
ssg75
g3483
sg68
(lp3490
g1806
asbasbasbag61
(g77
g63
NtRp3491
(dp3492
g66
(dp3493
sg75
g3025
sg68
(lp3494
g61
(g82
g63
NtRp3495
(dp3496
g66
(dp3497
g86
g87
ssg75
g3491
sg68
(lp3498
S'SERVER_SOFTWARE'
p3499
asbag61
(g82
g63
NtRp3500
(dp3501
g66
(dp3502
g93
g94
ssg75
g3491
sg68
(lp3503
S':'
asbag61
(g82
g63
NtRp3504
(dp3505
g66
(dp3506
sg75
g3491
sg68
(lp3507
g61
(g62
g63
NtRp3508
(dp3509
g66
(dp3510
g74
I3
ssg75
g3504
sg68
(lp3511
g1828
asbasbasbag61
(g77
g63
NtRp3512
(dp3513
g66
(dp3514
sg75
g3025
sg68
(lp3515
g61
(g82
g63
NtRp3516
(dp3517
g66
(dp3518
g86
g87
ssg75
g3512
sg68
(lp3519
S'wsgi.errors'
p3520
asbag61
(g82
g63
NtRp3521
(dp3522
g66
(dp3523
g93
g94
ssg75
g3512
sg68
(lp3524
S':'
asbag61
(g82
g63
NtRp3525
(dp3526
g66
(dp3527
sg75
g3512
sg68
(lp3528
g61
(g62
g63
NtRp3529
(dp3530
g66
(dp3531
g74
I3
ssg75
g3525
sg68
(lp3532
S"<open file '<stderr>', mode 'w' at 0x7fa097cd0270>"
p3533
asbasbasbag61
(g77
g63
NtRp3534
(dp3535
g66
(dp3536
sg75
g3025
sg68
(lp3537
g61
(g82
g63
NtRp3538
(dp3539
g66
(dp3540
g86
g87
ssg75
g3534
sg68
(lp3541
S'wsgi.file_wrapper'
p3542
asbag61
(g82
g63
NtRp3543
(dp3544
g66
(dp3545
g93
g94
ssg75
g3534
sg68
(lp3546
S':'
asbag61
(g82
g63
NtRp3547
(dp3548
g66
(dp3549
sg75
g3534
sg68
(lp3550
g61
(g62
g63
NtRp3551
(dp3552
g66
(dp3553
g74
I3
ssg75
g3547
sg68
(lp3554
S'<class wsgiref.util.FileWrapper at 0x1d21b48>'
p3555
asbasbasbag61
(g77
g63
NtRp3556
(dp3557
g66
(dp3558
sg75
g3025
sg68
(lp3559
g61
(g82
g63
NtRp3560
(dp3561
g66
(dp3562
g86
g87
ssg75
g3556
sg68
(lp3563
S'wsgi.input'
p3564
asbag61
(g82
g63
NtRp3565
(dp3566
g66
(dp3567
g93
g94
ssg75
g3556
sg68
(lp3568
S':'
asbag61
(g82
g63
NtRp3569
(dp3570
g66
(dp3571
sg75
g3556
sg68
(lp3572
g61
(g62
g63
NtRp3573
(dp3574
g66
(dp3575
g74
I3
ssg75
g3569
sg68
(lp3576
S"<open file '<fdopen>', mode 'w+b' at 0x7fa08420ed20>"
p3577
asbasbasbag61
(g77
g63
NtRp3578
(dp3579
g66
(dp3580
sg75
g3025
sg68
(lp3581
g61
(g82
g63
NtRp3582
(dp3583
g66
(dp3584
g86
g87
ssg75
g3578
sg68
(lp3585
S'wsgi.multiprocess'
p3586
asbag61
(g82
g63
NtRp3587
(dp3588
g66
(dp3589
g93
g94
ssg75
g3578
sg68
(lp3590
S':'
asbag61
(g82
g63
NtRp3591
(dp3592
g66
(dp3593
sg75
g3578
sg68
(lp3594
g61
(g62
g63
NtRp3595
(dp3596
g66
(dp3597
g74
I3
ssg75
g3591
sg68
(lp3598
g104
asbasbasbag61
(g77
g63
NtRp3599
(dp3600
g66
(dp3601
sg75
g3025
sg68
(lp3602
g61
(g82
g63
NtRp3603
(dp3604
g66
(dp3605
g86
g87
ssg75
g3599
sg68
(lp3606
S'wsgi.multithread'
p3607
asbag61
(g82
g63
NtRp3608
(dp3609
g66
(dp3610
g93
g94
ssg75
g3599
sg68
(lp3611
S':'
asbag61
(g82
g63
NtRp3612
(dp3613
g66
(dp3614
sg75
g3599
sg68
(lp3615
g61
(g62
g63
NtRp3616
(dp3617
g66
(dp3618
g74
I3
ssg75
g3612
sg68
(lp3619
g2045
asbasbasbag61
(g77
g63
NtRp3620
(dp3621
g66
(dp3622
sg75
g3025
sg68
(lp3623
g61
(g82
g63
NtRp3624
(dp3625
g66
(dp3626
g86
g87
ssg75
g3620
sg68
(lp3627
S'wsgi.run_once'
p3628
asbag61
(g82
g63
NtRp3629
(dp3630
g66
(dp3631
g93
g94
ssg75
g3620
sg68
(lp3632
S':'
asbag61
(g82
g63
NtRp3633
(dp3634
g66
(dp3635
sg75
g3620
sg68
(lp3636
g61
(g62
g63
NtRp3637
(dp3638
g66
(dp3639
g74
I3
ssg75
g3633
sg68
(lp3640
g104
asbasbasbag61
(g77
g63
NtRp3641
(dp3642
g66
(dp3643
sg75
g3025
sg68
(lp3644
g61
(g82
g63
NtRp3645
(dp3646
g66
(dp3647
g86
g87
ssg75
g3641
sg68
(lp3648
S'wsgi.url_scheme'
p3649
asbag61
(g82
g63
NtRp3650
(dp3651
g66
(dp3652
g93
g94
ssg75
g3641
sg68
(lp3653
S':'
asbag61
(g82
g63
NtRp3654
(dp3655
g66
(dp3656
sg75
g3641
sg68
(lp3657
g61
(g62
g63
NtRp3658
(dp3659
g66
(dp3660
g74
I3
ssg75
g3654
sg68
(lp3661
g2088
asbasbasbag61
(g77
g63
NtRp3662
(dp3663
g66
(dp3664
sg75
g3025
sg68
(lp3665
g61
(g82
g63
NtRp3666
(dp3667
g66
(dp3668
g86
g87
ssg75
g3662
sg68
(lp3669
S'wsgi.version'
p3670
asbag61
(g82
g63
NtRp3671
(dp3672
g66
(dp3673
g93
g94
ssg75
g3662
sg68
(lp3674
S':'
asbag61
(g82
g63
NtRp3675
(dp3676
g66
(dp3677
sg75
g3662
sg68
(lp3678
g61
(g62
g63
NtRp3679
(dp3680
g66
(dp3681
g74
I3
ssg75
g3675
sg68
(lp3682
S'1'
asbasbasbasbasbasbasbasbasbasbasbasbasbsS'frames'
p3683
(lp3684
(dp3685
S'file'
p3686
S'/home/urvashi/Desktop/WEB2PY/web2py/gluon/restricted.py'
p3687
sS'dump'
p3688
(dp3689
S'environment'
p3690
S"{'A': <class 'gluon.html.A'>, 'Auth': <class 'gluon.tools.Auth'>, 'B': <class 'gluon.html.B'>, 'BEAUTIFY': <class 'gluon.html.BEAUTIFY'>, 'BODY': <class 'gluon.html.BODY'>, 'BR': <class 'gluon.html.BR'>, 'BUTTON': <class 'gluon.html.BUTTON'>, 'CAT': <class 'gluon.html.CAT'>, 'CENTER': <class 'gluon.html.CENTER'>, 'CLEANUP': <class 'gluon.validators.CLEANUP'>, ...}"
p3691
sS'ccode'
p3692
S'<code object <module> at 0x7fa06010b730, file "/...oGreen_Motors_2/controllers/default.py", line 13>'
p3693
ssS'lnum'
p3694
I212
sS'lines'
p3695
(dp3696
I207
S'    try:'
p3697
sI208
S'        if isinstance(code, types.CodeType):'
p3698
sI209
S'            ccode = code'
p3699
sI210
S'        else:'
p3700
sI211
S'            ccode = compile2(code, layer)'
p3701
sI212
S'        exec ccode in environment'
p3702
sI213
S'    except HTTP:'
p3703
sI214
S'        raise'
p3704
sI215
S'    except RestrictedError:'
p3705
sI216
S'        # do not encapsulate (obfuscate) the original RestrictedError'
p3706
ssS'call'
p3707
S"(code='# -*- coding: utf-8 -*-\\n# this file is released ...ud())\\n\\nresponse._vars=response._caller(add_sale)\\n', environment={'A': <class 'gluon.html.A'>, 'Auth': <class 'gluon.tools.Auth'>, 'B': <class 'gluon.html.B'>, 'BEAUTIFY': <class 'gluon.html.BEAUTIFY'>, 'BODY': <class 'gluon.html.BODY'>, 'BR': <class 'gluon.html.BR'>, 'BUTTON': <class 'gluon.html.BUTTON'>, 'CAT': <class 'gluon.html.CAT'>, 'CENTER': <class 'gluon.html.CENTER'>, 'CLEANUP': <class 'gluon.validators.CLEANUP'>, ...}, layer='/home/urvashi/Desktop/WEB2PY/web2py/applications/GoGreen_Motors_2/controllers/default.py')"
p3708
sS'func'
p3709
S'restricted'
p3710
sa(dp3711
g3686
S'/home/urvashi/Desktop/WEB2PY/web2py/applications/GoGreen_Motors_2/controllers/default.py'
p3712
sg3688
(dp3713
sg3694
I206
sg3695
(dp3714
I195
S'    http://..../[app]/default/data/update/[table]/[id]'
p3715
sI196
S'    http://..../[app]/default/data/delete/[table]/[id]'
p3716
sI197
S'    http://..../[app]/default/data/select/[table]'
p3717
sI198
S'    http://..../[app]/default/data/search/[table]'
p3718
sI199
S'    but URLs must be signed, i.e. linked with'
p3719
sI200
S"      A('table',_href=URL('data/tables',user_signature=True))"
p3720
sI201
S'    or with the signed load operator'
p3721
sI202
S"      LOAD('default','data.load',args='tables',ajax=True,user_signature=True)"
p3722
sI203
S'    """'
p3723
sI204
S'    return dict(form=crud())'
p3724
ssg3707
S'()'
p3725
sg3709
S'<module>'
p3726
sa(dp3727
g3686
S'/home/urvashi/Desktop/WEB2PY/web2py/gluon/globals.py'
p3728
sg3688
(dp3729
S'self'
p3730
S'undefined'
p3731
sS'f'
S'<function add_sale>'
p3732
ssg3694
I193
sg3695
(dp3733
I192
S'        self._vars = None'
p3734
sI193
S'        self._caller = lambda f: f()'
p3735
sI194
S'        self._view_environment = None'
p3736
sI195
S'        self._custom_commit = None'
p3737
sI196
S'        self._custom_rollback = None'
p3738
sI197
S''
sI188
S'        self.menu = []             # used by the default view layout'
p3739
sI189
S'        self.files = []            # used by web2py_ajax.html'
p3740
sI190
S'        self.generic_patterns = []  # patterns to allow generic views'
p3741
sI191
S"        self.delimiters = ('{{', '}}')"
p3742
ssg3707
S'(f=<function add_sale>)'
p3743
sg3709
S'<lambda>'
p3744
sa(dp3745
g3686
S'/home/urvashi/Desktop/WEB2PY/web2py/applications/GoGreen_Motors_2/controllers/default.py'
p3746
sg3688
(dp3747
S'global request'
p3748
S"<Storage {'function': 'add_sale', 'body': <open ...t_ID': 'Tshirt', '_formname': 'BOUGHT/create'}>}>"
p3749
sS'request.vars'
p3750
S"<Storage {'Receipt_no': '25', '_formkey': '057d2...uct_ID': 'Tshirt', '_formname': 'BOUGHT/create'}>"
p3751
sS'global session'
p3752
S"<Storage {'_formkey[CUSTOMER/create]': '244436ad...reate]': '5fd39613-094b-4753-a894-79412674cc47'}>"
p3753
sS'form'
p3754
S'<gluon.sqlhtml.SQLFORM object>'
p3755
sS'form.accepts'
p3756
S'<bound method SQLFORM.accepts of <gluon.sqlhtml.SQLFORM object>>'
p3757
ssg3694
I146
sg3695
(dp3758
I141
S''
sI142
S'def add_sale():'
p3759
sI143
S"    'auth' in globals()"
p3760
sI144
S'    if auth.user:'
p3761
sI145
S'        form=SQLFORM(db.BOUGHT)'
p3762
sI146
S'        if form.accepts(request.vars,session):'
p3763
sI147
S"                    response.flash='Product Sold !!'"
p3764
sI148
S'        elif form.errors:'
p3765
sI149
S"                    response.flash='ERRORS!!!'"
p3766
sI150
S'    else:'
p3767
ssg3707
S'()'
p3768
sg3709
S'add_sale'
p3769
sa(dp3770
g3686
S'/home/urvashi/Desktop/WEB2PY/web2py/gluon/sqlhtml.py'
p3771
sg3688
(dp3772
S'self.table.insert'
p3773
S'<bound method Table.insert of <Table BOUGHT (Customer_ID,Product_ID,Receipt_no)>>'
p3774
sS'pk'
p3775
g3731
sS'self'
p3776
S'<gluon.sqlhtml.SQLFORM object>'
p3777
sS'self.table'
p3778
S'<Table BOUGHT (Customer_ID,Product_ID,Receipt_no)>'
p3779
sS'fields'
p3780
S"{'Customer_ID': 'Juhi Tandon', 'Product_ID': 'Tshirt', 'Receipt_no': 25}"
p3781
ssg3694
I1474
sg3695
(dp3782
I1472
S'                        self.table._db(qry).update(**fields)'
p3783
sI1473
S'                else:'
p3784
sI1474
S'                    pk = self.table.insert(**fields)'
p3785
sI1475
S'                    if pk:'
p3786
sI1476
S'                        self.vars.update(pk)'
p3787
sI1477
S'                    else:'
p3788
sI1478
S'                        ret = False'
p3789
sI1469
S'                    if fields:'
p3790
sI1470
S'                        qry = reduce(lambda x, y: x & y,'
p3791
sI1471
S'                                     [self.table[k] == self.record[k] for k in self.table._primarykey])'
p3792
ssg3707
S"(self=<gluon.sqlhtml.SQLFORM object>, request_vars=<Storage {'Receipt_no': '25', '_formkey': '057d2...uct_ID': 'Tshirt', '_formname': 'BOUGHT/create'}>, session=<Storage {'_formkey[CUSTOMER/create]': '244436ad...reate]': '5fd39613-094b-4753-a894-79412674cc47'}>, formname='BOUGHT/create', keepvalues=False, onvalidation=None, dbio=True, hideerror=False, detect_record_change=False, **kwargs={})"
p3793
sg3709
S'accepts'
p3794
sa(dp3795
g3686
S'/home/urvashi/Desktop/WEB2PY/web2py/gluon/dal.py'
p3796
sg3688
(dp3797
S'self._listify'
p3798
S'<bound method Table._listify of <Table BOUGHT (Customer_ID,Product_ID,Receipt_no)>>'
p3799
sS'fields'
p3800
S"{'Customer_ID': 'Juhi Tandon', 'Product_ID': 'Tshirt', 'Receipt_no': 25}"
p3801
sS'self'
p3802
S'<Table BOUGHT (Customer_ID,Product_ID,Receipt_no)>'
p3803
sS'ret'
p3804
g3731
sS'self._db._adapter'
p3805
S'<gluon.dal.MySQLAdapter object>'
p3806
sS'self._db._adapter.insert'
p3807
S'<bound method MySQLAdapter.insert of <gluon.dal.MySQLAdapter object>>'
p3808
sS'self._db'
p3809
S'<DAL uri="mysql://******:urvashi@localhost/DBPHASE3">'
p3810
ssg3694
I7918
sg3695
(dp3811
I7913
S'        return self._db._adapter._insert(self,self._listify(fields))'
p3812
sI7914
S''
sI7915
S'    def insert(self, **fields):'
p3813
sI7916
S'        self._attempt_upload(fields)'
p3814
sI7917
S'        if any(f(fields) for f in self._before_insert): return 0'
p3815
sI7918
S'        ret =  self._db._adapter.insert(self,self._listify(fields))'
p3816
sI7919
S'        if ret and self._after_insert:'
p3817
sI7920
S'            fields = Row(fields)'
p3818
sI7921
S'            [f(fields,ret) for f in self._after_insert]'
p3819
sI7922
S'        return ret'
p3820
ssg3707
S"(self=<Table BOUGHT (Customer_ID,Product_ID,Receipt_no)>, **fields={'Customer_ID': 'Juhi Tandon', 'Product_ID': 'Tshirt', 'Receipt_no': 25})"
p3821
sg3709
S'insert'
p3822
sa(dp3823
g3686
S'/home/urvashi/Desktop/WEB2PY/web2py/gluon/dal.py'
p3824
sg3688
(dp3825
S'e'
S"IntegrityError(1452, 'Cannot add or update a chi...mer_ID`) REFERENCES `CUSTOMER` (`Customer_ID`))')"
p3826
ssg3694
I1176
sg3695
(dp3827
I1171
S'            self.execute(query)'
p3828
sI1172
S'        except Exception:'
p3829
sI1173
S'            e = sys.exc_info()[1]'
p3830
sI1174
S'            if isinstance(e,self.integrity_error_class()):'
p3831
sI1175
S'                return None'
p3832
sI1176
S'            raise e'
p3833
sI1177
S"        if hasattr(table,'_primarykey'):"
p3834
sI1178
S'            return dict([(k[0].name, k[1]) for k in fields \\'
p3835
sI1179
S'                             if k[0].name in table._primarykey])'
p3836
sI1180
S'        id = self.lastrowid(table)'
p3837
ssg3707
S"(self=<gluon.dal.MySQLAdapter object>, table=<Table BOUGHT (Customer_ID,Product_ID,Receipt_no)>, fields=[(<gluon.dal.Field object>, 25), (<gluon.dal.Field object>, 'Juhi Tandon'), (<gluon.dal.Field object>, 'Tshirt')])"
p3838
sg3709
g3822
sasS'pyver'
p3839
S'Python 2.7.3: /usr/bin/python'
p3840
sS'session'
p3841
g61
(g62
g63
NtRp3842
(dp3843
g66
(dp3844
sg68
(lp3845
g61
(g70
g63
NtRp3846
(dp3847
g66
(dp3848
g74
I5
ssg75
Nsg68
(lp3849
g61
(g77
g63
NtRp3850
(dp3851
g66
(dp3852
sg75
g3846
sg68
(lp3853
g61
(g82
g63
NtRp3854
(dp3855
g66
(dp3856
g86
g87
ssg75
g3850
sg68
(lp3857
S'auth'
p3858
asbag61
(g82
g63
NtRp3859
(dp3860
g66
(dp3861
g93
g94
ssg75
g3850
sg68
(lp3862
S':'
asbag61
(g82
g63
NtRp3863
(dp3864
g66
(dp3865
sg75
g3850
sg68
(lp3866
g61
(g62
g63
NtRp3867
(dp3868
g66
(dp3869
g74
I5
ssg75
g3863
sg68
(lp3870
g61
(g70
g63
NtRp3871
(dp3872
g66
(dp3873
g74
I4
ssg75
Nsg68
(lp3874
g61
(g77
g63
NtRp3875
(dp3876
g66
(dp3877
sg75
g3871
sg68
(lp3878
g61
(g82
g63
NtRp3879
(dp3880
g66
(dp3881
g86
g87
ssg75
g3875
sg68
(lp3882
S'expiration'
p3883
asbag61
(g82
g63
NtRp3884
(dp3885
g66
(dp3886
g93
g94
ssg75
g3875
sg68
(lp3887
S':'
asbag61
(g82
g63
NtRp3888
(dp3889
g66
(dp3890
sg75
g3875
sg68
(lp3891
g61
(g62
g63
NtRp3892
(dp3893
g66
(dp3894
g74
I4
ssg75
g3888
sg68
(lp3895
S'3600'
p3896
asbasbasbag61
(g77
g63
NtRp3897
(dp3898
g66
(dp3899
sg75
g3871
sg68
(lp3900
g61
(g82
g63
NtRp3901
(dp3902
g66
(dp3903
g86
g87
ssg75
g3897
sg68
(lp3904
S'hmac_key'
p3905
asbag61
(g82
g63
NtRp3906
(dp3907
g66
(dp3908
g93
g94
ssg75
g3897
sg68
(lp3909
S':'
asbag61
(g82
g63
NtRp3910
(dp3911
g66
(dp3912
sg75
g3897
sg68
(lp3913
g61
(g62
g63
NtRp3914
(dp3915
g66
(dp3916
g74
I4
ssg75
g3910
sg68
(lp3917
S'80e35d7c-f825-48d6-ab27-a9d2c443ee4f'
p3918
asbasbasbag61
(g77
g63
NtRp3919
(dp3920
g66
(dp3921
sg75
g3871
sg68
(lp3922
g61
(g82
g63
NtRp3923
(dp3924
g66
(dp3925
g86
g87
ssg75
g3919
sg68
(lp3926
S'last_visit'
p3927
asbag61
(g82
g63
NtRp3928
(dp3929
g66
(dp3930
g93
g94
ssg75
g3919
sg68
(lp3931
S':'
asbag61
(g82
g63
NtRp3932
(dp3933
g66
(dp3934
sg75
g3919
sg68
(lp3935
g61
(g62
g63
NtRp3936
(dp3937
g66
(dp3938
g74
I4
ssg75
g3932
sg68
(lp3939
S'datetime.datetime(2013, 10, 21, 19, 44, 44, 974023)'
p3940
asbasbasbag61
(g77
g63
NtRp3941
(dp3942
g66
(dp3943
sg75
g3871
sg68
(lp3944
g61
(g82
g63
NtRp3945
(dp3946
g66
(dp3947
g86
g87
ssg75
g3941
sg68
(lp3948
S'remember'
p3949
asbag61
(g82
g63
NtRp3950
(dp3951
g66
(dp3952
g93
g94
ssg75
g3941
sg68
(lp3953
S':'
asbag61
(g82
g63
NtRp3954
(dp3955
g66
(dp3956
sg75
g3941
sg68
(lp3957
g61
(g62
g63
NtRp3958
(dp3959
g66
(dp3960
g74
I4
ssg75
g3954
sg68
(lp3961
g104
asbasbasbag61
(g77
g63
NtRp3962
(dp3963
g66
(dp3964
sg75
g3871
sg68
(lp3965
g61
(g82
g63
NtRp3966
(dp3967
g66
(dp3968
g86
g87
ssg75
g3962
sg68
(lp3969
S'user'
p3970
asbag61
(g82
g63
NtRp3971
(dp3972
g66
(dp3973
g93
g94
ssg75
g3962
sg68
(lp3974
S':'
asbag61
(g82
g63
NtRp3975
(dp3976
g66
(dp3977
sg75
g3962
sg68
(lp3978
g61
(g62
g63
NtRp3979
(dp3980
g66
(dp3981
g74
I4
ssg75
g3975
sg68
(lp3982
g61
(g70
g63
NtRp3983
(dp3984
g66
(dp3985
g74
I3
ssg75
Nsg68
(lp3986
g61
(g77
g63
NtRp3987
(dp3988
g66
(dp3989
sg75
g3983
sg68
(lp3990
g61
(g82
g63
NtRp3991
(dp3992
g66
(dp3993
g86
g87
ssg75
g3987
sg68
(lp3994
S'email'
p3995
asbag61
(g82
g63
NtRp3996
(dp3997
g66
(dp3998
g93
g94
ssg75
g3987
sg68
(lp3999
S':'
asbag61
(g82
g63
NtRp4000
(dp4001
g66
(dp4002
sg75
g3987
sg68
(lp4003
g61
(g62
g63
NtRp4004
(dp4005
g66
(dp4006
g74
I3
ssg75
g4000
sg68
(lp4007
S'sherlock.holmes@gogreen.com'
p4008
asbasbasbag61
(g77
g63
NtRp4009
(dp4010
g66
(dp4011
sg75
g3983
sg68
(lp4012
g61
(g82
g63
NtRp4013
(dp4014
g66
(dp4015
g86
g87
ssg75
g4009
sg68
(lp4016
S'first_name'
p4017
asbag61
(g82
g63
NtRp4018
(dp4019
g66
(dp4020
g93
g94
ssg75
g4009
sg68
(lp4021
S':'
asbag61
(g82
g63
NtRp4022
(dp4023
g66
(dp4024
sg75
g4009
sg68
(lp4025
g61
(g62
g63
NtRp4026
(dp4027
g66
(dp4028
g74
I3
ssg75
g4022
sg68
(lp4029
S'Sherlock'
p4030
asbasbasbag61
(g77
g63
NtRp4031
(dp4032
g66
(dp4033
sg75
g3983
sg68
(lp4034
g61
(g82
g63
NtRp4035
(dp4036
g66
(dp4037
g86
g87
ssg75
g4031
sg68
(lp4038
S'id'
p4039
asbag61
(g82
g63
NtRp4040
(dp4041
g66
(dp4042
g93
g94
ssg75
g4031
sg68
(lp4043
S':'
asbag61
(g82
g63
NtRp4044
(dp4045
g66
(dp4046
sg75
g4031
sg68
(lp4047
g61
(g62
g63
NtRp4048
(dp4049
g66
(dp4050
g74
I3
ssg75
g4044
sg68
(lp4051
S'2'
asbasbasbag61
(g77
g63
NtRp4052
(dp4053
g66
(dp4054
sg75
g3983
sg68
(lp4055
g61
(g82
g63
NtRp4056
(dp4057
g66
(dp4058
g86
g87
ssg75
g4052
sg68
(lp4059
S'last_name'
p4060
asbag61
(g82
g63
NtRp4061
(dp4062
g66
(dp4063
g93
g94
ssg75
g4052
sg68
(lp4064
S':'
asbag61
(g82
g63
NtRp4065
(dp4066
g66
(dp4067
sg75
g4052
sg68
(lp4068
g61
(g62
g63
NtRp4069
(dp4070
g66
(dp4071
g74
I3
ssg75
g4065
sg68
(lp4072
S'Holmes'
p4073
asbasbasbag61
(g77
g63
NtRp4074
(dp4075
g66
(dp4076
sg75
g3983
sg68
(lp4077
g61
(g82
g63
NtRp4078
(dp4079
g66
(dp4080
g86
g87
ssg75
g4074
sg68
(lp4081
S'registration_id'
p4082
asbag61
(g82
g63
NtRp4083
(dp4084
g66
(dp4085
g93
g94
ssg75
g4074
sg68
(lp4086
S':'
asbag61
(g82
g63
NtRp4087
(dp4088
g66
(dp4089
sg75
g4074
sg68
(lp4090
g61
(g62
g63
NtRp4091
(dp4092
g66
(dp4093
g74
I3
ssg75
g4087
sg68
(lp4094
S''
asbasbasbag61
(g77
g63
NtRp4095
(dp4096
g66
(dp4097
sg75
g3983
sg68
(lp4098
g61
(g82
g63
NtRp4099
(dp4100
g66
(dp4101
g86
g87
ssg75
g4095
sg68
(lp4102
S'registration_key'
p4103
asbag61
(g82
g63
NtRp4104
(dp4105
g66
(dp4106
g93
g94
ssg75
g4095
sg68
(lp4107
S':'
asbag61
(g82
g63
NtRp4108
(dp4109
g66
(dp4110
sg75
g4095
sg68
(lp4111
g61
(g62
g63
NtRp4112
(dp4113
g66
(dp4114
g74
I3
ssg75
g4108
sg68
(lp4115
S''
asbasbasbag61
(g77
g63
NtRp4116
(dp4117
g66
(dp4118
sg75
g3983
sg68
(lp4119
g61
(g82
g63
NtRp4120
(dp4121
g66
(dp4122
g86
g87
ssg75
g4116
sg68
(lp4123
S'reset_password_key'
p4124
asbag61
(g82
g63
NtRp4125
(dp4126
g66
(dp4127
g93
g94
ssg75
g4116
sg68
(lp4128
S':'
asbag61
(g82
g63
NtRp4129
(dp4130
g66
(dp4131
sg75
g4116
sg68
(lp4132
g61
(g62
g63
NtRp4133
(dp4134
g66
(dp4135
g74
I3
ssg75
g4129
sg68
(lp4136
S''
asbasbasbasbasbasbasbag61
(g77
g63
NtRp4137
(dp4138
g66
(dp4139
sg75
g3871
sg68
(lp4140
g61
(g82
g63
NtRp4141
(dp4142
g66
(dp4143
g86
g87
ssg75
g4137
sg68
(lp4144
S'user_groups'
p4145
asbag61
(g82
g63
NtRp4146
(dp4147
g66
(dp4148
g93
g94
ssg75
g4137
sg68
(lp4149
S':'
asbag61
(g82
g63
NtRp4150
(dp4151
g66
(dp4152
sg75
g4137
sg68
(lp4153
g61
(g62
g63
NtRp4154
(dp4155
g66
(dp4156
g74
I4
ssg75
g4150
sg68
(lp4157
g61
(g70
g63
NtRp4158
(dp4159
g66
(dp4160
g74
I3
ssg75
Nsg68
(lp4161
g61
(g77
g63
NtRp4162
(dp4163
g66
(dp4164
sg75
g4158
sg68
(lp4165
g61
(g82
g63
NtRp4166
(dp4167
g66
(dp4168
g86
g87
ssg75
g4162
sg68
(lp4169
S'1'
asbag61
(g82
g63
NtRp4170
(dp4171
g66
(dp4172
g93
g94
ssg75
g4162
sg68
(lp4173
S':'
asbag61
(g82
g63
NtRp4174
(dp4175
g66
(dp4176
sg75
g4162
sg68
(lp4177
g61
(g62
g63
NtRp4178
(dp4179
g66
(dp4180
g74
I3
ssg75
g4174
sg68
(lp4181
S'user_2'
p4182
asbasbasbasbasbasbasbasbasbasbasbag61
(g77
g63
NtRp4183
(dp4184
g66
(dp4185
sg75
g3846
sg68
(lp4186
g61
(g82
g63
NtRp4187
(dp4188
g66
(dp4189
g86
g87
ssg75
g4183
sg68
(lp4190
S'flash'
p4191
asbag61
(g82
g63
NtRp4192
(dp4193
g66
(dp4194
g93
g94
ssg75
g4183
sg68
(lp4195
S':'
asbag61
(g82
g63
NtRp4196
(dp4197
g66
(dp4198
sg75
g4183
sg68
(lp4199
g61
(g62
g63
NtRp4200
(dp4201
g66
(dp4202
g74
I5
ssg75
g4196
sg68
(lp4203
S'None'
p4204
asbasbasbag61
(g77
g63
NtRp4205
(dp4206
g66
(dp4207
sg75
g3846
sg68
(lp4208
g61
(g82
g63
NtRp4209
(dp4210
g66
(dp4211
g86
g87
ssg75
g4205
sg68
(lp4212
S'last_orderby'
p4213
asbag61
(g82
g63
NtRp4214
(dp4215
g66
(dp4216
g93
g94
ssg75
g4205
sg68
(lp4217
S':'
asbag61
(g82
g63
NtRp4218
(dp4219
g66
(dp4220
sg75
g4205
sg68
(lp4221
g61
(g62
g63
NtRp4222
(dp4223
g66
(dp4224
g74
I5
ssg75
g4218
sg68
(lp4225
S'None'
p4226
asbasbasbag61
(g77
g63
NtRp4227
(dp4228
g66
(dp4229
sg75
g3846
sg68
(lp4230
g61
(g82
g63
NtRp4231
(dp4232
g66
(dp4233
g86
g87
ssg75
g4227
sg68
(lp4234
S'last_query'
p4235
asbag61
(g82
g63
NtRp4236
(dp4237
g66
(dp4238
g93
g94
ssg75
g4227
sg68
(lp4239
S':'
asbag61
(g82
g63
NtRp4240
(dp4241
g66
(dp4242
sg75
g4227
sg68
(lp4243
g61
(g62
g63
NtRp4244
(dp4245
g66
(dp4246
g74
I5
ssg75
g4240
sg68
(lp4247
S'db.OTHER_PRODUCTS.Product_ID>0'
p4248
asbasbasbasbasbsS'etype'
p4249
S"<class '_mysql_exceptions.IntegrityError'>"
p4250
sS'date'
p4251
S'Mon Oct 21 19:49:09 2013'
p4252
sS'response'
p4253
g61
(g62
g63
NtRp4254
(dp4255
g66
(dp4256
sg68
(lp4257
g61
(g70
g63
NtRp4258
(dp4259
g66
(dp4260
g74
I5
ssg75
Nsg68
(lp4261
g61
(g77
g63
NtRp4262
(dp4263
g66
(dp4264
sg75
g4258
sg68
(lp4265
g61
(g82
g63
NtRp4266
(dp4267
g66
(dp4268
g86
g87
ssg75
g4262
sg68
(lp4269
g159
asbag61
(g82
g63
NtRp4270
(dp4271
g66
(dp4272
g93
g94
ssg75
g4262
sg68
(lp4273
S':'
asbag61
(g82
g63
NtRp4274
(dp4275
g66
(dp4276
sg75
g4262
sg68
(lp4277
g61
(g62
g63
NtRp4278
(dp4279
g66
(dp4280
g74
I5
ssg75
g4274
sg68
(lp4281
S'<cStringIO.StringO object at 0x7fa07052b3e8>'
p4282
asbasbasbag61
(g77
g63
NtRp4283
(dp4284
g66
(dp4285
sg75
g4258
sg68
(lp4286
g61
(g82
g63
NtRp4287
(dp4288
g66
(dp4289
g86
g87
ssg75
g4283
sg68
(lp4290
g247
asbag61
(g82
g63
NtRp4291
(dp4292
g66
(dp4293
g93
g94
ssg75
g4283
sg68
(lp4294
S':'
asbag61
(g82
g63
NtRp4295
(dp4296
g66
(dp4297
sg75
g4283
sg68
(lp4298
g61
(g62
g63
NtRp4299
(dp4300
g66
(dp4301
g74
I5
ssg75
g4295
sg68
(lp4302
g61
(g70
g63
NtRp4303
(dp4304
g66
(dp4305
g74
I4
ssg75
Nsg68
(lp4306
g61
(g77
g63
NtRp4307
(dp4308
g66
(dp4309
sg75
g4303
sg68
(lp4310
g61
(g82
g63
NtRp4311
(dp4312
g66
(dp4313
g86
g87
ssg75
g4307
sg68
(lp4314
S'session_id_gogreen_motors_2'
p4315
asbag61
(g82
g63
NtRp4316
(dp4317
g66
(dp4318
g93
g94
ssg75
g4307
sg68
(lp4319
S':'
asbag61
(g82
g63
NtRp4320
(dp4321
g66
(dp4322
sg75
g4307
sg68
(lp4323
g61
(g62
g63
NtRp4324
(dp4325
g66
(dp4326
g74
I4
ssg75
g4320
sg68
(lp4327
g665
ag61
(g70
g63
NtRp4328
(dp4329
g66
(dp4330
g74
I3
ssg75
Nsg68
(lp4331
g61
(g77
g63
NtRp4332
(dp4333
g66
(dp4334
sg75
g4328
sg68
(lp4335
g61
(g82
g63
NtRp4336
(dp4337
g66
(dp4338
g86
g87
ssg75
g4332
sg68
(lp4339
g298
asbag61
(g82
g63
NtRp4340
(dp4341
g66
(dp4342
g93
g94
ssg75
g4332
sg68
(lp4343
S':'
asbag61
(g82
g63
NtRp4344
(dp4345
g66
(dp4346
sg75
g4332
sg68
(lp4347
g61
(g62
g63
NtRp4348
(dp4349
g66
(dp4350
g74
I3
ssg75
g4344
sg68
(lp4351
S''
asbasbasbag61
(g77
g63
NtRp4352
(dp4353
g66
(dp4354
sg75
g4328
sg68
(lp4355
g61
(g82
g63
NtRp4356
(dp4357
g66
(dp4358
g86
g87
ssg75
g4352
sg68
(lp4359
g319
asbag61
(g82
g63
NtRp4360
(dp4361
g66
(dp4362
g93
g94
ssg75
g4352
sg68
(lp4363
S':'
asbag61
(g82
g63
NtRp4364
(dp4365
g66
(dp4366
sg75
g4352
sg68
(lp4367
g61
(g62
g63
NtRp4368
(dp4369
g66
(dp4370
g74
I3
ssg75
g4364
sg68
(lp4371
S''
asbasbasbag61
(g77
g63
NtRp4372
(dp4373
g66
(dp4374
sg75
g4328
sg68
(lp4375
g61
(g82
g63
NtRp4376
(dp4377
g66
(dp4378
g86
g87
ssg75
g4372
sg68
(lp4379
g340
asbag61
(g82
g63
NtRp4380
(dp4381
g66
(dp4382
g93
g94
ssg75
g4372
sg68
(lp4383
S':'
asbag61
(g82
g63
NtRp4384
(dp4385
g66
(dp4386
sg75
g4372
sg68
(lp4387
g61
(g62
g63
NtRp4388
(dp4389
g66
(dp4390
g74
I3
ssg75
g4384
sg68
(lp4391
S''
asbasbasbag61
(g77
g63
NtRp4392
(dp4393
g66
(dp4394
sg75
g4328
sg68
(lp4395
g61
(g82
g63
NtRp4396
(dp4397
g66
(dp4398
g86
g87
ssg75
g4392
sg68
(lp4399
g361
asbag61
(g82
g63
NtRp4400
(dp4401
g66
(dp4402
g93
g94
ssg75
g4392
sg68
(lp4403
S':'
asbag61
(g82
g63
NtRp4404
(dp4405
g66
(dp4406
sg75
g4392
sg68
(lp4407
g61
(g62
g63
NtRp4408
(dp4409
g66
(dp4410
g74
I3
ssg75
g4404
sg68
(lp4411
S''
asbasbasbag61
(g77
g63
NtRp4412
(dp4413
g66
(dp4414
sg75
g4328
sg68
(lp4415
g61
(g82
g63
NtRp4416
(dp4417
g66
(dp4418
g86
g87
ssg75
g4412
sg68
(lp4419
g382
asbag61
(g82
g63
NtRp4420
(dp4421
g66
(dp4422
g93
g94
ssg75
g4412
sg68
(lp4423
S':'
asbag61
(g82
g63
NtRp4424
(dp4425
g66
(dp4426
sg75
g4412
sg68
(lp4427
g61
(g62
g63
NtRp4428
(dp4429
g66
(dp4430
g74
I3
ssg75
g4424
sg68
(lp4431
S''
asbasbasbag61
(g77
g63
NtRp4432
(dp4433
g66
(dp4434
sg75
g4328
sg68
(lp4435
g61
(g82
g63
NtRp4436
(dp4437
g66
(dp4438
g86
g87
ssg75
g4432
sg68
(lp4439
g403
asbag61
(g82
g63
NtRp4440
(dp4441
g66
(dp4442
g93
g94
ssg75
g4432
sg68
(lp4443
S':'
asbag61
(g82
g63
NtRp4444
(dp4445
g66
(dp4446
sg75
g4432
sg68
(lp4447
g61
(g62
g63
NtRp4448
(dp4449
g66
(dp4450
g74
I3
ssg75
g4444
sg68
(lp4451
S'/'
asbasbasbag61
(g77
g63
NtRp4452
(dp4453
g66
(dp4454
sg75
g4328
sg68
(lp4455
g61
(g82
g63
NtRp4456
(dp4457
g66
(dp4458
g86
g87
ssg75
g4452
sg68
(lp4459
g424
asbag61
(g82
g63
NtRp4460
(dp4461
g66
(dp4462
g93
g94
ssg75
g4452
sg68
(lp4463
S':'
asbag61
(g82
g63
NtRp4464
(dp4465
g66
(dp4466
sg75
g4452
sg68
(lp4467
g61
(g62
g63
NtRp4468
(dp4469
g66
(dp4470
g74
I3
ssg75
g4464
sg68
(lp4471
S''
asbasbasbag61
(g77
g63
NtRp4472
(dp4473
g66
(dp4474
sg75
g4328
sg68
(lp4475
g61
(g82
g63
NtRp4476
(dp4477
g66
(dp4478
g86
g87
ssg75
g4472
sg68
(lp4479
g445
asbag61
(g82
g63
NtRp4480
(dp4481
g66
(dp4482
g93
g94
ssg75
g4472
sg68
(lp4483
S':'
asbag61
(g82
g63
NtRp4484
(dp4485
g66
(dp4486
sg75
g4472
sg68
(lp4487
g61
(g62
g63
NtRp4488
(dp4489
g66
(dp4490
g74
I3
ssg75
g4484
sg68
(lp4491
S''
asbasbasbasbasbasbasbasbasbasbasbag61
(g77
g63
NtRp4492
(dp4493
g66
(dp4494
sg75
g4258
sg68
(lp4495
g61
(g82
g63
NtRp4496
(dp4497
g66
(dp4498
g86
g87
ssg75
g4492
sg68
(lp4499
S'delimiters'
p4500
asbag61
(g82
g63
NtRp4501
(dp4502
g66
(dp4503
g93
g94
ssg75
g4492
sg68
(lp4504
S':'
asbag61
(g82
g63
NtRp4505
(dp4506
g66
(dp4507
sg75
g4492
sg68
(lp4508
g61
(g62
g63
NtRp4509
(dp4510
g66
(dp4511
g74
I5
ssg75
g4505
sg68
(lp4512
g61
(g70
g63
NtRp4513
(dp4514
g66
(dp4515
g74
I4
ssg75
Nsg68
(lp4516
g61
(g77
g63
NtRp4517
(dp4518
g66
(dp4519
sg75
g4513
sg68
(lp4520
g61
(g82
g63
NtRp4521
(dp4522
g66
(dp4523
sg75
g4517
sg68
(lp4524
g61
(g62
g63
NtRp4525
(dp4526
g66
(dp4527
g74
I4
ssg75
g4521
sg68
(lp4528
S'{{'
p4529
asbasbasbag61
(g77
g63
NtRp4530
(dp4531
g66
(dp4532
sg75
g4513
sg68
(lp4533
g61
(g82
g63
NtRp4534
(dp4535
g66
(dp4536
sg75
g4530
sg68
(lp4537
g61
(g62
g63
NtRp4538
(dp4539
g66
(dp4540
g74
I4
ssg75
g4534
sg68
(lp4541
S'}}'
p4542
asbasbasbasbasbasbasbag61
(g77
g63
NtRp4543
(dp4544
g66
(dp4545
sg75
g4258
sg68
(lp4546
g61
(g82
g63
NtRp4547
(dp4548
g66
(dp4549
g86
g87
ssg75
g4543
sg68
(lp4550
S'files'
p4551
asbag61
(g82
g63
NtRp4552
(dp4553
g66
(dp4554
g93
g94
ssg75
g4543
sg68
(lp4555
S':'
asbag61
(g82
g63
NtRp4556
(dp4557
g66
(dp4558
sg75
g4543
sg68
(lp4559
g61
(g62
g63
NtRp4560
(dp4561
g66
(dp4562
g74
I5
ssg75
g4556
sg68
(lp4563
g61
(g70
g63
NtRp4564
(dp4565
g66
(dp4566
g74
I4
ssg75
Nsg68
(lp4567
sbasbasbasbag61
(g77
g63
NtRp4568
(dp4569
g66
(dp4570
sg75
g4258
sg68
(lp4571
g61
(g82
g63
NtRp4572
(dp4573
g66
(dp4574
g86
g87
ssg75
g4568
sg68
(lp4575
S'flash'
p4576
asbag61
(g82
g63
NtRp4577
(dp4578
g66
(dp4579
g93
g94
ssg75
g4568
sg68
(lp4580
S':'
asbag61
(g82
g63
NtRp4581
(dp4582
g66
(dp4583
sg75
g4568
sg68
(lp4584
g61
(g62
g63
NtRp4585
(dp4586
g66
(dp4587
g74
I5
ssg75
g4581
sg68
(lp4588
S''
asbasbasbag61
(g77
g63
NtRp4589
(dp4590
g66
(dp4591
sg75
g4258
sg68
(lp4592
g61
(g82
g63
NtRp4593
(dp4594
g66
(dp4595
g86
g87
ssg75
g4589
sg68
(lp4596
S'generic_patterns'
p4597
asbag61
(g82
g63
NtRp4598
(dp4599
g66
(dp4600
g93
g94
ssg75
g4589
sg68
(lp4601
S':'
asbag61
(g82
g63
NtRp4602
(dp4603
g66
(dp4604
sg75
g4589
sg68
(lp4605
g61
(g62
g63
NtRp4606
(dp4607
g66
(dp4608
g74
I5
ssg75
g4602
sg68
(lp4609
g61
(g70
g63
NtRp4610
(dp4611
g66
(dp4612
g74
I4
ssg75
Nsg68
(lp4613
g61
(g77
g63
NtRp4614
(dp4615
g66
(dp4616
sg75
g4610
sg68
(lp4617
g61
(g82
g63
NtRp4618
(dp4619
g66
(dp4620
sg75
g4614
sg68
(lp4621
g61
(g62
g63
NtRp4622
(dp4623
g66
(dp4624
g74
I4
ssg75
g4618
sg68
(lp4625
S'*'
asbasbasbasbasbasbasbag61
(g77
g63
NtRp4626
(dp4627
g66
(dp4628
sg75
g4258
sg68
(lp4629
g61
(g82
g63
NtRp4630
(dp4631
g66
(dp4632
g86
g87
ssg75
g4626
sg68
(lp4633
S'google_analytics_id'
p4634
asbag61
(g82
g63
NtRp4635
(dp4636
g66
(dp4637
g93
g94
ssg75
g4626
sg68
(lp4638
S':'
asbag61
(g82
g63
NtRp4639
(dp4640
g66
(dp4641
sg75
g4626
sg68
(lp4642
g61
(g62
g63
NtRp4643
(dp4644
g66
(dp4645
g74
I5
ssg75
g4639
sg68
(lp4646
S'None'
p4647
asbasbasbag61
(g77
g63
NtRp4648
(dp4649
g66
(dp4650
sg75
g4258
sg68
(lp4651
g61
(g82
g63
NtRp4652
(dp4653
g66
(dp4654
g86
g87
ssg75
g4648
sg68
(lp4655
S'headers'
p4656
asbag61
(g82
g63
NtRp4657
(dp4658
g66
(dp4659
g93
g94
ssg75
g4648
sg68
(lp4660
S':'
asbag61
(g82
g63
NtRp4661
(dp4662
g66
(dp4663
sg75
g4648
sg68
(lp4664
g61
(g62
g63
NtRp4665
(dp4666
g66
(dp4667
g74
I5
ssg75
g4661
sg68
(lp4668
g61
(g70
g63
NtRp4669
(dp4670
g66
(dp4671
g74
I4
ssg75
Nsg68
(lp4672
g61
(g77
g63
NtRp4673
(dp4674
g66
(dp4675
sg75
g4669
sg68
(lp4676
g61
(g82
g63
NtRp4677
(dp4678
g66
(dp4679
g86
g87
ssg75
g4673
sg68
(lp4680
S'X-Powered-By'
p4681
asbag61
(g82
g63
NtRp4682
(dp4683
g66
(dp4684
g93
g94
ssg75
g4673
sg68
(lp4685
S':'
asbag61
(g82
g63
NtRp4686
(dp4687
g66
(dp4688
sg75
g4673
sg68
(lp4689
g61
(g62
g63
NtRp4690
(dp4691
g66
(dp4692
g74
I4
ssg75
g4686
sg68
(lp4693
S'web2py'
p4694
asbasbasbasbasbasbasbag61
(g77
g63
NtRp4695
(dp4696
g66
(dp4697
sg75
g4258
sg68
(lp4698
g61
(g82
g63
NtRp4699
(dp4700
g66
(dp4701
g86
g87
ssg75
g4695
sg68
(lp4702
S'logo'
p4703
asbag61
(g82
g63
NtRp4704
(dp4705
g66
(dp4706
g93
g94
ssg75
g4695
sg68
(lp4707
S':'
asbag61
(g82
g63
NtRp4708
(dp4709
g66
(dp4710
sg75
g4695
sg68
(lp4711
g61
(g62
g63
NtRp4712
(dp4713
g66
(dp4714
g74
I5
ssg75
g4708
sg68
(lp4715
g61
(cgluon.html
A
p4716
g63
NtRp4717
(dp4718
g66
(dp4719
S'_class'
p4720
S'brand'
p4721
sS'_href'
p4722
S'http://www.web2py.com/'
p4723
ssg75
Nsg68
(lp4724
g61
(cgluon.html
B
p4725
g63
NtRp4726
(dp4727
g66
(dp4728
sg75
g4717
sg68
(lp4729
S'web'
p4730
ag61
(cgluon.html
SPAN
p4731
g63
NtRp4732
(dp4733
g66
(dp4734
sg75
g4726
sg68
(lp4735
I2
asbaS'py'
p4736
asbacgluon.html
XML_unpickle
p4737
(S's\r\x00\x00\x00&trade;&nbsp;'
tRp4738
asbasbasbasbag61
(g77
g63
NtRp4739
(dp4740
g66
(dp4741
sg75
g4258
sg68
(lp4742
g61
(g82
g63
NtRp4743
(dp4744
g66
(dp4745
g86
g87
ssg75
g4739
sg68
(lp4746
S'menu'
p4747
asbag61
(g82
g63
NtRp4748
(dp4749
g66
(dp4750
g93
g94
ssg75
g4739
sg68
(lp4751
S':'
asbag61
(g82
g63
NtRp4752
(dp4753
g66
(dp4754
sg75
g4739
sg68
(lp4755
g61
(g62
g63
NtRp4756
(dp4757
g66
(dp4758
g74
I5
ssg75
g4752
sg68
(lp4759
g61
(g70
g63
NtRp4760
(dp4761
g66
(dp4762
g74
I4
ssg75
Nsg68
(lp4763
g61
(g77
g63
NtRp4764
(dp4765
g66
(dp4766
sg75
g4760
sg68
(lp4767
g61
(g82
g63
NtRp4768
(dp4769
g66
(dp4770
sg75
g4764
sg68
(lp4771
g61
(g62
g63
NtRp4772
(dp4773
g66
(dp4774
g74
I4
ssg75
g4768
sg68
(lp4775
g61
(g70
g63
NtRp4776
(dp4777
g66
(dp4778
g74
I3
ssg75
Nsg68
(lp4779
g61
(g77
g63
NtRp4780
(dp4781
g66
(dp4782
sg75
g4776
sg68
(lp4783
g61
(g82
g63
NtRp4784
(dp4785
g66
(dp4786
sg75
g4780
sg68
(lp4787
g61
(g62
g63
NtRp4788
(dp4789
g66
(dp4790
g74
I3
ssg75
g4784
sg68
(lp4791
cgluon.languages
lazyT_unpickle
p4792
(S's\x04\x00\x00\x00Home'
tRp4793
asbasbasbag61
(g77
g63
NtRp4794
(dp4795
g66
(dp4796
sg75
g4776
sg68
(lp4797
g61
(g82
g63
NtRp4798
(dp4799
g66
(dp4800
sg75
g4794
sg68
(lp4801
g61
(g62
g63
NtRp4802
(dp4803
g66
(dp4804
g74
I3
ssg75
g4798
sg68
(lp4805
g104
asbasbasbag61
(g77
g63
NtRp4806
(dp4807
g66
(dp4808
sg75
g4776
sg68
(lp4809
g61
(g82
g63
NtRp4810
(dp4811
g66
(dp4812
sg75
g4806
sg68
(lp4813
g61
(g62
g63
NtRp4814
(dp4815
g66
(dp4816
g74
I3
ssg75
g4810
sg68
(lp4817
S'/GoGreen_Motors_2/default/index'
p4818
asbasbasbag61
(g77
g63
NtRp4819
(dp4820
g66
(dp4821
sg75
g4776
sg68
(lp4822
g61
(g82
g63
NtRp4823
(dp4824
g66
(dp4825
sg75
g4819
sg68
(lp4826
g61
(g62
g63
NtRp4827
(dp4828
g66
(dp4829
g74
I3
ssg75
g4823
sg68
(lp4830
g61
(g70
g63
NtRp4831
(dp4832
g66
(dp4833
g74
I2
ssg75
Nsg68
(lp4834
sbasbasbasbasbasbasbasbag61
(g77
g63
NtRp4835
(dp4836
g66
(dp4837
sg75
g4760
sg68
(lp4838
g61
(g82
g63
NtRp4839
(dp4840
g66
(dp4841
sg75
g4835
sg68
(lp4842
g61
(g62
g63
NtRp4843
(dp4844
g66
(dp4845
g74
I4
ssg75
g4839
sg68
(lp4846
g61
(g70
g63
NtRp4847
(dp4848
g66
(dp4849
g74
I3
ssg75
Nsg68
(lp4850
g61
(g77
g63
NtRp4851
(dp4852
g66
(dp4853
sg75
g4847
sg68
(lp4854
g61
(g82
g63
NtRp4855
(dp4856
g66
(dp4857
sg75
g4851
sg68
(lp4858
g61
(g62
g63
NtRp4859
(dp4860
g66
(dp4861
g74
I3
ssg75
g4855
sg68
(lp4862
g61
(g4731
g63
NtRp4863
(dp4864
g66
(dp4865
g4720
S'highlighted'
p4866
ssg75
Nsg68
(lp4867
g4694
asbasbasbasbag61
(g77
g63
NtRp4868
(dp4869
g66
(dp4870
sg75
g4847
sg68
(lp4871
g61
(g82
g63
NtRp4872
(dp4873
g66
(dp4874
sg75
g4868
sg68
(lp4875
g61
(g62
g63
NtRp4876
(dp4877
g66
(dp4878
g74
I3
ssg75
g4872
sg68
(lp4879
g104
asbasbasbag61
(g77
g63
NtRp4880
(dp4881
g66
(dp4882
sg75
g4847
sg68
(lp4883
g61
(g82
g63
NtRp4884
(dp4885
g66
(dp4886
sg75
g4880
sg68
(lp4887
g61
(g62
g63
NtRp4888
(dp4889
g66
(dp4890
g74
I3
ssg75
g4884
sg68
(lp4891
S'http://web2py.com'
p4892
asbasbasbag61
(g77
g63
NtRp4893
(dp4894
g66
(dp4895
sg75
g4847
sg68
(lp4896
g61
(g82
g63
NtRp4897
(dp4898
g66
(dp4899
sg75
g4893
sg68
(lp4900
g61
(g62
g63
NtRp4901
(dp4902
g66
(dp4903
g74
I3
ssg75
g4897
sg68
(lp4904
g61
(g70
g63
NtRp4905
(dp4906
g66
(dp4907
g74
I2
ssg75
Nsg68
(lp4908
g61
(g77
g63
NtRp4909
(dp4910
g66
(dp4911
sg75
g4905
sg68
(lp4912
g61
(g82
g63
NtRp4913
(dp4914
g66
(dp4915
sg75
g4909
sg68
(lp4916
g61
(g62
g63
NtRp4917
(dp4918
g66
(dp4919
g74
I2
ssg75
g4913
sg68
(lp4920
g61
(g70
g63
NtRp4921
(dp4922
g66
(dp4923
g74
I1
ssg75
Nsg68
(lp4924
g61
(g77
g63
NtRp4925
(dp4926
g66
(dp4927
sg75
g4921
sg68
(lp4928
g61
(g82
g63
NtRp4929
(dp4930
g66
(dp4931
sg75
g4925
sg68
(lp4932
g61
(g62
g63
NtRp4933
(dp4934
g66
(dp4935
g74
I1
ssg75
g4929
sg68
(lp4936
g4792
(S's\x08\x00\x00\x00My Sites'
tRp4937
asbasbasbag61
(g77
g63
NtRp4938
(dp4939
g66
(dp4940
sg75
g4921
sg68
(lp4941
g61
(g82
g63
NtRp4942
(dp4943
g66
(dp4944
sg75
g4938
sg68
(lp4945
g61
(g62
g63
NtRp4946
(dp4947
g66
(dp4948
g74
I1
ssg75
g4942
sg68
(lp4949
I00
asbasbasbag61
(g77
g63
NtRp4950
(dp4951
g66
(dp4952
sg75
g4921
sg68
(lp4953
g61
(g82
g63
NtRp4954
(dp4955
g66
(dp4956
sg75
g4950
sg68
(lp4957
g61
(g62
g63
NtRp4958
(dp4959
g66
(dp4960
g74
I1
ssg75
g4954
sg68
(lp4961
S'/admin/default/site'
p4962
asbasbasbasbasbasbasbag61
(g77
g63
NtRp4963
(dp4964
g66
(dp4965
sg75
g4905
sg68
(lp4966
g61
(g82
g63
NtRp4967
(dp4968
g66
(dp4969
sg75
g4963
sg68
(lp4970
g61
(g62
g63
NtRp4971
(dp4972
g66
(dp4973
g74
I2
ssg75
g4967
sg68
(lp4974
g61
(g70
g63
NtRp4975
(dp4976
g66
(dp4977
g74
I1
ssg75
Nsg68
(lp4978
g61
(g77
g63
NtRp4979
(dp4980
g66
(dp4981
sg75
g4975
sg68
(lp4982
g61
(g82
g63
NtRp4983
(dp4984
g66
(dp4985
sg75
g4979
sg68
(lp4986
g61
(g62
g63
NtRp4987
(dp4988
g66
(dp4989
g74
I1
ssg75
g4983
sg68
(lp4990
g4792
(S's\x08\x00\x00\x00This App'
tRp4991
asbasbasbag61
(g77
g63
NtRp4992
(dp4993
g66
(dp4994
sg75
g4975
sg68
(lp4995
g61
(g82
g63
NtRp4996
(dp4997
g66
(dp4998
sg75
g4992
sg68
(lp4999
g61
(g62
g63
NtRp5000
(dp5001
g66
(dp5002
g74
I1
ssg75
g4996
sg68
(lp5003
I00
asbasbasbag61
(g77
g63
NtRp5004
(dp5005
g66
(dp5006
sg75
g4975
sg68
(lp5007
g61
(g82
g63
NtRp5008
(dp5009
g66
(dp5010
sg75
g5004
sg68
(lp5011
g61
(g62
g63
NtRp5012
(dp5013
g66
(dp5014
g74
I1
ssg75
g5008
sg68
(lp5015
S'/admin/default/design/GoGreen_Motors_2'
p5016
asbasbasbag61
(g77
g63
NtRp5017
(dp5018
g66
(dp5019
sg75
g4975
sg68
(lp5020
g61
(g82
g63
NtRp5021
(dp5022
g66
(dp5023
sg75
g5017
sg68
(lp5024
g61
(g62
g63
NtRp5025
(dp5026
g66
(dp5027
g74
I1
ssg75
g5021
sg68
(lp5028
(lp5029
(g4792
(S's\n\x00\x00\x00Controller'
tRp5030
I00
S'/admin/default/edit/GoGreen_Motors_2/controllers/default.py'
tp5031
a(g4792
(S's\x04\x00\x00\x00View'
tRp5032
I00
S'/admin/default/edit/GoGreen_Motors_2/views/default/add_sale.html'
tp5033
a(g4792
(S's\x06\x00\x00\x00Layout'
tRp5034
I00
S'/admin/default/edit/GoGreen_Motors_2/views/layout.html'
tp5035
a(g4792
(S's\n\x00\x00\x00Stylesheet'
tRp5036
I00
S'/admin/default/edit/GoGreen_Motors_2/static/css/web2py.css'
tp5037
a(g4792
(S's\x08\x00\x00\x00DB Model'
tRp5038
I00
S'/admin/default/edit/GoGreen_Motors_2/models/db.py'
tp5039
a(g4792
(S's\n\x00\x00\x00Menu Model'
tRp5040
I00
S'/admin/default/edit/GoGreen_Motors_2/models/menu.py'
tp5041
a(g4792
(S's\x08\x00\x00\x00Database'
tRp5042
I00
S'/GoGreen_Motors_2/appadmin/index'
tp5043
a(g4792
(S's\x06\x00\x00\x00Errors'
tRp5044
I00
S'/admin/default/errors/GoGreen_Motors_2'
tp5045
a(g4792
(S's\x05\x00\x00\x00About'
tRp5046
I00
S'/admin/default/about/GoGreen_Motors_2'
tp5047
aasbasbasbasbasbasbasbag61
(g77
g63
NtRp5048
(dp5049
g66
(dp5050
sg75
g4905
sg68
(lp5051
g61
(g82
g63
NtRp5052
(dp5053
g66
(dp5054
sg75
g5048
sg68
(lp5055
g61
(g62
g63
NtRp5056
(dp5057
g66
(dp5058
g74
I2
ssg75
g5052
sg68
(lp5059
g61
(g70
g63
NtRp5060
(dp5061
g66
(dp5062
g74
I1
ssg75
Nsg68
(lp5063
g61
(g77
g63
NtRp5064
(dp5065
g66
(dp5066
sg75
g5060
sg68
(lp5067
g61
(g82
g63
NtRp5068
(dp5069
g66
(dp5070
sg75
g5064
sg68
(lp5071
g61
(g62
g63
NtRp5072
(dp5073
g66
(dp5074
g74
I1
ssg75
g5068
sg68
(lp5075
S'web2py.com'
p5076
asbasbasbag61
(g77
g63
NtRp5077
(dp5078
g66
(dp5079
sg75
g5060
sg68
(lp5080
g61
(g82
g63
NtRp5081
(dp5082
g66
(dp5083
sg75
g5077
sg68
(lp5084
g61
(g62
g63
NtRp5085
(dp5086
g66
(dp5087
g74
I1
ssg75
g5081
sg68
(lp5088
I00
asbasbasbag61
(g77
g63
NtRp5089
(dp5090
g66
(dp5091
sg75
g5060
sg68
(lp5092
g61
(g82
g63
NtRp5093
(dp5094
g66
(dp5095
sg75
g5089
sg68
(lp5096
g61
(g62
g63
NtRp5097
(dp5098
g66
(dp5099
g74
I1
ssg75
g5093
sg68
(lp5100
S'http://www.web2py.com'
p5101
asbasbasbag61
(g77
g63
NtRp5102
(dp5103
g66
(dp5104
sg75
g5060
sg68
(lp5105
g61
(g82
g63
NtRp5106
(dp5107
g66
(dp5108
sg75
g5102
sg68
(lp5109
g61
(g62
g63
NtRp5110
(dp5111
g66
(dp5112
g74
I1
ssg75
g5106
sg68
(lp5113
(lp5114
(g4792
(S's\x08\x00\x00\x00Download'
tRp5115
I00
S'http://www.web2py.com/examples/default/download'
p5116
tp5117
a(g4792
(S's\x07\x00\x00\x00Support'
tRp5118
I00
S'http://www.web2py.com/examples/default/support'
p5119
tp5120
a(g4792
(S's\x04\x00\x00\x00Demo'
tRp5121
I00
S'http://web2py.com/demo_admin'
p5122
tp5123
a(g4792
(S's\x0e\x00\x00\x00Quick Examples'
tRp5124
I00
S'http://web2py.com/examples/default/examples'
p5125
tp5126
a(g4792
(S's\x03\x00\x00\x00FAQ'
tRp5127
I00
S'http://web2py.com/AlterEgo'
p5128
tp5129
a(g4792
(S's\x06\x00\x00\x00Videos'
tRp5130
I00
S'http://www.web2py.com/examples/default/videos/'
p5131
tp5132
a(g4792
(S's\x11\x00\x00\x00Free Applications'
tRp5133
I00
S'http://web2py.com/appliances'
p5134
tp5135
a(g4792
(S's\x07\x00\x00\x00Plugins'
tRp5136
I00
S'http://web2py.com/plugins'
p5137
tp5138
a(g4792
(S's\x07\x00\x00\x00Layouts'
tRp5139
I00
S'http://web2py.com/layouts'
p5140
tp5141
a(g4792
(S's\x07\x00\x00\x00Recipes'
tRp5142
I00
S'http://web2pyslices.com/'
p5143
tp5144
a(g4792
(S's\x08\x00\x00\x00Semantic'
tRp5145
I00
S'http://web2py.com/semantic'
p5146
tp5147
aasbasbasbasbasbasbasbag61
(g77
g63
NtRp5148
(dp5149
g66
(dp5150
sg75
g4905
sg68
(lp5151
g61
(g82
g63
NtRp5152
(dp5153
g66
(dp5154
sg75
g5148
sg68
(lp5155
g61
(g62
g63
NtRp5156
(dp5157
g66
(dp5158
g74
I2
ssg75
g5152
sg68
(lp5159
g61
(g70
g63
NtRp5160
(dp5161
g66
(dp5162
g74
I1
ssg75
Nsg68
(lp5163
g61
(g77
g63
NtRp5164
(dp5165
g66
(dp5166
sg75
g5160
sg68
(lp5167
g61
(g82
g63
NtRp5168
(dp5169
g66
(dp5170
sg75
g5164
sg68
(lp5171
g61
(g62
g63
NtRp5172
(dp5173
g66
(dp5174
g74
I1
ssg75
g5168
sg68
(lp5175
g4792
(S's\r\x00\x00\x00Documentation'
tRp5176
asbasbasbag61
(g77
g63
NtRp5177
(dp5178
g66
(dp5179
sg75
g5160
sg68
(lp5180
g61
(g82
g63
NtRp5181
(dp5182
g66
(dp5183
sg75
g5177
sg68
(lp5184
g61
(g62
g63
NtRp5185
(dp5186
g66
(dp5187
g74
I1
ssg75
g5181
sg68
(lp5188
I00
asbasbasbag61
(g77
g63
NtRp5189
(dp5190
g66
(dp5191
sg75
g5160
sg68
(lp5192
g61
(g82
g63
NtRp5193
(dp5194
g66
(dp5195
sg75
g5189
sg68
(lp5196
g61
(g62
g63
NtRp5197
(dp5198
g66
(dp5199
g74
I1
ssg75
g5193
sg68
(lp5200
S'http://www.web2py.com/book'
p5201
asbasbasbag61
(g77
g63
NtRp5202
(dp5203
g66
(dp5204
sg75
g5160
sg68
(lp5205
g61
(g82
g63
NtRp5206
(dp5207
g66
(dp5208
sg75
g5202
sg68
(lp5209
g61
(g62
g63
NtRp5210
(dp5211
g66
(dp5212
g74
I1
ssg75
g5206
sg68
(lp5213
(lp5214
(g4792
(S's\x07\x00\x00\x00Preface'
tRp5215
I00
S'http://www.web2py.com/book/default/chapter/00'
p5216
tp5217
a(g4792
(S's\x0c\x00\x00\x00Introduction'
tRp5218
I00
S'http://www.web2py.com/book/default/chapter/01'
p5219
tp5220
a(g4792
(S's\x06\x00\x00\x00Python'
tRp5221
I00
S'http://www.web2py.com/book/default/chapter/02'
p5222
tp5223
a(g4792
(S's\x08\x00\x00\x00Overview'
tRp5224
I00
S'http://www.web2py.com/book/default/chapter/03'
p5225
tp5226
a(g4792
(S's\x08\x00\x00\x00The Core'
tRp5227
I00
S'http://www.web2py.com/book/default/chapter/04'
p5228
tp5229
a(g4792
(S's\t\x00\x00\x00The Views'
tRp5230
I00
S'http://www.web2py.com/book/default/chapter/05'
p5231
tp5232
a(g4792
(S's\x08\x00\x00\x00Database'
tRp5233
I00
S'http://www.web2py.com/book/default/chapter/06'
p5234
tp5235
a(g4792
(S's\x14\x00\x00\x00Forms and Validators'
tRp5236
I00
S'http://www.web2py.com/book/default/chapter/07'
p5237
tp5238
a(g4792
(S's\r\x00\x00\x00Email and SMS'
tRp5239
I00
S'http://www.web2py.com/book/default/chapter/08'
p5240
tp5241
a(g4792
(S's\x0e\x00\x00\x00Access Control'
tRp5242
I00
S'http://www.web2py.com/book/default/chapter/09'
p5243
tp5244
a(g4792
(S's\x08\x00\x00\x00Services'
tRp5245
I00
S'http://www.web2py.com/book/default/chapter/10'
p5246
tp5247
a(g4792
(S's\x0c\x00\x00\x00Ajax Recipes'
tRp5248
I00
S'http://www.web2py.com/book/default/chapter/11'
p5249
tp5250
a(g4792
(S's\x16\x00\x00\x00Components and Plugins'
tRp5251
I00
S'http://www.web2py.com/book/default/chapter/12'
p5252
tp5253
a(g4792
(S's\x12\x00\x00\x00Deployment Recipes'
tRp5254
I00
S'http://www.web2py.com/book/default/chapter/13'
p5255
tp5256
a(g4792
(S's\r\x00\x00\x00Other Recipes'
tRp5257
I00
S'http://www.web2py.com/book/default/chapter/14'
p5258
tp5259
a(g4792
(S's\r\x00\x00\x00Buy this book'
tRp5260
I00
S'http://stores.lulu.com/web2py'
p5261
tp5262
aasbasbasbasbasbasbasbag61
(g77
g63
NtRp5263
(dp5264
g66
(dp5265
sg75
g4905
sg68
(lp5266
g61
(g82
g63
NtRp5267
(dp5268
g66
(dp5269
sg75
g5263
sg68
(lp5270
g61
(g62
g63
NtRp5271
(dp5272
g66
(dp5273
g74
I2
ssg75
g5267
sg68
(lp5274
g61
(g70
g63
NtRp5275
(dp5276
g66
(dp5277
g74
I1
ssg75
Nsg68
(lp5278
g61
(g77
g63
NtRp5279
(dp5280
g66
(dp5281
sg75
g5275
sg68
(lp5282
g61
(g82
g63
NtRp5283
(dp5284
g66
(dp5285
sg75
g5279
sg68
(lp5286
g61
(g62
g63
NtRp5287
(dp5288
g66
(dp5289
g74
I1
ssg75
g5283
sg68
(lp5290
g4792
(S's\t\x00\x00\x00Community'
tRp5291
asbasbasbag61
(g77
g63
NtRp5292
(dp5293
g66
(dp5294
sg75
g5275
sg68
(lp5295
g61
(g82
g63
NtRp5296
(dp5297
g66
(dp5298
sg75
g5292
sg68
(lp5299
g61
(g62
g63
NtRp5300
(dp5301
g66
(dp5302
g74
I1
ssg75
g5296
sg68
(lp5303
I00
asbasbasbag61
(g77
g63
NtRp5304
(dp5305
g66
(dp5306
sg75
g5275
sg68
(lp5307
g61
(g82
g63
NtRp5308
(dp5309
g66
(dp5310
sg75
g5304
sg68
(lp5311
g61
(g62
g63
NtRp5312
(dp5313
g66
(dp5314
g74
I1
ssg75
g5308
sg68
(lp5315
Nasbasbasbag61
(g77
g63
NtRp5316
(dp5317
g66
(dp5318
sg75
g5275
sg68
(lp5319
g61
(g82
g63
NtRp5320
(dp5321
g66
(dp5322
sg75
g5316
sg68
(lp5323
g61
(g62
g63
NtRp5324
(dp5325
g66
(dp5326
g74
I1
ssg75
g5320
sg68
(lp5327
(lp5328
(g4792
(S's\x06\x00\x00\x00Groups'
tRp5329
I00
S'http://www.web2py.com/examples/default/usergroups'
p5330
tp5331
a(g4792
(S's\x07\x00\x00\x00Twitter'
tRp5332
I00
S'http://twitter.com/web2py'
p5333
tp5334
a(g4792
(S's\t\x00\x00\x00Live Chat'
tRp5335
I00
S'http://webchat.freenode.net/?channels=web2py'
p5336
tp5337
aasbasbasbasbasbasbasbag61
(g77
g63
NtRp5338
(dp5339
g66
(dp5340
sg75
g4905
sg68
(lp5341
g61
(g82
g63
NtRp5342
(dp5343
g66
(dp5344
sg75
g5338
sg68
(lp5345
g61
(g62
g63
NtRp5346
(dp5347
g66
(dp5348
g74
I2
ssg75
g5342
sg68
(lp5349
g61
(g70
g63
NtRp5350
(dp5351
g66
(dp5352
g74
I1
ssg75
Nsg68
(lp5353
g61
(g77
g63
NtRp5354
(dp5355
g66
(dp5356
sg75
g5350
sg68
(lp5357
g61
(g82
g63
NtRp5358
(dp5359
g66
(dp5360
sg75
g5354
sg68
(lp5361
g61
(g62
g63
NtRp5362
(dp5363
g66
(dp5364
g74
I1
ssg75
g5358
sg68
(lp5365
g4792
(S's\x07\x00\x00\x00Plugins'
tRp5366
asbasbasbag61
(g77
g63
NtRp5367
(dp5368
g66
(dp5369
sg75
g5350
sg68
(lp5370
g61
(g82
g63
NtRp5371
(dp5372
g66
(dp5373
sg75
g5367
sg68
(lp5374
g61
(g62
g63
NtRp5375
(dp5376
g66
(dp5377
g74
I1
ssg75
g5371
sg68
(lp5378
I00
asbasbasbag61
(g77
g63
NtRp5379
(dp5380
g66
(dp5381
sg75
g5350
sg68
(lp5382
g61
(g82
g63
NtRp5383
(dp5384
g66
(dp5385
sg75
g5379
sg68
(lp5386
g61
(g62
g63
NtRp5387
(dp5388
g66
(dp5389
g74
I1
ssg75
g5383
sg68
(lp5390
Nasbasbasbag61
(g77
g63
NtRp5391
(dp5392
g66
(dp5393
sg75
g5350
sg68
(lp5394
g61
(g82
g63
NtRp5395
(dp5396
g66
(dp5397
sg75
g5391
sg68
(lp5398
g61
(g62
g63
NtRp5399
(dp5400
g66
(dp5401
g74
I1
ssg75
g5395
sg68
(lp5402
(lp5403
(S'plugin_wiki'
p5404
I00
S'http://web2py.com/examples/default/download'
p5405
tp5406
a(g4792
(S's\r\x00\x00\x00Other Plugins'
tRp5407
I00
g5137
tp5408
a(g4792
(S's\x0e\x00\x00\x00Layout Plugins'
tRp5409
I00
g5140
tp5410
aasbasbasbasbasbasbasbasbasbasbasbasbasbasbasbasbasbasbasbag61
(g77
g63
NtRp5411
(dp5412
g66
(dp5413
sg75
g4258
sg68
(lp5414
g61
(g82
g63
NtRp5415
(dp5416
g66
(dp5417
g86
g87
ssg75
g5411
sg68
(lp5418
S'meta'
p5419
asbag61
(g82
g63
NtRp5420
(dp5421
g66
(dp5422
g93
g94
ssg75
g5411
sg68
(lp5423
S':'
asbag61
(g82
g63
NtRp5424
(dp5425
g66
(dp5426
sg75
g5411
sg68
(lp5427
g61
(g62
g63
NtRp5428
(dp5429
g66
(dp5430
g74
I5
ssg75
g5424
sg68
(lp5431
g61
(g70
g63
NtRp5432
(dp5433
g66
(dp5434
g74
I4
ssg75
Nsg68
(lp5435
g61
(g77
g63
NtRp5436
(dp5437
g66
(dp5438
sg75
g5432
sg68
(lp5439
g61
(g82
g63
NtRp5440
(dp5441
g66
(dp5442
g86
g87
ssg75
g5436
sg68
(lp5443
S'author'
p5444
asbag61
(g82
g63
NtRp5445
(dp5446
g66
(dp5447
g93
g94
ssg75
g5436
sg68
(lp5448
S':'
asbag61
(g82
g63
NtRp5449
(dp5450
g66
(dp5451
sg75
g5436
sg68
(lp5452
g61
(g62
g63
NtRp5453
(dp5454
g66
(dp5455
g74
I4
ssg75
g5449
sg68
(lp5456
S'Your Name <you@example.com>'
p5457
asbasbasbag61
(g77
g63
NtRp5458
(dp5459
g66
(dp5460
sg75
g5432
sg68
(lp5461
g61
(g82
g63
NtRp5462
(dp5463
g66
(dp5464
g86
g87
ssg75
g5458
sg68
(lp5465
S'description'
p5466
asbag61
(g82
g63
NtRp5467
(dp5468
g66
(dp5469
g93
g94
ssg75
g5458
sg68
(lp5470
S':'
asbag61
(g82
g63
NtRp5471
(dp5472
g66
(dp5473
sg75
g5458
sg68
(lp5474
g61
(g62
g63
NtRp5475
(dp5476
g66
(dp5477
g74
I4
ssg75
g5471
sg68
(lp5478
S'a cool new app'
p5479
asbasbasbag61
(g77
g63
NtRp5480
(dp5481
g66
(dp5482
sg75
g5432
sg68
(lp5483
g61
(g82
g63
NtRp5484
(dp5485
g66
(dp5486
g86
g87
ssg75
g5480
sg68
(lp5487
S'generator'
p5488
asbag61
(g82
g63
NtRp5489
(dp5490
g66
(dp5491
g93
g94
ssg75
g5480
sg68
(lp5492
S':'
asbag61
(g82
g63
NtRp5493
(dp5494
g66
(dp5495
sg75
g5480
sg68
(lp5496
g61
(g62
g63
NtRp5497
(dp5498
g66
(dp5499
g74
I4
ssg75
g5493
sg68
(lp5500
S'Web2py Web Framework'
p5501
asbasbasbag61
(g77
g63
NtRp5502
(dp5503
g66
(dp5504
sg75
g5432
sg68
(lp5505
g61
(g82
g63
NtRp5506
(dp5507
g66
(dp5508
g86
g87
ssg75
g5502
sg68
(lp5509
S'keywords'
p5510
asbag61
(g82
g63
NtRp5511
(dp5512
g66
(dp5513
g93
g94
ssg75
g5502
sg68
(lp5514
S':'
asbag61
(g82
g63
NtRp5515
(dp5516
g66
(dp5517
sg75
g5502
sg68
(lp5518
g61
(g62
g63
NtRp5519
(dp5520
g66
(dp5521
g74
I4
ssg75
g5515
sg68
(lp5522
S'web2py, python, framework'
p5523
asbasbasbasbasbasbasbag61
(g77
g63
NtRp5524
(dp5525
g66
(dp5526
sg75
g4258
sg68
(lp5527
g61
(g82
g63
NtRp5528
(dp5529
g66
(dp5530
g86
g87
ssg75
g5524
sg68
(lp5531
S'models_to_run'
p5532
asbag61
(g82
g63
NtRp5533
(dp5534
g66
(dp5535
g93
g94
ssg75
g5524
sg68
(lp5536
S':'
asbag61
(g82
g63
NtRp5537
(dp5538
g66
(dp5539
sg75
g5524
sg68
(lp5540
g61
(g62
g63
NtRp5541
(dp5542
g66
(dp5543
g74
I5
ssg75
g5537
sg68
(lp5544
g61
(g70
g63
NtRp5545
(dp5546
g66
(dp5547
g74
I4
ssg75
Nsg68
(lp5548
g61
(g77
g63
NtRp5549
(dp5550
g66
(dp5551
sg75
g5545
sg68
(lp5552
g61
(g82
g63
NtRp5553
(dp5554
g66
(dp5555
sg75
g5549
sg68
(lp5556
g61
(g62
g63
NtRp5557
(dp5558
g66
(dp5559
g74
I4
ssg75
g5553
sg68
(lp5560
S'^\\w+\\.py$'
p5561
asbasbasbag61
(g77
g63
NtRp5562
(dp5563
g66
(dp5564
sg75
g5545
sg68
(lp5565
g61
(g82
g63
NtRp5566
(dp5567
g66
(dp5568
sg75
g5562
sg68
(lp5569
g61
(g62
g63
NtRp5570
(dp5571
g66
(dp5572
g74
I4
ssg75
g5566
sg68
(lp5573
S'^default/\\w+\\.py$'
p5574
asbasbasbag61
(g77
g63
NtRp5575
(dp5576
g66
(dp5577
sg75
g5545
sg68
(lp5578
g61
(g82
g63
NtRp5579
(dp5580
g66
(dp5581
sg75
g5575
sg68
(lp5582
g61
(g62
g63
NtRp5583
(dp5584
g66
(dp5585
g74
I4
ssg75
g5579
sg68
(lp5586
S'^default/add_sale/\\w+\\.py$'
p5587
asbasbasbasbasbasbasbag61
(g77
g63
NtRp5588
(dp5589
g66
(dp5590
sg75
g4258
sg68
(lp5591
g61
(g82
g63
NtRp5592
(dp5593
g66
(dp5594
g86
g87
ssg75
g5588
sg68
(lp5595
S'postprocessing'
p5596
asbag61
(g82
g63
NtRp5597
(dp5598
g66
(dp5599
g93
g94
ssg75
g5588
sg68
(lp5600
S':'
asbag61
(g82
g63
NtRp5601
(dp5602
g66
(dp5603
sg75
g5588
sg68
(lp5604
g61
(g62
g63
NtRp5605
(dp5606
g66
(dp5607
g74
I5
ssg75
g5601
sg68
(lp5608
g61
(g70
g63
NtRp5609
(dp5610
g66
(dp5611
g74
I4
ssg75
Nsg68
(lp5612
sbasbasbasbag61
(g77
g63
NtRp5613
(dp5614
g66
(dp5615
sg75
g4258
sg68
(lp5616
g61
(g82
g63
NtRp5617
(dp5618
g66
(dp5619
g86
g87
ssg75
g5613
sg68
(lp5620
S'session_cookie_expires'
p5621
asbag61
(g82
g63
NtRp5622
(dp5623
g66
(dp5624
g93
g94
ssg75
g5613
sg68
(lp5625
S':'
asbag61
(g82
g63
NtRp5626
(dp5627
g66
(dp5628
sg75
g5613
sg68
(lp5629
g61
(g62
g63
NtRp5630
(dp5631
g66
(dp5632
g74
I5
ssg75
g5626
sg68
(lp5633
S'None'
p5634
asbasbasbag61
(g77
g63
NtRp5635
(dp5636
g66
(dp5637
sg75
g4258
sg68
(lp5638
g61
(g82
g63
NtRp5639
(dp5640
g66
(dp5641
g86
g87
ssg75
g5635
sg68
(lp5642
S'session_data_name'
p5643
asbag61
(g82
g63
NtRp5644
(dp5645
g66
(dp5646
g93
g94
ssg75
g5635
sg68
(lp5647
S':'
asbag61
(g82
g63
NtRp5648
(dp5649
g66
(dp5650
sg75
g5635
sg68
(lp5651
g61
(g62
g63
NtRp5652
(dp5653
g66
(dp5654
g74
I5
ssg75
g5648
sg68
(lp5655
S'session_data_gogreen_motors_2'
p5656
asbasbasbag61
(g77
g63
NtRp5657
(dp5658
g66
(dp5659
sg75
g4258
sg68
(lp5660
g61
(g82
g63
NtRp5661
(dp5662
g66
(dp5663
g86
g87
ssg75
g5657
sg68
(lp5664
S'session_file'
p5665
asbag61
(g82
g63
NtRp5666
(dp5667
g66
(dp5668
g93
g94
ssg75
g5657
sg68
(lp5669
S':'
asbag61
(g82
g63
NtRp5670
(dp5671
g66
(dp5672
sg75
g5657
sg68
(lp5673
g61
(g62
g63
NtRp5674
(dp5675
g66
(dp5676
g74
I5
ssg75
g5670
sg68
(lp5677
S"<open file '/home/urvashi/Desktop/WEB2PY/web2py/applications/GoGreen_Motors_2/sessions/127.0.0.1-7b9c0c70-b6cb-4ea9-8c10-36eb3d436819', mode 'rb+' at 0x7fa08c505ae0>"
p5678
asbasbasbag61
(g77
g63
NtRp5679
(dp5680
g66
(dp5681
sg75
g4258
sg68
(lp5682
g61
(g82
g63
NtRp5683
(dp5684
g66
(dp5685
g86
g87
ssg75
g5679
sg68
(lp5686
S'session_filename'
p5687
asbag61
(g82
g63
NtRp5688
(dp5689
g66
(dp5690
g93
g94
ssg75
g5679
sg68
(lp5691
S':'
asbag61
(g82
g63
NtRp5692
(dp5693
g66
(dp5694
sg75
g5679
sg68
(lp5695
g61
(g62
g63
NtRp5696
(dp5697
g66
(dp5698
g74
I5
ssg75
g5692
sg68
(lp5699
S'/home/urvashi/Desktop/WEB2PY/web2py/applications/GoGreen_Motors_2/sessions/127.0.0.1-7b9c0c70-b6cb-4ea9-8c10-36eb3d436819'
p5700
asbasbasbag61
(g77
g63
NtRp5701
(dp5702
g66
(dp5703
sg75
g4258
sg68
(lp5704
g61
(g82
g63
NtRp5705
(dp5706
g66
(dp5707
g86
g87
ssg75
g5701
sg68
(lp5708
S'session_id'
p5709
asbag61
(g82
g63
NtRp5710
(dp5711
g66
(dp5712
g93
g94
ssg75
g5701
sg68
(lp5713
S':'
asbag61
(g82
g63
NtRp5714
(dp5715
g66
(dp5716
sg75
g5701
sg68
(lp5717
g61
(g62
g63
NtRp5718
(dp5719
g66
(dp5720
g74
I5
ssg75
g5714
sg68
(lp5721
g665
asbasbasbag61
(g77
g63
NtRp5722
(dp5723
g66
(dp5724
sg75
g4258
sg68
(lp5725
g61
(g82
g63
NtRp5726
(dp5727
g66
(dp5728
g86
g87
ssg75
g5722
sg68
(lp5729
S'session_id_name'
p5730
asbag61
(g82
g63
NtRp5731
(dp5732
g66
(dp5733
g93
g94
ssg75
g5722
sg68
(lp5734
S':'
asbag61
(g82
g63
NtRp5735
(dp5736
g66
(dp5737
sg75
g5722
sg68
(lp5738
g61
(g62
g63
NtRp5739
(dp5740
g66
(dp5741
g74
I5
ssg75
g5735
sg68
(lp5742
g4315
asbasbasbag61
(g77
g63
NtRp5743
(dp5744
g66
(dp5745
sg75
g4258
sg68
(lp5746
g61
(g82
g63
NtRp5747
(dp5748
g66
(dp5749
g86
g87
ssg75
g5743
sg68
(lp5750
S'session_locked'
p5751
asbag61
(g82
g63
NtRp5752
(dp5753
g66
(dp5754
g93
g94
ssg75
g5743
sg68
(lp5755
S':'
asbag61
(g82
g63
NtRp5756
(dp5757
g66
(dp5758
sg75
g5743
sg68
(lp5759
g61
(g62
g63
NtRp5760
(dp5761
g66
(dp5762
g74
I5
ssg75
g5756
sg68
(lp5763
g2045
asbasbasbag61
(g77
g63
NtRp5764
(dp5765
g66
(dp5766
sg75
g4258
sg68
(lp5767
g61
(g82
g63
NtRp5768
(dp5769
g66
(dp5770
g86
g87
ssg75
g5764
sg68
(lp5771
S'session_new'
p5772
asbag61
(g82
g63
NtRp5773
(dp5774
g66
(dp5775
g93
g94
ssg75
g5764
sg68
(lp5776
S':'
asbag61
(g82
g63
NtRp5777
(dp5778
g66
(dp5779
sg75
g5764
sg68
(lp5780
g61
(g62
g63
NtRp5781
(dp5782
g66
(dp5783
g74
I5
ssg75
g5777
sg68
(lp5784
g104
asbasbasbag61
(g77
g63
NtRp5785
(dp5786
g66
(dp5787
sg75
g4258
sg68
(lp5788
g61
(g82
g63
NtRp5789
(dp5790
g66
(dp5791
g86
g87
ssg75
g5785
sg68
(lp5792
S'session_storage_type'
p5793
asbag61
(g82
g63
NtRp5794
(dp5795
g66
(dp5796
g93
g94
ssg75
g5785
sg68
(lp5797
S':'
asbag61
(g82
g63
NtRp5798
(dp5799
g66
(dp5800
sg75
g5785
sg68
(lp5801
g61
(g62
g63
NtRp5802
(dp5803
g66
(dp5804
g74
I5
ssg75
g5798
sg68
(lp5805
g3686
asbasbasbag61
(g77
g63
NtRp5806
(dp5807
g66
(dp5808
sg75
g4258
sg68
(lp5809
g61
(g82
g63
NtRp5810
(dp5811
g66
(dp5812
g86
g87
ssg75
g5806
sg68
(lp5813
S'status'
p5814
asbag61
(g82
g63
NtRp5815
(dp5816
g66
(dp5817
g93
g94
ssg75
g5806
sg68
(lp5818
S':'
asbag61
(g82
g63
NtRp5819
(dp5820
g66
(dp5821
sg75
g5806
sg68
(lp5822
g61
(g62
g63
NtRp5823
(dp5824
g66
(dp5825
g74
I5
ssg75
g5819
sg68
(lp5826
S'200'
p5827
asbasbasbag61
(g77
g63
NtRp5828
(dp5829
g66
(dp5830
sg75
g4258
sg68
(lp5831
g61
(g82
g63
NtRp5832
(dp5833
g66
(dp5834
g86
g87
ssg75
g5828
sg68
(lp5835
S'subtitle'
p5836
asbag61
(g82
g63
NtRp5837
(dp5838
g66
(dp5839
g93
g94
ssg75
g5828
sg68
(lp5840
S':'
asbag61
(g82
g63
NtRp5841
(dp5842
g66
(dp5843
sg75
g5828
sg68
(lp5844
g61
(g62
g63
NtRp5845
(dp5846
g66
(dp5847
g74
I5
ssg75
g5841
sg68
(lp5848
g4792
(S's\r\x00\x00\x00customize me!'
tRp5849
asbasbasbag61
(g77
g63
NtRp5850
(dp5851
g66
(dp5852
sg75
g4258
sg68
(lp5853
g61
(g82
g63
NtRp5854
(dp5855
g66
(dp5856
g86
g87
ssg75
g5850
sg68
(lp5857
S'title'
p5858
asbag61
(g82
g63
NtRp5859
(dp5860
g66
(dp5861
g93
g94
ssg75
g5850
sg68
(lp5862
S':'
asbag61
(g82
g63
NtRp5863
(dp5864
g66
(dp5865
sg75
g5850
sg68
(lp5866
g61
(g62
g63
NtRp5867
(dp5868
g66
(dp5869
g74
I5
ssg75
g5863
sg68
(lp5870
S'Gogreen Motors 2'
p5871
asbasbasbag61
(g77
g63
NtRp5872
(dp5873
g66
(dp5874
sg75
g4258
sg68
(lp5875
g61
(g82
g63
NtRp5876
(dp5877
g66
(dp5878
g86
g87
ssg75
g5872
sg68
(lp5879
S'view'
p5880
asbag61
(g82
g63
NtRp5881
(dp5882
g66
(dp5883
g93
g94
ssg75
g5872
sg68
(lp5884
S':'
asbag61
(g82
g63
NtRp5885
(dp5886
g66
(dp5887
sg75
g5872
sg68
(lp5888
g61
(g62
g63
NtRp5889
(dp5890
g66
(dp5891
g74
I5
ssg75
g5885
sg68
(lp5892
S'default/add_sale.html'
p5893
asbasbasbasbasbsS'locals'
p5894
(dp5895
S'query'
p5896
S'"INSERT INTO BOUGHT(Receipt_no,Customer_ID,Product_ID) VALUES (25,\'Juhi Tandon\',\'Tshirt\');"'
p5897
sS'self'
p5898
S'<gluon.dal.MySQLAdapter object>'
p5899
sS'e'
S"IntegrityError(1452, 'Cannot add or update a chi...mer_ID`) REFERENCES `CUSTOMER` (`Customer_ID`))')"
p5900
sS'fields'
p5901
S"[(<gluon.dal.Field object>, 25), (<gluon.dal.Field object>, 'Juhi Tandon'), (<gluon.dal.Field object>, 'Tshirt')]"
p5902
sS'table'
p5903
S'<Table BOUGHT (Customer_ID,Product_ID,Receipt_no)>'
p5904
sssS'traceback'
p5905
S'Traceback (most recent call last):\n  File "/home/urvashi/Desktop/WEB2PY/web2py/gluon/restricted.py", line 212, in restricted\n    exec ccode in environment\n  File "/home/urvashi/Desktop/WEB2PY/web2py/applications/GoGreen_Motors_2/controllers/default.py", line 206, in <module>\n  File "/home/urvashi/Desktop/WEB2PY/web2py/gluon/globals.py", line 193, in <lambda>\n    self._caller = lambda f: f()\n  File "/home/urvashi/Desktop/WEB2PY/web2py/applications/GoGreen_Motors_2/controllers/default.py", line 146, in add_sale\n    if form.accepts(request.vars,session):\n  File "/home/urvashi/Desktop/WEB2PY/web2py/gluon/sqlhtml.py", line 1474, in accepts\n    pk = self.table.insert(**fields)\n  File "/home/urvashi/Desktop/WEB2PY/web2py/gluon/dal.py", line 7918, in insert\n    ret =  self._db._adapter.insert(self,self._listify(fields))\n  File "/home/urvashi/Desktop/WEB2PY/web2py/gluon/dal.py", line 1176, in insert\n    raise e\nIntegrityError: (1452, \'Cannot add or update a child row: a foreign key constraint fails (`DBPHASE3`.`BOUGHT`, CONSTRAINT `BOUGHT_ibfk_1` FOREIGN KEY (`Customer_ID`) REFERENCES `CUSTOMER` (`Customer_ID`))\')\n'
p5906
s.