(dp1
S'output'
p2
S"<type 'exceptions.SyntaxError'> Set: no tables selected"
p3
sS'layer'
p4
S'/home/urvashi/Desktop/WEB2PY/web2py/applications/GoGreen_Motors_2/controllers/default.py'
p5
sS'code'
p6
S'# -*- coding: utf-8 -*-\n# this file is released under public domain and you can use without limitations\n\n#########################################################################\n## This is a samples controller\n## - index is the default action of any application\n## - user is required for authentication and authorization\n## - download is for downloading files uploaded in the db (does streaming)\n## - call exposes all registered services (none by default)\n#########################################################################\n\n\ndef index():\n    \'auth\' in globals()\n   \n    message="Go Green Welcomes You !!"\n    if auth.user :\n        if auth.user.id==1:\n            message="Welcome TSM HYDERABAD"\n            redirect(URL(\'admin\'))\n        else:\n            message="Welcome Employee"\n            redirect(URL(\'empl\'))\n    else:\n        redirect(URL(\'user\'))\n    return locals()\n\ndef admin():\n    man=db(db.EMPLOYEE.Designation==\'Manager\').select()\n    team=db(db.EMPLOYEE.Designation==\'Team Leader\').select()\n    exe=db(db.EMPLOYEE.Designation==\'Executive\').select()\n    return locals()\ndef add_employee():\n    \'auth\' in globals()\n\n    if auth.user:\n         if auth.user.id!=1:\n             redirect(URL(\'user\'))\n         else:\n            form=SQLFORM(db.EMPLOYEE)\n            if form.accepts(request.vars,session):\n                    response.flash=\'Employee Added !!\'\n            elif form.errors:\n                    response.flash=\'ERRORS!!!\'\n    else:\n         redirect(URL(\'user\'))\n    return locals()\n\ndef delete_employee():\n    \'auth\' in globals()\n    message=""\n    if auth.user.id==1:\n        list=db(db.EMPLOYEE.Emp_ID>0).select()\n        form=SQLFORM.factory(\n                    db.Field(\'usrname\',db.EMPLOYEE,requires=IS_IN_DB(db,\'EMPLOYEE.Emp_ID\',\'EMPLOYEE.Email_id\'),required=True))\n        if form.accepts(request.vars,session):\n                    e=db(db.EMPLOYEE.Emp_ID==int(request.vars.usrname)).select()\n                    db(db.EMPLOYEE.Emp_ID==int(request.vars.usrname)).delete()\n                    db(db.auth_user.email==e[0][\'Email_id\']).delete()\n                    message="employee deleted !!"\n                    redirect(URL(\'delete_employee\'))\n        elif form.errors:\n                    response.flash=\'ERRORS!!!\'\n    else:\n        redirect(URL(\'user\'))\n    return locals()\n\n\ndef add_model():\n    \'auth\' in globals()\n    if auth.user.id==1:\n        form=SQLFORM(db.MODEL)\n        if form.accepts(request.vars,session):\n                    response.flash=\'Model Added !!\'\n        elif form.errors:\n                    response.flash=\'ERRORS!!!\'\n    else:\n        redirect(URL(\'index\'))\n    return locals()\ndef del_model():\n    \'auth\' in globals()\n    message=""\n    if auth.user.id==1:\n        form=SQLFORM.factory(\n                    db.Field(\'model\',db.MODEL,requires=IS_IN_DB(db,\'MODEL.Model_no\',\'Models.Name\'),required=True))\n        if form.accepts(request.vars,session):\n                    db(db.MODEL.Model_no==request.vars.model).delete()\n                    response.flash="Model Deleted !!"\n                    redirect(URL(\'del_model\'))\n        elif form.errors:\n                    response.flash=\'ERRORS!!!\'\n    else:\n        redirect(URL(\'index\'))\n    return locals()\n\ndef add_other_product():\n    \'auth\' in globals()\n    if auth.user.id==1:\n        form=SQLFORM(db.OTHER_PRODUCTS)\n        if form.accepts(request.vars,session):\n                    response.flash=\'Product Added !!\'\n        elif form.errors:\n                    response.flash=\'ERRORS!!!\'\n    else:\n        redirect(URL(\'index\'))\n    return locals()\ndef del_other_product():\n    \'auth\' in globals()\n    message=""\n    if auth.user.id==1:\n        form=SQLFORM.factory(\n                    db.Field(\'product\',db.OTHER_PRODUCTS,requires=IS_IN_DB(db,\'OTHER_PRODUCTS.Product_ID\',\'OTHER_PRODUCTS.Name\'),required=True))\n        if form.accepts(request.vars,session):\n                    db(db.OTHER_PRODUCTS.Product_ID==request.vars.product).delete()\n                    response.flash="Product Deleted !!"\n                    redirect(URL(\'del_other_product\'))\n        elif form.errors:\n                    response.flash=\'ERRORS!!!\'\n    else:\n        redirect(URL(\'index\'))\n    return locals()\n\ndef empl():\n    if auth.user:\n       if auth.user:\n           e=db((auth.user.id==db.auth_user.id) & (db.auth_user.email==db.EMPLOYEE.Email_id)).select()\n           mod=db(db.MODEL.Model_no>0).select()\n        #   wait=db(db.Waiting_list.id>0).select(orderby=(db.Waiting_list.Ordered_on))\n    return locals()\ndef add_customer():\n    \'auth\' in globals()\n    if auth.user:\n        form=SQLFORM(db.CUSTOMER)\n        if form.accepts(request.vars,session):\n                    response.flash=\'Customer Added !!\'\n        elif form.errors:\n                    response.flash=\'ERRORS!!!\'\n    else:\n        redirect(URL(\'index\'))\n    return locals()\n    \ndef add_sale():\n    \'auth\' in globals()\n    if auth.user:\n        form=SQLFORM(db.BOUGHT)\n        if form.accepts(request.vars,session):\n                    response.flash=\'Product Sold !!\'\n        elif form.errors:\n                    response.flash=\'ERRORS!!!\'\n    else:\n        redirect(URL(\'index\'))\n    return locals()\n\ndef order_bike():\n    \'auth\' in globals()\n    if auth.user:\n        form=SQLFORM(db.DEMANDS)\n        if form.accepts(request.vars,session):\n                    response.flash=\'Bike Ordered !!\'\n                    list=db(db.FINANCE.Id>0).select(orderby=~(db.FINANCE.Id))\n                    l=int(list[0][\'FINANCE.Id\']) + 1\n                    print l\n                #    e=db(db.EMPLOYEE.Emp_ID>0).select()\n                    print "///"\n                    print auth.user.email\n                    e=db(auth.user.email == str(db.EMPLOYEE.Email_id)).select()\n                    print \'*****\'\n                    print e\n                    ee=e[0][\'EMPLOYEE.Emp_ID\']\n                    \n                  #  db.FINANCE.insert(id=l,Type=\'Income\',Date=request.now.date(),Cause=\'Bike sale\',Employee_Id=e)\n        elif form.errors:\n                    response.flash=\'ERRORS!!!\'\n    else:\n        redirect(URL(\'index\'))\n    return locals()\n\ndef sell_bike():\n    \'auth\' in globals()\n    if auth.user:\n        form=SQLFORM(db.DELIVERS_TO)\n        if form.accepts(request.vars,session):\n                    response.flash=\'Bike Ordered !!\'\n        elif form.errors:\n                    response.flash=\'ERRORS!!!\'\n    else:\n        redirect(URL(\'index\'))\n    return locals()\n\ndef add_expense():\n    \'auth\' in globals()\n    if auth.user:\n        form=SQLFORM(db.FINANCE)\n        if form.accepts(request.vars,session):\n                    response.flash=\'Expense Added !!\'\n        elif form.errors:\n                    response.flash=\'ERRORS!!!\'\n    else:\n        redirect(URL(\'index\'))\n    return locals()\n    \ndef user():\n    """\n    exposes:\n    http://..../[app]/default/user/login\n    http://..../[app]/default/user/logout\n    http://..../[app]/default/user/register\n    http://..../[app]/default/user/profile\n    http://..../[app]/default/user/retrieve_password\n    http://..../[app]/default/user/change_password\n    use @auth.requires_login()\n        @auth.requires_membership(\'group name\')\n        @auth.requires_permission(\'read\',\'table name\',record_id)\n    to decorate functions that need access control\n    """\n    return dict(form=auth())\n\n\ndef download():\n    """\n    allows downloading of uploaded files\n    http://..../[app]/default/download/[filename]\n    """\n    return response.download(request, db)\n\n\ndef call():\n    """\n    exposes services. for example:\n    http://..../[app]/default/call/jsonrpc\n    decorate with @services.jsonrpc the functions to expose\n    supports xml, json, xmlrpc, jsonrpc, amfrpc, rss, csv\n    """\n    return service()\n\n\n@auth.requires_signature()\ndef data():\n    """\n    http://..../[app]/default/data/tables\n    http://..../[app]/default/data/create/[table]\n    http://..../[app]/default/data/read/[table]/[id]\n    http://..../[app]/default/data/update/[table]/[id]\n    http://..../[app]/default/data/delete/[table]/[id]\n    http://..../[app]/default/data/select/[table]\n    http://..../[app]/default/data/search/[table]\n    but URLs must be signed, i.e. linked with\n      A(\'table\',_href=URL(\'data/tables\',user_signature=True))\n    or with the signed load operator\n      LOAD(\'default\',\'data.load\',args=\'tables\',ajax=True,user_signature=True)\n    """\n    return dict(form=crud())\n\nresponse._vars=response._caller(order_bike)\n'
p7
sS'snapshot'
p8
(dp9
S'exception'
p10
(dp11
S'__getslice__'
p12
S"<method-wrapper '__getslice__' of exceptions.SyntaxError object>"
p13
sS'text'
p14
S'None'
p15
sS'__str__'
p16
S"<method-wrapper '__str__' of exceptions.SyntaxError object>"
p17
sS'__reduce__'
p18
S'<built-in method __reduce__ of exceptions.SyntaxError object>'
p19
sS'__dict__'
p20
S'{}'
p21
sS'__sizeof__'
p22
S'<built-in method __sizeof__ of exceptions.SyntaxError object>'
p23
sS'__init__'
p24
S"<method-wrapper '__init__' of exceptions.SyntaxError object>"
p25
sS'__setattr__'
p26
S"<method-wrapper '__setattr__' of exceptions.SyntaxError object>"
p27
sS'__reduce_ex__'
p28
S'<built-in method __reduce_ex__ of exceptions.SyntaxError object>'
p29
sS'__new__'
p30
S'<built-in method __new__ of type object>'
p31
sS'__format__'
p32
S'<built-in method __format__ of exceptions.SyntaxError object>'
p33
sS'__class__'
p34
S"<type 'exceptions.SyntaxError'>"
p35
sS'filename'
p36
S'None'
p37
sS'lineno'
p38
S'None'
p39
sS'msg'
p40
S"'Set: no tables selected'"
p41
sS'__doc__'
p42
S"'Invalid syntax.'"
p43
sS'__getitem__'
p44
S"<method-wrapper '__getitem__' of exceptions.SyntaxError object>"
p45
sS'__setstate__'
p46
S'<built-in method __setstate__ of exceptions.SyntaxError object>'
p47
sS'__getattribute__'
p48
S"<method-wrapper '__getattribute__' of exceptions.SyntaxError object>"
p49
sS'print_file_and_line'
p50
S'None'
p51
sS'args'
p52
S"('Set: no tables selected',)"
p53
sS'__subclasshook__'
p54
S'<built-in method __subclasshook__ of type object>'
p55
sS'offset'
p56
S'None'
p57
sS'__unicode__'
p58
S'<built-in method __unicode__ of exceptions.SyntaxError object>'
p59
sS'__delattr__'
p60
S"<method-wrapper '__delattr__' of exceptions.SyntaxError object>"
p61
sS'__repr__'
p62
S"<method-wrapper '__repr__' of exceptions.SyntaxError object>"
p63
sS'__hash__'
p64
S"<method-wrapper '__hash__' of exceptions.SyntaxError object>"
p65
ssS'evalue'
p66
S'Set: no tables selected'
p67
sS'request'
p68
ccopy_reg
_reconstructor
p69
(cgluon.html
BEAUTIFY
p70
c__builtin__
object
p71
NtRp72
(dp73
S'attributes'
p74
(dp75
sS'components'
p76
(lp77
g69
(cgluon.html
TABLE
p78
g71
NtRp79
(dp80
g74
(dp81
S'level'
p82
I5
ssS'parent'
p83
Nsg76
(lp84
g69
(cgluon.html
TR
p85
g71
NtRp86
(dp87
g74
(dp88
sg83
g79
sg76
(lp89
g69
(cgluon.html
TD
p90
g71
NtRp91
(dp92
g74
(dp93
S'_style'
p94
S'font-weight:bold;vertical-align:top'
p95
ssg83
g86
sg76
(lp96
S'ajax'
p97
asbag69
(g90
g71
NtRp98
(dp99
g74
(dp100
S'_valign'
p101
S'top'
p102
ssg83
g86
sg76
(lp103
S':'
asbag69
(g90
g71
NtRp104
(dp105
g74
(dp106
sg83
g86
sg76
(lp107
g69
(g70
g71
NtRp108
(dp109
g74
(dp110
g82
I5
ssg83
g104
sg76
(lp111
S'False'
p112
asbasbasbag69
(g85
g71
NtRp113
(dp114
g74
(dp115
sg83
g79
sg76
(lp116
g69
(g90
g71
NtRp117
(dp118
g74
(dp119
g94
g95
ssg83
g113
sg76
(lp120
S'application'
p121
asbag69
(g90
g71
NtRp122
(dp123
g74
(dp124
g101
g102
ssg83
g113
sg76
(lp125
S':'
asbag69
(g90
g71
NtRp126
(dp127
g74
(dp128
sg83
g113
sg76
(lp129
g69
(g70
g71
NtRp130
(dp131
g74
(dp132
g82
I5
ssg83
g126
sg76
(lp133
S'GoGreen_Motors_2'
p134
asbasbasbag69
(g85
g71
NtRp135
(dp136
g74
(dp137
sg83
g79
sg76
(lp138
g69
(g90
g71
NtRp139
(dp140
g74
(dp141
g94
g95
ssg83
g135
sg76
(lp142
g52
asbag69
(g90
g71
NtRp143
(dp144
g74
(dp145
g101
g102
ssg83
g135
sg76
(lp146
S':'
asbag69
(g90
g71
NtRp147
(dp148
g74
(dp149
sg83
g135
sg76
(lp150
g69
(g70
g71
NtRp151
(dp152
g74
(dp153
g82
I5
ssg83
g147
sg76
(lp154
g69
(g78
g71
NtRp155
(dp156
g74
(dp157
g82
I4
ssg83
Nsg76
(lp158
sbasbasbasbag69
(g85
g71
NtRp159
(dp160
g74
(dp161
sg83
g79
sg76
(lp162
g69
(g90
g71
NtRp163
(dp164
g74
(dp165
g94
g95
ssg83
g159
sg76
(lp166
S'body'
p167
asbag69
(g90
g71
NtRp168
(dp169
g74
(dp170
g101
g102
ssg83
g159
sg76
(lp171
S':'
asbag69
(g90
g71
NtRp172
(dp173
g74
(dp174
sg83
g159
sg76
(lp175
g69
(g70
g71
NtRp176
(dp177
g74
(dp178
g82
I5
ssg83
g172
sg76
(lp179
S"<open file '<fdopen>', mode 'w+b' at 0x7fa07c15ee40>"
p180
asbasbasbag69
(g85
g71
NtRp181
(dp182
g74
(dp183
sg83
g79
sg76
(lp184
g69
(g90
g71
NtRp185
(dp186
g74
(dp187
g94
g95
ssg83
g181
sg76
(lp188
S'cid'
p189
asbag69
(g90
g71
NtRp190
(dp191
g74
(dp192
g101
g102
ssg83
g181
sg76
(lp193
S':'
asbag69
(g90
g71
NtRp194
(dp195
g74
(dp196
sg83
g181
sg76
(lp197
g69
(g70
g71
NtRp198
(dp199
g74
(dp200
g82
I5
ssg83
g194
sg76
(lp201
S'None'
p202
asbasbasbag69
(g85
g71
NtRp203
(dp204
g74
(dp205
sg83
g79
sg76
(lp206
g69
(g90
g71
NtRp207
(dp208
g74
(dp209
g94
g95
ssg83
g203
sg76
(lp210
S'client'
p211
asbag69
(g90
g71
NtRp212
(dp213
g74
(dp214
g101
g102
ssg83
g203
sg76
(lp215
S':'
asbag69
(g90
g71
NtRp216
(dp217
g74
(dp218
sg83
g203
sg76
(lp219
g69
(g70
g71
NtRp220
(dp221
g74
(dp222
g82
I5
ssg83
g216
sg76
(lp223
S'127.0.0.1'
p224
asbasbasbag69
(g85
g71
NtRp225
(dp226
g74
(dp227
sg83
g79
sg76
(lp228
g69
(g90
g71
NtRp229
(dp230
g74
(dp231
g94
g95
ssg83
g225
sg76
(lp232
S'controller'
p233
asbag69
(g90
g71
NtRp234
(dp235
g74
(dp236
g101
g102
ssg83
g225
sg76
(lp237
S':'
asbag69
(g90
g71
NtRp238
(dp239
g74
(dp240
sg83
g225
sg76
(lp241
g69
(g70
g71
NtRp242
(dp243
g74
(dp244
g82
I5
ssg83
g238
sg76
(lp245
S'default'
p246
asbasbasbag69
(g85
g71
NtRp247
(dp248
g74
(dp249
sg83
g79
sg76
(lp250
g69
(g90
g71
NtRp251
(dp252
g74
(dp253
g94
g95
ssg83
g247
sg76
(lp254
S'cookies'
p255
asbag69
(g90
g71
NtRp256
(dp257
g74
(dp258
g101
g102
ssg83
g247
sg76
(lp259
S':'
asbag69
(g90
g71
NtRp260
(dp261
g74
(dp262
sg83
g247
sg76
(lp263
g69
(g70
g71
NtRp264
(dp265
g74
(dp266
g82
I5
ssg83
g260
sg76
(lp267
g69
(g78
g71
NtRp268
(dp269
g74
(dp270
g82
I4
ssg83
Nsg76
(lp271
g69
(g85
g71
NtRp272
(dp273
g74
(dp274
sg83
g268
sg76
(lp275
g69
(g90
g71
NtRp276
(dp277
g74
(dp278
g94
g95
ssg83
g272
sg76
(lp279
S'session_id_admin'
p280
asbag69
(g90
g71
NtRp281
(dp282
g74
(dp283
g101
g102
ssg83
g272
sg76
(lp284
S':'
asbag69
(g90
g71
NtRp285
(dp286
g74
(dp287
sg83
g272
sg76
(lp288
g69
(g70
g71
NtRp289
(dp290
g74
(dp291
g82
I4
ssg83
g285
sg76
(lp292
S'127.0.0.1-32a52561-f000-4a73-90e1-bca802325e3e'
p293
ag69
(g78
g71
NtRp294
(dp295
g74
(dp296
g82
I3
ssg83
Nsg76
(lp297
g69
(g85
g71
NtRp298
(dp299
g74
(dp300
sg83
g294
sg76
(lp301
g69
(g90
g71
NtRp302
(dp303
g74
(dp304
g94
g95
ssg83
g298
sg76
(lp305
S'comment'
p306
asbag69
(g90
g71
NtRp307
(dp308
g74
(dp309
g101
g102
ssg83
g298
sg76
(lp310
S':'
asbag69
(g90
g71
NtRp311
(dp312
g74
(dp313
sg83
g298
sg76
(lp314
g69
(g70
g71
NtRp315
(dp316
g74
(dp317
g82
I3
ssg83
g311
sg76
(lp318
S''
asbasbasbag69
(g85
g71
NtRp319
(dp320
g74
(dp321
sg83
g294
sg76
(lp322
g69
(g90
g71
NtRp323
(dp324
g74
(dp325
g94
g95
ssg83
g319
sg76
(lp326
S'domain'
p327
asbag69
(g90
g71
NtRp328
(dp329
g74
(dp330
g101
g102
ssg83
g319
sg76
(lp331
S':'
asbag69
(g90
g71
NtRp332
(dp333
g74
(dp334
sg83
g319
sg76
(lp335
g69
(g70
g71
NtRp336
(dp337
g74
(dp338
g82
I3
ssg83
g332
sg76
(lp339
S''
asbasbasbag69
(g85
g71
NtRp340
(dp341
g74
(dp342
sg83
g294
sg76
(lp343
g69
(g90
g71
NtRp344
(dp345
g74
(dp346
g94
g95
ssg83
g340
sg76
(lp347
S'expires'
p348
asbag69
(g90
g71
NtRp349
(dp350
g74
(dp351
g101
g102
ssg83
g340
sg76
(lp352
S':'
asbag69
(g90
g71
NtRp353
(dp354
g74
(dp355
sg83
g340
sg76
(lp356
g69
(g70
g71
NtRp357
(dp358
g74
(dp359
g82
I3
ssg83
g353
sg76
(lp360
S''
asbasbasbag69
(g85
g71
NtRp361
(dp362
g74
(dp363
sg83
g294
sg76
(lp364
g69
(g90
g71
NtRp365
(dp366
g74
(dp367
g94
g95
ssg83
g361
sg76
(lp368
S'httponly'
p369
asbag69
(g90
g71
NtRp370
(dp371
g74
(dp372
g101
g102
ssg83
g361
sg76
(lp373
S':'
asbag69
(g90
g71
NtRp374
(dp375
g74
(dp376
sg83
g361
sg76
(lp377
g69
(g70
g71
NtRp378
(dp379
g74
(dp380
g82
I3
ssg83
g374
sg76
(lp381
S''
asbasbasbag69
(g85
g71
NtRp382
(dp383
g74
(dp384
sg83
g294
sg76
(lp385
g69
(g90
g71
NtRp386
(dp387
g74
(dp388
g94
g95
ssg83
g382
sg76
(lp389
S'max-age'
p390
asbag69
(g90
g71
NtRp391
(dp392
g74
(dp393
g101
g102
ssg83
g382
sg76
(lp394
S':'
asbag69
(g90
g71
NtRp395
(dp396
g74
(dp397
sg83
g382
sg76
(lp398
g69
(g70
g71
NtRp399
(dp400
g74
(dp401
g82
I3
ssg83
g395
sg76
(lp402
S''
asbasbasbag69
(g85
g71
NtRp403
(dp404
g74
(dp405
sg83
g294
sg76
(lp406
g69
(g90
g71
NtRp407
(dp408
g74
(dp409
g94
g95
ssg83
g403
sg76
(lp410
S'path'
p411
asbag69
(g90
g71
NtRp412
(dp413
g74
(dp414
g101
g102
ssg83
g403
sg76
(lp415
S':'
asbag69
(g90
g71
NtRp416
(dp417
g74
(dp418
sg83
g403
sg76
(lp419
g69
(g70
g71
NtRp420
(dp421
g74
(dp422
g82
I3
ssg83
g416
sg76
(lp423
S''
asbasbasbag69
(g85
g71
NtRp424
(dp425
g74
(dp426
sg83
g294
sg76
(lp427
g69
(g90
g71
NtRp428
(dp429
g74
(dp430
g94
g95
ssg83
g424
sg76
(lp431
S'secure'
p432
asbag69
(g90
g71
NtRp433
(dp434
g74
(dp435
g101
g102
ssg83
g424
sg76
(lp436
S':'
asbag69
(g90
g71
NtRp437
(dp438
g74
(dp439
sg83
g424
sg76
(lp440
g69
(g70
g71
NtRp441
(dp442
g74
(dp443
g82
I3
ssg83
g437
sg76
(lp444
S''
asbasbasbag69
(g85
g71
NtRp445
(dp446
g74
(dp447
sg83
g294
sg76
(lp448
g69
(g90
g71
NtRp449
(dp450
g74
(dp451
g94
g95
ssg83
g445
sg76
(lp452
S'version'
p453
asbag69
(g90
g71
NtRp454
(dp455
g74
(dp456
g101
g102
ssg83
g445
sg76
(lp457
S':'
asbag69
(g90
g71
NtRp458
(dp459
g74
(dp460
sg83
g445
sg76
(lp461
g69
(g70
g71
NtRp462
(dp463
g74
(dp464
g82
I3
ssg83
g458
sg76
(lp465
S''
asbasbasbasbasbasbasbag69
(g85
g71
NtRp466
(dp467
g74
(dp468
sg83
g268
sg76
(lp469
g69
(g90
g71
NtRp470
(dp471
g74
(dp472
g94
g95
ssg83
g466
sg76
(lp473
S'session_id_gogreen_motors'
p474
asbag69
(g90
g71
NtRp475
(dp476
g74
(dp477
g101
g102
ssg83
g466
sg76
(lp478
S':'
asbag69
(g90
g71
NtRp479
(dp480
g74
(dp481
sg83
g466
sg76
(lp482
g69
(g70
g71
NtRp483
(dp484
g74
(dp485
g82
I4
ssg83
g479
sg76
(lp486
S'127.0.0.1-112d03d3-9ed9-48f1-ac2f-957ce25761c8'
p487
ag69
(g78
g71
NtRp488
(dp489
g74
(dp490
g82
I3
ssg83
Nsg76
(lp491
g69
(g85
g71
NtRp492
(dp493
g74
(dp494
sg83
g488
sg76
(lp495
g69
(g90
g71
NtRp496
(dp497
g74
(dp498
g94
g95
ssg83
g492
sg76
(lp499
g306
asbag69
(g90
g71
NtRp500
(dp501
g74
(dp502
g101
g102
ssg83
g492
sg76
(lp503
S':'
asbag69
(g90
g71
NtRp504
(dp505
g74
(dp506
sg83
g492
sg76
(lp507
g69
(g70
g71
NtRp508
(dp509
g74
(dp510
g82
I3
ssg83
g504
sg76
(lp511
S''
asbasbasbag69
(g85
g71
NtRp512
(dp513
g74
(dp514
sg83
g488
sg76
(lp515
g69
(g90
g71
NtRp516
(dp517
g74
(dp518
g94
g95
ssg83
g512
sg76
(lp519
g327
asbag69
(g90
g71
NtRp520
(dp521
g74
(dp522
g101
g102
ssg83
g512
sg76
(lp523
S':'
asbag69
(g90
g71
NtRp524
(dp525
g74
(dp526
sg83
g512
sg76
(lp527
g69
(g70
g71
NtRp528
(dp529
g74
(dp530
g82
I3
ssg83
g524
sg76
(lp531
S''
asbasbasbag69
(g85
g71
NtRp532
(dp533
g74
(dp534
sg83
g488
sg76
(lp535
g69
(g90
g71
NtRp536
(dp537
g74
(dp538
g94
g95
ssg83
g532
sg76
(lp539
g348
asbag69
(g90
g71
NtRp540
(dp541
g74
(dp542
g101
g102
ssg83
g532
sg76
(lp543
S':'
asbag69
(g90
g71
NtRp544
(dp545
g74
(dp546
sg83
g532
sg76
(lp547
g69
(g70
g71
NtRp548
(dp549
g74
(dp550
g82
I3
ssg83
g544
sg76
(lp551
S''
asbasbasbag69
(g85
g71
NtRp552
(dp553
g74
(dp554
sg83
g488
sg76
(lp555
g69
(g90
g71
NtRp556
(dp557
g74
(dp558
g94
g95
ssg83
g552
sg76
(lp559
g369
asbag69
(g90
g71
NtRp560
(dp561
g74
(dp562
g101
g102
ssg83
g552
sg76
(lp563
S':'
asbag69
(g90
g71
NtRp564
(dp565
g74
(dp566
sg83
g552
sg76
(lp567
g69
(g70
g71
NtRp568
(dp569
g74
(dp570
g82
I3
ssg83
g564
sg76
(lp571
S''
asbasbasbag69
(g85
g71
NtRp572
(dp573
g74
(dp574
sg83
g488
sg76
(lp575
g69
(g90
g71
NtRp576
(dp577
g74
(dp578
g94
g95
ssg83
g572
sg76
(lp579
g390
asbag69
(g90
g71
NtRp580
(dp581
g74
(dp582
g101
g102
ssg83
g572
sg76
(lp583
S':'
asbag69
(g90
g71
NtRp584
(dp585
g74
(dp586
sg83
g572
sg76
(lp587
g69
(g70
g71
NtRp588
(dp589
g74
(dp590
g82
I3
ssg83
g584
sg76
(lp591
S''
asbasbasbag69
(g85
g71
NtRp592
(dp593
g74
(dp594
sg83
g488
sg76
(lp595
g69
(g90
g71
NtRp596
(dp597
g74
(dp598
g94
g95
ssg83
g592
sg76
(lp599
g411
asbag69
(g90
g71
NtRp600
(dp601
g74
(dp602
g101
g102
ssg83
g592
sg76
(lp603
S':'
asbag69
(g90
g71
NtRp604
(dp605
g74
(dp606
sg83
g592
sg76
(lp607
g69
(g70
g71
NtRp608
(dp609
g74
(dp610
g82
I3
ssg83
g604
sg76
(lp611
S''
asbasbasbag69
(g85
g71
NtRp612
(dp613
g74
(dp614
sg83
g488
sg76
(lp615
g69
(g90
g71
NtRp616
(dp617
g74
(dp618
g94
g95
ssg83
g612
sg76
(lp619
g432
asbag69
(g90
g71
NtRp620
(dp621
g74
(dp622
g101
g102
ssg83
g612
sg76
(lp623
S':'
asbag69
(g90
g71
NtRp624
(dp625
g74
(dp626
sg83
g612
sg76
(lp627
g69
(g70
g71
NtRp628
(dp629
g74
(dp630
g82
I3
ssg83
g624
sg76
(lp631
S''
asbasbasbag69
(g85
g71
NtRp632
(dp633
g74
(dp634
sg83
g488
sg76
(lp635
g69
(g90
g71
NtRp636
(dp637
g74
(dp638
g94
g95
ssg83
g632
sg76
(lp639
g453
asbag69
(g90
g71
NtRp640
(dp641
g74
(dp642
g101
g102
ssg83
g632
sg76
(lp643
S':'
asbag69
(g90
g71
NtRp644
(dp645
g74
(dp646
sg83
g632
sg76
(lp647
g69
(g70
g71
NtRp648
(dp649
g74
(dp650
g82
I3
ssg83
g644
sg76
(lp651
S''
asbasbasbasbasbasbasbag69
(g85
g71
NtRp652
(dp653
g74
(dp654
sg83
g268
sg76
(lp655
g69
(g90
g71
NtRp656
(dp657
g74
(dp658
g94
g95
ssg83
g652
sg76
(lp659
S'session_id_gogreen_motors_2'
p660
asbag69
(g90
g71
NtRp661
(dp662
g74
(dp663
g101
g102
ssg83
g652
sg76
(lp664
S':'
asbag69
(g90
g71
NtRp665
(dp666
g74
(dp667
sg83
g652
sg76
(lp668
g69
(g70
g71
NtRp669
(dp670
g74
(dp671
g82
I4
ssg83
g665
sg76
(lp672
S'127.0.0.1-7b9c0c70-b6cb-4ea9-8c10-36eb3d436819'
p673
ag69
(g78
g71
NtRp674
(dp675
g74
(dp676
g82
I3
ssg83
Nsg76
(lp677
g69
(g85
g71
NtRp678
(dp679
g74
(dp680
sg83
g674
sg76
(lp681
g69
(g90
g71
NtRp682
(dp683
g74
(dp684
g94
g95
ssg83
g678
sg76
(lp685
g306
asbag69
(g90
g71
NtRp686
(dp687
g74
(dp688
g101
g102
ssg83
g678
sg76
(lp689
S':'
asbag69
(g90
g71
NtRp690
(dp691
g74
(dp692
sg83
g678
sg76
(lp693
g69
(g70
g71
NtRp694
(dp695
g74
(dp696
g82
I3
ssg83
g690
sg76
(lp697
S''
asbasbasbag69
(g85
g71
NtRp698
(dp699
g74
(dp700
sg83
g674
sg76
(lp701
g69
(g90
g71
NtRp702
(dp703
g74
(dp704
g94
g95
ssg83
g698
sg76
(lp705
g327
asbag69
(g90
g71
NtRp706
(dp707
g74
(dp708
g101
g102
ssg83
g698
sg76
(lp709
S':'
asbag69
(g90
g71
NtRp710
(dp711
g74
(dp712
sg83
g698
sg76
(lp713
g69
(g70
g71
NtRp714
(dp715
g74
(dp716
g82
I3
ssg83
g710
sg76
(lp717
S''
asbasbasbag69
(g85
g71
NtRp718
(dp719
g74
(dp720
sg83
g674
sg76
(lp721
g69
(g90
g71
NtRp722
(dp723
g74
(dp724
g94
g95
ssg83
g718
sg76
(lp725
g348
asbag69
(g90
g71
NtRp726
(dp727
g74
(dp728
g101
g102
ssg83
g718
sg76
(lp729
S':'
asbag69
(g90
g71
NtRp730
(dp731
g74
(dp732
sg83
g718
sg76
(lp733
g69
(g70
g71
NtRp734
(dp735
g74
(dp736
g82
I3
ssg83
g730
sg76
(lp737
S''
asbasbasbag69
(g85
g71
NtRp738
(dp739
g74
(dp740
sg83
g674
sg76
(lp741
g69
(g90
g71
NtRp742
(dp743
g74
(dp744
g94
g95
ssg83
g738
sg76
(lp745
g369
asbag69
(g90
g71
NtRp746
(dp747
g74
(dp748
g101
g102
ssg83
g738
sg76
(lp749
S':'
asbag69
(g90
g71
NtRp750
(dp751
g74
(dp752
sg83
g738
sg76
(lp753
g69
(g70
g71
NtRp754
(dp755
g74
(dp756
g82
I3
ssg83
g750
sg76
(lp757
S''
asbasbasbag69
(g85
g71
NtRp758
(dp759
g74
(dp760
sg83
g674
sg76
(lp761
g69
(g90
g71
NtRp762
(dp763
g74
(dp764
g94
g95
ssg83
g758
sg76
(lp765
g390
asbag69
(g90
g71
NtRp766
(dp767
g74
(dp768
g101
g102
ssg83
g758
sg76
(lp769
S':'
asbag69
(g90
g71
NtRp770
(dp771
g74
(dp772
sg83
g758
sg76
(lp773
g69
(g70
g71
NtRp774
(dp775
g74
(dp776
g82
I3
ssg83
g770
sg76
(lp777
S''
asbasbasbag69
(g85
g71
NtRp778
(dp779
g74
(dp780
sg83
g674
sg76
(lp781
g69
(g90
g71
NtRp782
(dp783
g74
(dp784
g94
g95
ssg83
g778
sg76
(lp785
g411
asbag69
(g90
g71
NtRp786
(dp787
g74
(dp788
g101
g102
ssg83
g778
sg76
(lp789
S':'
asbag69
(g90
g71
NtRp790
(dp791
g74
(dp792
sg83
g778
sg76
(lp793
g69
(g70
g71
NtRp794
(dp795
g74
(dp796
g82
I3
ssg83
g790
sg76
(lp797
S''
asbasbasbag69
(g85
g71
NtRp798
(dp799
g74
(dp800
sg83
g674
sg76
(lp801
g69
(g90
g71
NtRp802
(dp803
g74
(dp804
g94
g95
ssg83
g798
sg76
(lp805
g432
asbag69
(g90
g71
NtRp806
(dp807
g74
(dp808
g101
g102
ssg83
g798
sg76
(lp809
S':'
asbag69
(g90
g71
NtRp810
(dp811
g74
(dp812
sg83
g798
sg76
(lp813
g69
(g70
g71
NtRp814
(dp815
g74
(dp816
g82
I3
ssg83
g810
sg76
(lp817
S''
asbasbasbag69
(g85
g71
NtRp818
(dp819
g74
(dp820
sg83
g674
sg76
(lp821
g69
(g90
g71
NtRp822
(dp823
g74
(dp824
g94
g95
ssg83
g818
sg76
(lp825
g453
asbag69
(g90
g71
NtRp826
(dp827
g74
(dp828
g101
g102
ssg83
g818
sg76
(lp829
S':'
asbag69
(g90
g71
NtRp830
(dp831
g74
(dp832
sg83
g818
sg76
(lp833
g69
(g70
g71
NtRp834
(dp835
g74
(dp836
g82
I3
ssg83
g830
sg76
(lp837
S''
asbasbasbasbasbasbasbag69
(g85
g71
NtRp838
(dp839
g74
(dp840
sg83
g268
sg76
(lp841
g69
(g90
g71
NtRp842
(dp843
g74
(dp844
g94
g95
ssg83
g838
sg76
(lp845
S'session_id_welcome'
p846
asbag69
(g90
g71
NtRp847
(dp848
g74
(dp849
g101
g102
ssg83
g838
sg76
(lp850
S':'
asbag69
(g90
g71
NtRp851
(dp852
g74
(dp853
sg83
g838
sg76
(lp854
g69
(g70
g71
NtRp855
(dp856
g74
(dp857
g82
I4
ssg83
g851
sg76
(lp858
S'127.0.0.1-b55dc8c1-3f58-490f-8267-c01e058493d9'
p859
ag69
(g78
g71
NtRp860
(dp861
g74
(dp862
g82
I3
ssg83
Nsg76
(lp863
g69
(g85
g71
NtRp864
(dp865
g74
(dp866
sg83
g860
sg76
(lp867
g69
(g90
g71
NtRp868
(dp869
g74
(dp870
g94
g95
ssg83
g864
sg76
(lp871
g306
asbag69
(g90
g71
NtRp872
(dp873
g74
(dp874
g101
g102
ssg83
g864
sg76
(lp875
S':'
asbag69
(g90
g71
NtRp876
(dp877
g74
(dp878
sg83
g864
sg76
(lp879
g69
(g70
g71
NtRp880
(dp881
g74
(dp882
g82
I3
ssg83
g876
sg76
(lp883
S''
asbasbasbag69
(g85
g71
NtRp884
(dp885
g74
(dp886
sg83
g860
sg76
(lp887
g69
(g90
g71
NtRp888
(dp889
g74
(dp890
g94
g95
ssg83
g884
sg76
(lp891
g327
asbag69
(g90
g71
NtRp892
(dp893
g74
(dp894
g101
g102
ssg83
g884
sg76
(lp895
S':'
asbag69
(g90
g71
NtRp896
(dp897
g74
(dp898
sg83
g884
sg76
(lp899
g69
(g70
g71
NtRp900
(dp901
g74
(dp902
g82
I3
ssg83
g896
sg76
(lp903
S''
asbasbasbag69
(g85
g71
NtRp904
(dp905
g74
(dp906
sg83
g860
sg76
(lp907
g69
(g90
g71
NtRp908
(dp909
g74
(dp910
g94
g95
ssg83
g904
sg76
(lp911
g348
asbag69
(g90
g71
NtRp912
(dp913
g74
(dp914
g101
g102
ssg83
g904
sg76
(lp915
S':'
asbag69
(g90
g71
NtRp916
(dp917
g74
(dp918
sg83
g904
sg76
(lp919
g69
(g70
g71
NtRp920
(dp921
g74
(dp922
g82
I3
ssg83
g916
sg76
(lp923
S''
asbasbasbag69
(g85
g71
NtRp924
(dp925
g74
(dp926
sg83
g860
sg76
(lp927
g69
(g90
g71
NtRp928
(dp929
g74
(dp930
g94
g95
ssg83
g924
sg76
(lp931
g369
asbag69
(g90
g71
NtRp932
(dp933
g74
(dp934
g101
g102
ssg83
g924
sg76
(lp935
S':'
asbag69
(g90
g71
NtRp936
(dp937
g74
(dp938
sg83
g924
sg76
(lp939
g69
(g70
g71
NtRp940
(dp941
g74
(dp942
g82
I3
ssg83
g936
sg76
(lp943
S''
asbasbasbag69
(g85
g71
NtRp944
(dp945
g74
(dp946
sg83
g860
sg76
(lp947
g69
(g90
g71
NtRp948
(dp949
g74
(dp950
g94
g95
ssg83
g944
sg76
(lp951
g390
asbag69
(g90
g71
NtRp952
(dp953
g74
(dp954
g101
g102
ssg83
g944
sg76
(lp955
S':'
asbag69
(g90
g71
NtRp956
(dp957
g74
(dp958
sg83
g944
sg76
(lp959
g69
(g70
g71
NtRp960
(dp961
g74
(dp962
g82
I3
ssg83
g956
sg76
(lp963
S''
asbasbasbag69
(g85
g71
NtRp964
(dp965
g74
(dp966
sg83
g860
sg76
(lp967
g69
(g90
g71
NtRp968
(dp969
g74
(dp970
g94
g95
ssg83
g964
sg76
(lp971
g411
asbag69
(g90
g71
NtRp972
(dp973
g74
(dp974
g101
g102
ssg83
g964
sg76
(lp975
S':'
asbag69
(g90
g71
NtRp976
(dp977
g74
(dp978
sg83
g964
sg76
(lp979
g69
(g70
g71
NtRp980
(dp981
g74
(dp982
g82
I3
ssg83
g976
sg76
(lp983
S''
asbasbasbag69
(g85
g71
NtRp984
(dp985
g74
(dp986
sg83
g860
sg76
(lp987
g69
(g90
g71
NtRp988
(dp989
g74
(dp990
g94
g95
ssg83
g984
sg76
(lp991
g432
asbag69
(g90
g71
NtRp992
(dp993
g74
(dp994
g101
g102
ssg83
g984
sg76
(lp995
S':'
asbag69
(g90
g71
NtRp996
(dp997
g74
(dp998
sg83
g984
sg76
(lp999
g69
(g70
g71
NtRp1000
(dp1001
g74
(dp1002
g82
I3
ssg83
g996
sg76
(lp1003
S''
asbasbasbag69
(g85
g71
NtRp1004
(dp1005
g74
(dp1006
sg83
g860
sg76
(lp1007
g69
(g90
g71
NtRp1008
(dp1009
g74
(dp1010
g94
g95
ssg83
g1004
sg76
(lp1011
g453
asbag69
(g90
g71
NtRp1012
(dp1013
g74
(dp1014
g101
g102
ssg83
g1004
sg76
(lp1015
S':'
asbag69
(g90
g71
NtRp1016
(dp1017
g74
(dp1018
sg83
g1004
sg76
(lp1019
g69
(g70
g71
NtRp1020
(dp1021
g74
(dp1022
g82
I3
ssg83
g1016
sg76
(lp1023
S''
asbasbasbasbasbasbasbasbasbasbasbag69
(g85
g71
NtRp1024
(dp1025
g74
(dp1026
sg83
g79
sg76
(lp1027
g69
(g90
g71
NtRp1028
(dp1029
g74
(dp1030
g94
g95
ssg83
g1024
sg76
(lp1031
S'env'
p1032
asbag69
(g90
g71
NtRp1033
(dp1034
g74
(dp1035
g101
g102
ssg83
g1024
sg76
(lp1036
S':'
asbag69
(g90
g71
NtRp1037
(dp1038
g74
(dp1039
sg83
g1024
sg76
(lp1040
g69
(g70
g71
NtRp1041
(dp1042
g74
(dp1043
g82
I5
ssg83
g1037
sg76
(lp1044
g69
(g78
g71
NtRp1045
(dp1046
g74
(dp1047
g82
I4
ssg83
Nsg76
(lp1048
g69
(g85
g71
NtRp1049
(dp1050
g74
(dp1051
sg83
g1045
sg76
(lp1052
g69
(g90
g71
NtRp1053
(dp1054
g74
(dp1055
g94
g95
ssg83
g1049
sg76
(lp1056
S'app_folders'
p1057
asbag69
(g90
g71
NtRp1058
(dp1059
g74
(dp1060
g101
g102
ssg83
g1049
sg76
(lp1061
S':'
asbag69
(g90
g71
NtRp1062
(dp1063
g74
(dp1064
sg83
g1049
sg76
(lp1065
g69
(g70
g71
NtRp1066
(dp1067
g74
(dp1068
g82
I4
ssg83
g1062
sg76
(lp1069
S"set(['/home/urvashi/Desktop/WEB2PY/web2py/applications/admin/', '/home/urvashi/Desktop/WEB2PY/web2py/applications/welcome/', '/home/urvashi/Desktop/WEB2PY/web2py/applications/GoGreen_Motors_2/', '/home/urvashi/Desktop/WEB2PY/web2py/applications/GoGreen_Motors/'])"
p1070
asbasbasbag69
(g85
g71
NtRp1071
(dp1072
g74
(dp1073
sg83
g1045
sg76
(lp1074
g69
(g90
g71
NtRp1075
(dp1076
g74
(dp1077
g94
g95
ssg83
g1071
sg76
(lp1078
S'applications_parent'
p1079
asbag69
(g90
g71
NtRp1080
(dp1081
g74
(dp1082
g101
g102
ssg83
g1071
sg76
(lp1083
S':'
asbag69
(g90
g71
NtRp1084
(dp1085
g74
(dp1086
sg83
g1071
sg76
(lp1087
g69
(g70
g71
NtRp1088
(dp1089
g74
(dp1090
g82
I4
ssg83
g1084
sg76
(lp1091
S'/home/urvashi/Desktop/WEB2PY/web2py'
p1092
asbasbasbag69
(g85
g71
NtRp1093
(dp1094
g74
(dp1095
sg83
g1045
sg76
(lp1096
g69
(g90
g71
NtRp1097
(dp1098
g74
(dp1099
g94
g95
ssg83
g1093
sg76
(lp1100
S'cmd_args'
p1101
asbag69
(g90
g71
NtRp1102
(dp1103
g74
(dp1104
g101
g102
ssg83
g1093
sg76
(lp1105
S':'
asbag69
(g90
g71
NtRp1106
(dp1107
g74
(dp1108
sg83
g1093
sg76
(lp1109
g69
(g70
g71
NtRp1110
(dp1111
g74
(dp1112
g82
I4
ssg83
g1106
sg76
(lp1113
g69
(g78
g71
NtRp1114
(dp1115
g74
(dp1116
g82
I3
ssg83
Nsg76
(lp1117
sbasbasbasbag69
(g85
g71
NtRp1118
(dp1119
g74
(dp1120
sg83
g1045
sg76
(lp1121
g69
(g90
g71
NtRp1122
(dp1123
g74
(dp1124
g94
g95
ssg83
g1118
sg76
(lp1125
S'cmd_options'
p1126
asbag69
(g90
g71
NtRp1127
(dp1128
g74
(dp1129
g101
g102
ssg83
g1118
sg76
(lp1130
S':'
asbag69
(g90
g71
NtRp1131
(dp1132
g74
(dp1133
sg83
g1118
sg76
(lp1134
g69
(g70
g71
NtRp1135
(dp1136
g74
(dp1137
g82
I4
ssg83
g1131
sg76
(lp1138
S"<Values at 0x21632d8: {'verbose': False, 'ip': '127.0.0.1', 'with_scheduler': False, 'ips': [], 'shutdown_timeout': 5, 'taskbar': False, 'port': 8000, 'maxthreads': None, 'softcron': False, 'server_name': 'urvashi-VPCEH35EN', 'bpython': False, 'nogui': False, 'pid_filename': 'httpserver.pid', 'extcron': False, 'runcron': False, 'run_system_tests': False, 'test': None, 'folder': '/home/urvashi/Desktop/WEB2PY/web2py', 'config': '', 'minthreads': None, 'winservice': '', 'shell': None, 'run': '', 'log_filename': 'httpserver.log', 'debuglevel': 30, 'args': [''], 'socket_timeout': 5, 'ssl_ca_certificate': None, 'scheduler': None, 'profiler_filename': None, 'ssl_private_key': '', 'scheduler_groups': None, 'password': '123', 'request_queue_size': 5, 'ssl_certificate': '', 'cronjob': False, 'numthreads': None, 'quiet': False, 'interfaces': None, 'import_models': False, 'timeout': 10, 'plain': False, 'nobanner': False}>"
p1139
asbasbasbag69
(g85
g71
NtRp1140
(dp1141
g74
(dp1142
sg83
g1045
sg76
(lp1143
g69
(g90
g71
NtRp1144
(dp1145
g74
(dp1146
g94
g95
ssg83
g1140
sg76
(lp1147
S'content_length'
p1148
asbag69
(g90
g71
NtRp1149
(dp1150
g74
(dp1151
g101
g102
ssg83
g1140
sg76
(lp1152
S':'
asbag69
(g90
g71
NtRp1153
(dp1154
g74
(dp1155
sg83
g1140
sg76
(lp1156
g69
(g70
g71
NtRp1157
(dp1158
g74
(dp1159
g82
I4
ssg83
g1153
sg76
(lp1160
S'803'
p1161
asbasbasbag69
(g85
g71
NtRp1162
(dp1163
g74
(dp1164
sg83
g1045
sg76
(lp1165
g69
(g90
g71
NtRp1166
(dp1167
g74
(dp1168
g94
g95
ssg83
g1162
sg76
(lp1169
S'content_type'
p1170
asbag69
(g90
g71
NtRp1171
(dp1172
g74
(dp1173
g101
g102
ssg83
g1162
sg76
(lp1174
S':'
asbag69
(g90
g71
NtRp1175
(dp1176
g74
(dp1177
sg83
g1162
sg76
(lp1178
g69
(g70
g71
NtRp1179
(dp1180
g74
(dp1181
g82
I4
ssg83
g1175
sg76
(lp1182
S'multipart/form-data; boundary=---------------------------1243803961619724094556994867'
p1183
asbasbasbag69
(g85
g71
NtRp1184
(dp1185
g74
(dp1186
sg83
g1045
sg76
(lp1187
g69
(g90
g71
NtRp1188
(dp1189
g74
(dp1190
g94
g95
ssg83
g1184
sg76
(lp1191
S'db_sessions'
p1192
asbag69
(g90
g71
NtRp1193
(dp1194
g74
(dp1195
g101
g102
ssg83
g1184
sg76
(lp1196
S':'
asbag69
(g90
g71
NtRp1197
(dp1198
g74
(dp1199
sg83
g1184
sg76
(lp1200
g69
(g70
g71
NtRp1201
(dp1202
g74
(dp1203
g82
I4
ssg83
g1197
sg76
(lp1204
S'set([])'
p1205
asbasbasbag69
(g85
g71
NtRp1206
(dp1207
g74
(dp1208
sg83
g1045
sg76
(lp1209
g69
(g90
g71
NtRp1210
(dp1211
g74
(dp1212
g94
g95
ssg83
g1206
sg76
(lp1213
S'debugging'
p1214
asbag69
(g90
g71
NtRp1215
(dp1216
g74
(dp1217
g101
g102
ssg83
g1206
sg76
(lp1218
S':'
asbag69
(g90
g71
NtRp1219
(dp1220
g74
(dp1221
sg83
g1206
sg76
(lp1222
g69
(g70
g71
NtRp1223
(dp1224
g74
(dp1225
g82
I4
ssg83
g1219
sg76
(lp1226
g112
asbasbasbag69
(g85
g71
NtRp1227
(dp1228
g74
(dp1229
sg83
g1045
sg76
(lp1230
g69
(g90
g71
NtRp1231
(dp1232
g74
(dp1233
g94
g95
ssg83
g1227
sg76
(lp1234
S'gluon_parent'
p1235
asbag69
(g90
g71
NtRp1236
(dp1237
g74
(dp1238
g101
g102
ssg83
g1227
sg76
(lp1239
S':'
asbag69
(g90
g71
NtRp1240
(dp1241
g74
(dp1242
sg83
g1227
sg76
(lp1243
g69
(g70
g71
NtRp1244
(dp1245
g74
(dp1246
g82
I4
ssg83
g1240
sg76
(lp1247
S'/home/urvashi/Desktop/WEB2PY/web2py'
p1248
asbasbasbag69
(g85
g71
NtRp1249
(dp1250
g74
(dp1251
sg83
g1045
sg76
(lp1252
g69
(g90
g71
NtRp1253
(dp1254
g74
(dp1255
g94
g95
ssg83
g1249
sg76
(lp1256
S'http_accept'
p1257
asbag69
(g90
g71
NtRp1258
(dp1259
g74
(dp1260
g101
g102
ssg83
g1249
sg76
(lp1261
S':'
asbag69
(g90
g71
NtRp1262
(dp1263
g74
(dp1264
sg83
g1249
sg76
(lp1265
g69
(g70
g71
NtRp1266
(dp1267
g74
(dp1268
g82
I4
ssg83
g1262
sg76
(lp1269
S'text/html,application/xhtml+xml,application/xml;q=0.9,*/*;q=0.8'
p1270
asbasbasbag69
(g85
g71
NtRp1271
(dp1272
g74
(dp1273
sg83
g1045
sg76
(lp1274
g69
(g90
g71
NtRp1275
(dp1276
g74
(dp1277
g94
g95
ssg83
g1271
sg76
(lp1278
S'http_accept_encoding'
p1279
asbag69
(g90
g71
NtRp1280
(dp1281
g74
(dp1282
g101
g102
ssg83
g1271
sg76
(lp1283
S':'
asbag69
(g90
g71
NtRp1284
(dp1285
g74
(dp1286
sg83
g1271
sg76
(lp1287
g69
(g70
g71
NtRp1288
(dp1289
g74
(dp1290
g82
I4
ssg83
g1284
sg76
(lp1291
S'gzip, deflate'
p1292
asbasbasbag69
(g85
g71
NtRp1293
(dp1294
g74
(dp1295
sg83
g1045
sg76
(lp1296
g69
(g90
g71
NtRp1297
(dp1298
g74
(dp1299
g94
g95
ssg83
g1293
sg76
(lp1300
S'http_accept_language'
p1301
asbag69
(g90
g71
NtRp1302
(dp1303
g74
(dp1304
g101
g102
ssg83
g1293
sg76
(lp1305
S':'
asbag69
(g90
g71
NtRp1306
(dp1307
g74
(dp1308
sg83
g1293
sg76
(lp1309
g69
(g70
g71
NtRp1310
(dp1311
g74
(dp1312
g82
I4
ssg83
g1306
sg76
(lp1313
S'en-us,en;q=0.5'
p1314
asbasbasbag69
(g85
g71
NtRp1315
(dp1316
g74
(dp1317
sg83
g1045
sg76
(lp1318
g69
(g90
g71
NtRp1319
(dp1320
g74
(dp1321
g94
g95
ssg83
g1315
sg76
(lp1322
S'http_cache_control'
p1323
asbag69
(g90
g71
NtRp1324
(dp1325
g74
(dp1326
g101
g102
ssg83
g1315
sg76
(lp1327
S':'
asbag69
(g90
g71
NtRp1328
(dp1329
g74
(dp1330
sg83
g1315
sg76
(lp1331
g69
(g70
g71
NtRp1332
(dp1333
g74
(dp1334
g82
I4
ssg83
g1328
sg76
(lp1335
S'max-age=0'
p1336
asbasbasbag69
(g85
g71
NtRp1337
(dp1338
g74
(dp1339
sg83
g1045
sg76
(lp1340
g69
(g90
g71
NtRp1341
(dp1342
g74
(dp1343
g94
g95
ssg83
g1337
sg76
(lp1344
S'http_connection'
p1345
asbag69
(g90
g71
NtRp1346
(dp1347
g74
(dp1348
g101
g102
ssg83
g1337
sg76
(lp1349
S':'
asbag69
(g90
g71
NtRp1350
(dp1351
g74
(dp1352
sg83
g1337
sg76
(lp1353
g69
(g70
g71
NtRp1354
(dp1355
g74
(dp1356
g82
I4
ssg83
g1350
sg76
(lp1357
S'keep-alive'
p1358
asbasbasbag69
(g85
g71
NtRp1359
(dp1360
g74
(dp1361
sg83
g1045
sg76
(lp1362
g69
(g90
g71
NtRp1363
(dp1364
g74
(dp1365
g94
g95
ssg83
g1359
sg76
(lp1366
S'http_content_length'
p1367
asbag69
(g90
g71
NtRp1368
(dp1369
g74
(dp1370
g101
g102
ssg83
g1359
sg76
(lp1371
S':'
asbag69
(g90
g71
NtRp1372
(dp1373
g74
(dp1374
sg83
g1359
sg76
(lp1375
g69
(g70
g71
NtRp1376
(dp1377
g74
(dp1378
g82
I4
ssg83
g1372
sg76
(lp1379
g1161
asbasbasbag69
(g85
g71
NtRp1380
(dp1381
g74
(dp1382
sg83
g1045
sg76
(lp1383
g69
(g90
g71
NtRp1384
(dp1385
g74
(dp1386
g94
g95
ssg83
g1380
sg76
(lp1387
S'http_content_type'
p1388
asbag69
(g90
g71
NtRp1389
(dp1390
g74
(dp1391
g101
g102
ssg83
g1380
sg76
(lp1392
S':'
asbag69
(g90
g71
NtRp1393
(dp1394
g74
(dp1395
sg83
g1380
sg76
(lp1396
g69
(g70
g71
NtRp1397
(dp1398
g74
(dp1399
g82
I4
ssg83
g1393
sg76
(lp1400
g1183
asbasbasbag69
(g85
g71
NtRp1401
(dp1402
g74
(dp1403
sg83
g1045
sg76
(lp1404
g69
(g90
g71
NtRp1405
(dp1406
g74
(dp1407
g94
g95
ssg83
g1401
sg76
(lp1408
S'http_cookie'
p1409
asbag69
(g90
g71
NtRp1410
(dp1411
g74
(dp1412
g101
g102
ssg83
g1401
sg76
(lp1413
S':'
asbag69
(g90
g71
NtRp1414
(dp1415
g74
(dp1416
sg83
g1401
sg76
(lp1417
g69
(g70
g71
NtRp1418
(dp1419
g74
(dp1420
g82
I4
ssg83
g1414
sg76
(lp1421
S'session_id_welcome=127.0.0.1-b55dc8c1-3f58-490f-8267-c01e058493d9; session_id_admin=127.0.0.1-32a52561-f000-4a73-90e1-bca802325e3e; session_id_gogreen_motors_2=127.0.0.1-7b9c0c70-b6cb-4ea9-8c10-36eb3d436819; session_id_gogreen_motors=127.0.0.1-112d03d3-9ed9-48f1-ac2f-957ce25761c8'
p1422
asbasbasbag69
(g85
g71
NtRp1423
(dp1424
g74
(dp1425
sg83
g1045
sg76
(lp1426
g69
(g90
g71
NtRp1427
(dp1428
g74
(dp1429
g94
g95
ssg83
g1423
sg76
(lp1430
S'http_host'
p1431
asbag69
(g90
g71
NtRp1432
(dp1433
g74
(dp1434
g101
g102
ssg83
g1423
sg76
(lp1435
S':'
asbag69
(g90
g71
NtRp1436
(dp1437
g74
(dp1438
sg83
g1423
sg76
(lp1439
g69
(g70
g71
NtRp1440
(dp1441
g74
(dp1442
g82
I4
ssg83
g1436
sg76
(lp1443
S'127.0.0.1:8000'
p1444
asbasbasbag69
(g85
g71
NtRp1445
(dp1446
g74
(dp1447
sg83
g1045
sg76
(lp1448
g69
(g90
g71
NtRp1449
(dp1450
g74
(dp1451
g94
g95
ssg83
g1445
sg76
(lp1452
S'http_referer'
p1453
asbag69
(g90
g71
NtRp1454
(dp1455
g74
(dp1456
g101
g102
ssg83
g1445
sg76
(lp1457
S':'
asbag69
(g90
g71
NtRp1458
(dp1459
g74
(dp1460
sg83
g1445
sg76
(lp1461
g69
(g70
g71
NtRp1462
(dp1463
g74
(dp1464
g82
I4
ssg83
g1458
sg76
(lp1465
S'http://127.0.0.1:8000/GoGreen_Motors_2/default/order_bike'
p1466
asbasbasbag69
(g85
g71
NtRp1467
(dp1468
g74
(dp1469
sg83
g1045
sg76
(lp1470
g69
(g90
g71
NtRp1471
(dp1472
g74
(dp1473
g94
g95
ssg83
g1467
sg76
(lp1474
S'http_user_agent'
p1475
asbag69
(g90
g71
NtRp1476
(dp1477
g74
(dp1478
g101
g102
ssg83
g1467
sg76
(lp1479
S':'
asbag69
(g90
g71
NtRp1480
(dp1481
g74
(dp1482
sg83
g1467
sg76
(lp1483
g69
(g70
g71
NtRp1484
(dp1485
g74
(dp1486
g82
I4
ssg83
g1480
sg76
(lp1487
S'Mozilla/5.0 (X11; Ubuntu; Linux x86_64; rv:11.0) Gecko/20100101 Firefox/11.0'
p1488
asbasbasbag69
(g85
g71
NtRp1489
(dp1490
g74
(dp1491
sg83
g1045
sg76
(lp1492
g69
(g90
g71
NtRp1493
(dp1494
g74
(dp1495
g94
g95
ssg83
g1489
sg76
(lp1496
S'is_jython'
p1497
asbag69
(g90
g71
NtRp1498
(dp1499
g74
(dp1500
g101
g102
ssg83
g1489
sg76
(lp1501
S':'
asbag69
(g90
g71
NtRp1502
(dp1503
g74
(dp1504
sg83
g1489
sg76
(lp1505
g69
(g70
g71
NtRp1506
(dp1507
g74
(dp1508
g82
I4
ssg83
g1502
sg76
(lp1509
g112
asbasbasbag69
(g85
g71
NtRp1510
(dp1511
g74
(dp1512
sg83
g1045
sg76
(lp1513
g69
(g90
g71
NtRp1514
(dp1515
g74
(dp1516
g94
g95
ssg83
g1510
sg76
(lp1517
S'is_pypy'
p1518
asbag69
(g90
g71
NtRp1519
(dp1520
g74
(dp1521
g101
g102
ssg83
g1510
sg76
(lp1522
S':'
asbag69
(g90
g71
NtRp1523
(dp1524
g74
(dp1525
sg83
g1510
sg76
(lp1526
g69
(g70
g71
NtRp1527
(dp1528
g74
(dp1529
g82
I4
ssg83
g1523
sg76
(lp1530
g112
asbasbasbag69
(g85
g71
NtRp1531
(dp1532
g74
(dp1533
sg83
g1045
sg76
(lp1534
g69
(g90
g71
NtRp1535
(dp1536
g74
(dp1537
g94
g95
ssg83
g1531
sg76
(lp1538
S'local_hosts'
p1539
asbag69
(g90
g71
NtRp1540
(dp1541
g74
(dp1542
g101
g102
ssg83
g1531
sg76
(lp1543
S':'
asbag69
(g90
g71
NtRp1544
(dp1545
g74
(dp1546
sg83
g1531
sg76
(lp1547
g69
(g70
g71
NtRp1548
(dp1549
g74
(dp1550
g82
I4
ssg83
g1544
sg76
(lp1551
g69
(g78
g71
NtRp1552
(dp1553
g74
(dp1554
g82
I3
ssg83
Nsg76
(lp1555
g69
(g85
g71
NtRp1556
(dp1557
g74
(dp1558
sg83
g1552
sg76
(lp1559
g69
(g90
g71
NtRp1560
(dp1561
g74
(dp1562
sg83
g1556
sg76
(lp1563
g69
(g70
g71
NtRp1564
(dp1565
g74
(dp1566
g82
I3
ssg83
g1560
sg76
(lp1567
S'::1'
p1568
asbasbasbag69
(g85
g71
NtRp1569
(dp1570
g74
(dp1571
sg83
g1552
sg76
(lp1572
g69
(g90
g71
NtRp1573
(dp1574
g74
(dp1575
sg83
g1569
sg76
(lp1576
g69
(g70
g71
NtRp1577
(dp1578
g74
(dp1579
g82
I3
ssg83
g1573
sg76
(lp1580
S'127.0.1.1'
p1581
asbasbasbag69
(g85
g71
NtRp1582
(dp1583
g74
(dp1584
sg83
g1552
sg76
(lp1585
g69
(g90
g71
NtRp1586
(dp1587
g74
(dp1588
sg83
g1582
sg76
(lp1589
g69
(g70
g71
NtRp1590
(dp1591
g74
(dp1592
g82
I3
ssg83
g1586
sg76
(lp1593
S'::ffff:127.0.0.1'
p1594
asbasbasbag69
(g85
g71
NtRp1595
(dp1596
g74
(dp1597
sg83
g1552
sg76
(lp1598
g69
(g90
g71
NtRp1599
(dp1600
g74
(dp1601
sg83
g1595
sg76
(lp1602
g69
(g70
g71
NtRp1603
(dp1604
g74
(dp1605
g82
I3
ssg83
g1599
sg76
(lp1606
S'127.0.0.1'
p1607
asbasbasbag69
(g85
g71
NtRp1608
(dp1609
g74
(dp1610
sg83
g1552
sg76
(lp1611
g69
(g90
g71
NtRp1612
(dp1613
g74
(dp1614
sg83
g1608
sg76
(lp1615
g69
(g70
g71
NtRp1616
(dp1617
g74
(dp1618
g82
I3
ssg83
g1612
sg76
(lp1619
S'urvashi-VPCEH35EN'
p1620
asbasbasbasbasbasbasbag69
(g85
g71
NtRp1621
(dp1622
g74
(dp1623
sg83
g1045
sg76
(lp1624
g69
(g90
g71
NtRp1625
(dp1626
g74
(dp1627
g94
g95
ssg83
g1621
sg76
(lp1628
S'path_info'
p1629
asbag69
(g90
g71
NtRp1630
(dp1631
g74
(dp1632
g101
g102
ssg83
g1621
sg76
(lp1633
S':'
asbag69
(g90
g71
NtRp1634
(dp1635
g74
(dp1636
sg83
g1621
sg76
(lp1637
g69
(g70
g71
NtRp1638
(dp1639
g74
(dp1640
g82
I4
ssg83
g1634
sg76
(lp1641
S'/GoGreen_Motors_2/default/order_bike'
p1642
asbasbasbag69
(g85
g71
NtRp1643
(dp1644
g74
(dp1645
sg83
g1045
sg76
(lp1646
g69
(g90
g71
NtRp1647
(dp1648
g74
(dp1649
g94
g95
ssg83
g1643
sg76
(lp1650
S'query_string'
p1651
asbag69
(g90
g71
NtRp1652
(dp1653
g74
(dp1654
g101
g102
ssg83
g1643
sg76
(lp1655
S':'
asbag69
(g90
g71
NtRp1656
(dp1657
g74
(dp1658
sg83
g1643
sg76
(lp1659
g69
(g70
g71
NtRp1660
(dp1661
g74
(dp1662
g82
I4
ssg83
g1656
sg76
(lp1663
S''
asbasbasbag69
(g85
g71
NtRp1664
(dp1665
g74
(dp1666
sg83
g1045
sg76
(lp1667
g69
(g90
g71
NtRp1668
(dp1669
g74
(dp1670
g94
g95
ssg83
g1664
sg76
(lp1671
S'remote_addr'
p1672
asbag69
(g90
g71
NtRp1673
(dp1674
g74
(dp1675
g101
g102
ssg83
g1664
sg76
(lp1676
S':'
asbag69
(g90
g71
NtRp1677
(dp1678
g74
(dp1679
sg83
g1664
sg76
(lp1680
g69
(g70
g71
NtRp1681
(dp1682
g74
(dp1683
g82
I4
ssg83
g1677
sg76
(lp1684
g224
asbasbasbag69
(g85
g71
NtRp1685
(dp1686
g74
(dp1687
sg83
g1045
sg76
(lp1688
g69
(g90
g71
NtRp1689
(dp1690
g74
(dp1691
g94
g95
ssg83
g1685
sg76
(lp1692
S'remote_port'
p1693
asbag69
(g90
g71
NtRp1694
(dp1695
g74
(dp1696
g101
g102
ssg83
g1685
sg76
(lp1697
S':'
asbag69
(g90
g71
NtRp1698
(dp1699
g74
(dp1700
sg83
g1685
sg76
(lp1701
g69
(g70
g71
NtRp1702
(dp1703
g74
(dp1704
g82
I4
ssg83
g1698
sg76
(lp1705
S'36328'
p1706
asbasbasbag69
(g85
g71
NtRp1707
(dp1708
g74
(dp1709
sg83
g1045
sg76
(lp1710
g69
(g90
g71
NtRp1711
(dp1712
g74
(dp1713
g94
g95
ssg83
g1707
sg76
(lp1714
S'request_method'
p1715
asbag69
(g90
g71
NtRp1716
(dp1717
g74
(dp1718
g101
g102
ssg83
g1707
sg76
(lp1719
S':'
asbag69
(g90
g71
NtRp1720
(dp1721
g74
(dp1722
sg83
g1707
sg76
(lp1723
g69
(g70
g71
NtRp1724
(dp1725
g74
(dp1726
g82
I4
ssg83
g1720
sg76
(lp1727
S'POST'
p1728
asbasbasbag69
(g85
g71
NtRp1729
(dp1730
g74
(dp1731
sg83
g1045
sg76
(lp1732
g69
(g90
g71
NtRp1733
(dp1734
g74
(dp1735
g94
g95
ssg83
g1729
sg76
(lp1736
S'request_uri'
p1737
asbag69
(g90
g71
NtRp1738
(dp1739
g74
(dp1740
g101
g102
ssg83
g1729
sg76
(lp1741
S':'
asbag69
(g90
g71
NtRp1742
(dp1743
g74
(dp1744
sg83
g1729
sg76
(lp1745
g69
(g70
g71
NtRp1746
(dp1747
g74
(dp1748
g82
I4
ssg83
g1742
sg76
(lp1749
g1642
asbasbasbag69
(g85
g71
NtRp1750
(dp1751
g74
(dp1752
sg83
g1045
sg76
(lp1753
g69
(g90
g71
NtRp1754
(dp1755
g74
(dp1756
g94
g95
ssg83
g1750
sg76
(lp1757
S'script_name'
p1758
asbag69
(g90
g71
NtRp1759
(dp1760
g74
(dp1761
g101
g102
ssg83
g1750
sg76
(lp1762
S':'
asbag69
(g90
g71
NtRp1763
(dp1764
g74
(dp1765
sg83
g1750
sg76
(lp1766
g69
(g70
g71
NtRp1767
(dp1768
g74
(dp1769
g82
I4
ssg83
g1763
sg76
(lp1770
S''
asbasbasbag69
(g85
g71
NtRp1771
(dp1772
g74
(dp1773
sg83
g1045
sg76
(lp1774
g69
(g90
g71
NtRp1775
(dp1776
g74
(dp1777
g94
g95
ssg83
g1771
sg76
(lp1778
S'server_name'
p1779
asbag69
(g90
g71
NtRp1780
(dp1781
g74
(dp1782
g101
g102
ssg83
g1771
sg76
(lp1783
S':'
asbag69
(g90
g71
NtRp1784
(dp1785
g74
(dp1786
sg83
g1771
sg76
(lp1787
g69
(g70
g71
NtRp1788
(dp1789
g74
(dp1790
g82
I4
ssg83
g1784
sg76
(lp1791
S'urvashi-VPCEH35EN'
p1792
asbasbasbag69
(g85
g71
NtRp1793
(dp1794
g74
(dp1795
sg83
g1045
sg76
(lp1796
g69
(g90
g71
NtRp1797
(dp1798
g74
(dp1799
g94
g95
ssg83
g1793
sg76
(lp1800
S'server_port'
p1801
asbag69
(g90
g71
NtRp1802
(dp1803
g74
(dp1804
g101
g102
ssg83
g1793
sg76
(lp1805
S':'
asbag69
(g90
g71
NtRp1806
(dp1807
g74
(dp1808
sg83
g1793
sg76
(lp1809
g69
(g70
g71
NtRp1810
(dp1811
g74
(dp1812
g82
I4
ssg83
g1806
sg76
(lp1813
S'8000'
p1814
asbasbasbag69
(g85
g71
NtRp1815
(dp1816
g74
(dp1817
sg83
g1045
sg76
(lp1818
g69
(g90
g71
NtRp1819
(dp1820
g74
(dp1821
g94
g95
ssg83
g1815
sg76
(lp1822
S'server_protocol'
p1823
asbag69
(g90
g71
NtRp1824
(dp1825
g74
(dp1826
g101
g102
ssg83
g1815
sg76
(lp1827
S':'
asbag69
(g90
g71
NtRp1828
(dp1829
g74
(dp1830
sg83
g1815
sg76
(lp1831
g69
(g70
g71
NtRp1832
(dp1833
g74
(dp1834
g82
I4
ssg83
g1828
sg76
(lp1835
S'HTTP/1.1'
p1836
asbasbasbag69
(g85
g71
NtRp1837
(dp1838
g74
(dp1839
sg83
g1045
sg76
(lp1840
g69
(g90
g71
NtRp1841
(dp1842
g74
(dp1843
g94
g95
ssg83
g1837
sg76
(lp1844
S'server_software'
p1845
asbag69
(g90
g71
NtRp1846
(dp1847
g74
(dp1848
g101
g102
ssg83
g1837
sg76
(lp1849
S':'
asbag69
(g90
g71
NtRp1850
(dp1851
g74
(dp1852
sg83
g1837
sg76
(lp1853
g69
(g70
g71
NtRp1854
(dp1855
g74
(dp1856
g82
I4
ssg83
g1850
sg76
(lp1857
S'Rocket 1.2.6'
p1858
asbasbasbag69
(g85
g71
NtRp1859
(dp1860
g74
(dp1861
sg83
g1045
sg76
(lp1862
g69
(g90
g71
NtRp1863
(dp1864
g74
(dp1865
g94
g95
ssg83
g1859
sg76
(lp1866
S'web2py_path'
p1867
asbag69
(g90
g71
NtRp1868
(dp1869
g74
(dp1870
g101
g102
ssg83
g1859
sg76
(lp1871
S':'
asbag69
(g90
g71
NtRp1872
(dp1873
g74
(dp1874
sg83
g1859
sg76
(lp1875
g69
(g70
g71
NtRp1876
(dp1877
g74
(dp1878
g82
I4
ssg83
g1872
sg76
(lp1879
g1092
asbasbasbag69
(g85
g71
NtRp1880
(dp1881
g74
(dp1882
sg83
g1045
sg76
(lp1883
g69
(g90
g71
NtRp1884
(dp1885
g74
(dp1886
g94
g95
ssg83
g1880
sg76
(lp1887
S'web2py_version'
p1888
asbag69
(g90
g71
NtRp1889
(dp1890
g74
(dp1891
g101
g102
ssg83
g1880
sg76
(lp1892
S':'
asbag69
(g90
g71
NtRp1893
(dp1894
g74
(dp1895
sg83
g1880
sg76
(lp1896
g69
(g70
g71
NtRp1897
(dp1898
g74
(dp1899
g82
I4
ssg83
g1893
sg76
(lp1900
g69
(g78
g71
NtRp1901
(dp1902
g74
(dp1903
g82
I3
ssg83
Nsg76
(lp1904
g69
(g85
g71
NtRp1905
(dp1906
g74
(dp1907
sg83
g1901
sg76
(lp1908
g69
(g90
g71
NtRp1909
(dp1910
g74
(dp1911
sg83
g1905
sg76
(lp1912
g69
(g70
g71
NtRp1913
(dp1914
g74
(dp1915
g82
I3
ssg83
g1909
sg76
(lp1916
S'2'
asbasbasbag69
(g85
g71
NtRp1917
(dp1918
g74
(dp1919
sg83
g1901
sg76
(lp1920
g69
(g90
g71
NtRp1921
(dp1922
g74
(dp1923
sg83
g1917
sg76
(lp1924
g69
(g70
g71
NtRp1925
(dp1926
g74
(dp1927
g82
I3
ssg83
g1921
sg76
(lp1928
S'3'
asbasbasbag69
(g85
g71
NtRp1929
(dp1930
g74
(dp1931
sg83
g1901
sg76
(lp1932
g69
(g90
g71
NtRp1933
(dp1934
g74
(dp1935
sg83
g1929
sg76
(lp1936
g69
(g70
g71
NtRp1937
(dp1938
g74
(dp1939
g82
I3
ssg83
g1933
sg76
(lp1940
S'2'
asbasbasbag69
(g85
g71
NtRp1941
(dp1942
g74
(dp1943
sg83
g1901
sg76
(lp1944
g69
(g90
g71
NtRp1945
(dp1946
g74
(dp1947
sg83
g1941
sg76
(lp1948
g69
(g70
g71
NtRp1949
(dp1950
g74
(dp1951
g82
I3
ssg83
g1945
sg76
(lp1952
S'datetime.datetime(2012, 12, 17, 15, 3, 30)'
p1953
asbasbasbag69
(g85
g71
NtRp1954
(dp1955
g74
(dp1956
sg83
g1901
sg76
(lp1957
g69
(g90
g71
NtRp1958
(dp1959
g74
(dp1960
sg83
g1954
sg76
(lp1961
g69
(g70
g71
NtRp1962
(dp1963
g74
(dp1964
g82
I3
ssg83
g1958
sg76
(lp1965
S'stable'
p1966
asbasbasbasbasbasbasbag69
(g85
g71
NtRp1967
(dp1968
g74
(dp1969
sg83
g1045
sg76
(lp1970
g69
(g90
g71
NtRp1971
(dp1972
g74
(dp1973
g94
g95
ssg83
g1967
sg76
(lp1974
S'wsgi_errors'
p1975
asbag69
(g90
g71
NtRp1976
(dp1977
g74
(dp1978
g101
g102
ssg83
g1967
sg76
(lp1979
S':'
asbag69
(g90
g71
NtRp1980
(dp1981
g74
(dp1982
sg83
g1967
sg76
(lp1983
g69
(g70
g71
NtRp1984
(dp1985
g74
(dp1986
g82
I4
ssg83
g1980
sg76
(lp1987
S"<open file '<stderr>', mode 'w' at 0x7fa097cd0270>"
p1988
asbasbasbag69
(g85
g71
NtRp1989
(dp1990
g74
(dp1991
sg83
g1045
sg76
(lp1992
g69
(g90
g71
NtRp1993
(dp1994
g74
(dp1995
g94
g95
ssg83
g1989
sg76
(lp1996
S'wsgi_file_wrapper'
p1997
asbag69
(g90
g71
NtRp1998
(dp1999
g74
(dp2000
g101
g102
ssg83
g1989
sg76
(lp2001
S':'
asbag69
(g90
g71
NtRp2002
(dp2003
g74
(dp2004
sg83
g1989
sg76
(lp2005
g69
(g70
g71
NtRp2006
(dp2007
g74
(dp2008
g82
I4
ssg83
g2002
sg76
(lp2009
S'<class wsgiref.util.FileWrapper at 0x1d21b48>'
p2010
asbasbasbag69
(g85
g71
NtRp2011
(dp2012
g74
(dp2013
sg83
g1045
sg76
(lp2014
g69
(g90
g71
NtRp2015
(dp2016
g74
(dp2017
g94
g95
ssg83
g2011
sg76
(lp2018
S'wsgi_input'
p2019
asbag69
(g90
g71
NtRp2020
(dp2021
g74
(dp2022
g101
g102
ssg83
g2011
sg76
(lp2023
S':'
asbag69
(g90
g71
NtRp2024
(dp2025
g74
(dp2026
sg83
g2011
sg76
(lp2027
g69
(g70
g71
NtRp2028
(dp2029
g74
(dp2030
g82
I4
ssg83
g2024
sg76
(lp2031
S'<socket._fileobject object at 0x7fa06c072250>'
p2032
asbasbasbag69
(g85
g71
NtRp2033
(dp2034
g74
(dp2035
sg83
g1045
sg76
(lp2036
g69
(g90
g71
NtRp2037
(dp2038
g74
(dp2039
g94
g95
ssg83
g2033
sg76
(lp2040
S'wsgi_multiprocess'
p2041
asbag69
(g90
g71
NtRp2042
(dp2043
g74
(dp2044
g101
g102
ssg83
g2033
sg76
(lp2045
S':'
asbag69
(g90
g71
NtRp2046
(dp2047
g74
(dp2048
sg83
g2033
sg76
(lp2049
g69
(g70
g71
NtRp2050
(dp2051
g74
(dp2052
g82
I4
ssg83
g2046
sg76
(lp2053
g112
asbasbasbag69
(g85
g71
NtRp2054
(dp2055
g74
(dp2056
sg83
g1045
sg76
(lp2057
g69
(g90
g71
NtRp2058
(dp2059
g74
(dp2060
g94
g95
ssg83
g2054
sg76
(lp2061
S'wsgi_multithread'
p2062
asbag69
(g90
g71
NtRp2063
(dp2064
g74
(dp2065
g101
g102
ssg83
g2054
sg76
(lp2066
S':'
asbag69
(g90
g71
NtRp2067
(dp2068
g74
(dp2069
sg83
g2054
sg76
(lp2070
g69
(g70
g71
NtRp2071
(dp2072
g74
(dp2073
g82
I4
ssg83
g2067
sg76
(lp2074
S'True'
p2075
asbasbasbag69
(g85
g71
NtRp2076
(dp2077
g74
(dp2078
sg83
g1045
sg76
(lp2079
g69
(g90
g71
NtRp2080
(dp2081
g74
(dp2082
g94
g95
ssg83
g2076
sg76
(lp2083
S'wsgi_run_once'
p2084
asbag69
(g90
g71
NtRp2085
(dp2086
g74
(dp2087
g101
g102
ssg83
g2076
sg76
(lp2088
S':'
asbag69
(g90
g71
NtRp2089
(dp2090
g74
(dp2091
sg83
g2076
sg76
(lp2092
g69
(g70
g71
NtRp2093
(dp2094
g74
(dp2095
g82
I4
ssg83
g2089
sg76
(lp2096
g112
asbasbasbag69
(g85
g71
NtRp2097
(dp2098
g74
(dp2099
sg83
g1045
sg76
(lp2100
g69
(g90
g71
NtRp2101
(dp2102
g74
(dp2103
g94
g95
ssg83
g2097
sg76
(lp2104
S'wsgi_url_scheme'
p2105
asbag69
(g90
g71
NtRp2106
(dp2107
g74
(dp2108
g101
g102
ssg83
g2097
sg76
(lp2109
S':'
asbag69
(g90
g71
NtRp2110
(dp2111
g74
(dp2112
sg83
g2097
sg76
(lp2113
g69
(g70
g71
NtRp2114
(dp2115
g74
(dp2116
g82
I4
ssg83
g2110
sg76
(lp2117
S'http'
p2118
asbasbasbag69
(g85
g71
NtRp2119
(dp2120
g74
(dp2121
sg83
g1045
sg76
(lp2122
g69
(g90
g71
NtRp2123
(dp2124
g74
(dp2125
g94
g95
ssg83
g2119
sg76
(lp2126
S'wsgi_version'
p2127
asbag69
(g90
g71
NtRp2128
(dp2129
g74
(dp2130
g101
g102
ssg83
g2119
sg76
(lp2131
S':'
asbag69
(g90
g71
NtRp2132
(dp2133
g74
(dp2134
sg83
g2119
sg76
(lp2135
g69
(g70
g71
NtRp2136
(dp2137
g74
(dp2138
g82
I4
ssg83
g2132
sg76
(lp2139
g69
(g78
g71
NtRp2140
(dp2141
g74
(dp2142
g82
I3
ssg83
Nsg76
(lp2143
g69
(g85
g71
NtRp2144
(dp2145
g74
(dp2146
sg83
g2140
sg76
(lp2147
g69
(g90
g71
NtRp2148
(dp2149
g74
(dp2150
sg83
g2144
sg76
(lp2151
g69
(g70
g71
NtRp2152
(dp2153
g74
(dp2154
g82
I3
ssg83
g2148
sg76
(lp2155
S'1'
asbasbasbag69
(g85
g71
NtRp2156
(dp2157
g74
(dp2158
sg83
g2140
sg76
(lp2159
g69
(g90
g71
NtRp2160
(dp2161
g74
(dp2162
sg83
g2156
sg76
(lp2163
g69
(g70
g71
NtRp2164
(dp2165
g74
(dp2166
g82
I3
ssg83
g2160
sg76
(lp2167
S'0'
asbasbasbasbasbasbasbasbasbasbasbag69
(g85
g71
NtRp2168
(dp2169
g74
(dp2170
sg83
g79
sg76
(lp2171
g69
(g90
g71
NtRp2172
(dp2173
g74
(dp2174
g94
g95
ssg83
g2168
sg76
(lp2175
S'extension'
p2176
asbag69
(g90
g71
NtRp2177
(dp2178
g74
(dp2179
g101
g102
ssg83
g2168
sg76
(lp2180
S':'
asbag69
(g90
g71
NtRp2181
(dp2182
g74
(dp2183
sg83
g2168
sg76
(lp2184
g69
(g70
g71
NtRp2185
(dp2186
g74
(dp2187
g82
I5
ssg83
g2181
sg76
(lp2188
S'html'
p2189
asbasbasbag69
(g85
g71
NtRp2190
(dp2191
g74
(dp2192
sg83
g79
sg76
(lp2193
g69
(g90
g71
NtRp2194
(dp2195
g74
(dp2196
g94
g95
ssg83
g2190
sg76
(lp2197
S'folder'
p2198
asbag69
(g90
g71
NtRp2199
(dp2200
g74
(dp2201
g101
g102
ssg83
g2190
sg76
(lp2202
S':'
asbag69
(g90
g71
NtRp2203
(dp2204
g74
(dp2205
sg83
g2190
sg76
(lp2206
g69
(g70
g71
NtRp2207
(dp2208
g74
(dp2209
g82
I5
ssg83
g2203
sg76
(lp2210
S'/home/urvashi/Desktop/WEB2PY/web2py/applications/GoGreen_Motors_2/'
p2211
asbasbasbag69
(g85
g71
NtRp2212
(dp2213
g74
(dp2214
sg83
g79
sg76
(lp2215
g69
(g90
g71
NtRp2216
(dp2217
g74
(dp2218
g94
g95
ssg83
g2212
sg76
(lp2219
S'function'
p2220
asbag69
(g90
g71
NtRp2221
(dp2222
g74
(dp2223
g101
g102
ssg83
g2212
sg76
(lp2224
S':'
asbag69
(g90
g71
NtRp2225
(dp2226
g74
(dp2227
sg83
g2212
sg76
(lp2228
g69
(g70
g71
NtRp2229
(dp2230
g74
(dp2231
g82
I5
ssg83
g2225
sg76
(lp2232
S'order_bike'
p2233
asbasbasbag69
(g85
g71
NtRp2234
(dp2235
g74
(dp2236
sg83
g79
sg76
(lp2237
g69
(g90
g71
NtRp2238
(dp2239
g74
(dp2240
g94
g95
ssg83
g2234
sg76
(lp2241
S'get_vars'
p2242
asbag69
(g90
g71
NtRp2243
(dp2244
g74
(dp2245
g101
g102
ssg83
g2234
sg76
(lp2246
S':'
asbag69
(g90
g71
NtRp2247
(dp2248
g74
(dp2249
sg83
g2234
sg76
(lp2250
g69
(g70
g71
NtRp2251
(dp2252
g74
(dp2253
g82
I5
ssg83
g2247
sg76
(lp2254
g69
(g78
g71
NtRp2255
(dp2256
g74
(dp2257
g82
I4
ssg83
Nsg76
(lp2258
sbasbasbasbag69
(g85
g71
NtRp2259
(dp2260
g74
(dp2261
sg83
g79
sg76
(lp2262
g69
(g90
g71
NtRp2263
(dp2264
g74
(dp2265
g94
g95
ssg83
g2259
sg76
(lp2266
S'global_settings'
p2267
asbag69
(g90
g71
NtRp2268
(dp2269
g74
(dp2270
g101
g102
ssg83
g2259
sg76
(lp2271
S':'
asbag69
(g90
g71
NtRp2272
(dp2273
g74
(dp2274
sg83
g2259
sg76
(lp2275
g69
(g70
g71
NtRp2276
(dp2277
g74
(dp2278
g82
I5
ssg83
g2272
sg76
(lp2279
g69
(g78
g71
NtRp2280
(dp2281
g74
(dp2282
g82
I4
ssg83
Nsg76
(lp2283
g69
(g85
g71
NtRp2284
(dp2285
g74
(dp2286
sg83
g2280
sg76
(lp2287
g69
(g90
g71
NtRp2288
(dp2289
g74
(dp2290
g94
g95
ssg83
g2284
sg76
(lp2291
g1057
asbag69
(g90
g71
NtRp2292
(dp2293
g74
(dp2294
g101
g102
ssg83
g2284
sg76
(lp2295
S':'
asbag69
(g90
g71
NtRp2296
(dp2297
g74
(dp2298
sg83
g2284
sg76
(lp2299
g69
(g70
g71
NtRp2300
(dp2301
g74
(dp2302
g82
I4
ssg83
g2296
sg76
(lp2303
S"set(['/home/urvashi/Desktop/WEB2PY/web2py/applications/admin/', '/home/urvashi/Desktop/WEB2PY/web2py/applications/welcome/', '/home/urvashi/Desktop/WEB2PY/web2py/applications/GoGreen_Motors_2/', '/home/urvashi/Desktop/WEB2PY/web2py/applications/GoGreen_Motors/'])"
p2304
asbasbasbag69
(g85
g71
NtRp2305
(dp2306
g74
(dp2307
sg83
g2280
sg76
(lp2308
g69
(g90
g71
NtRp2309
(dp2310
g74
(dp2311
g94
g95
ssg83
g2305
sg76
(lp2312
g1079
asbag69
(g90
g71
NtRp2313
(dp2314
g74
(dp2315
g101
g102
ssg83
g2305
sg76
(lp2316
S':'
asbag69
(g90
g71
NtRp2317
(dp2318
g74
(dp2319
sg83
g2305
sg76
(lp2320
g69
(g70
g71
NtRp2321
(dp2322
g74
(dp2323
g82
I4
ssg83
g2317
sg76
(lp2324
g1092
asbasbasbag69
(g85
g71
NtRp2325
(dp2326
g74
(dp2327
sg83
g2280
sg76
(lp2328
g69
(g90
g71
NtRp2329
(dp2330
g74
(dp2331
g94
g95
ssg83
g2325
sg76
(lp2332
g1101
asbag69
(g90
g71
NtRp2333
(dp2334
g74
(dp2335
g101
g102
ssg83
g2325
sg76
(lp2336
S':'
asbag69
(g90
g71
NtRp2337
(dp2338
g74
(dp2339
sg83
g2325
sg76
(lp2340
g69
(g70
g71
NtRp2341
(dp2342
g74
(dp2343
g82
I4
ssg83
g2337
sg76
(lp2344
g69
(g78
g71
NtRp2345
(dp2346
g74
(dp2347
g82
I3
ssg83
Nsg76
(lp2348
sbasbasbasbag69
(g85
g71
NtRp2349
(dp2350
g74
(dp2351
sg83
g2280
sg76
(lp2352
g69
(g90
g71
NtRp2353
(dp2354
g74
(dp2355
g94
g95
ssg83
g2349
sg76
(lp2356
g1126
asbag69
(g90
g71
NtRp2357
(dp2358
g74
(dp2359
g101
g102
ssg83
g2349
sg76
(lp2360
S':'
asbag69
(g90
g71
NtRp2361
(dp2362
g74
(dp2363
sg83
g2349
sg76
(lp2364
g69
(g70
g71
NtRp2365
(dp2366
g74
(dp2367
g82
I4
ssg83
g2361
sg76
(lp2368
S"<Values at 0x21632d8: {'verbose': False, 'ip': '127.0.0.1', 'with_scheduler': False, 'ips': [], 'shutdown_timeout': 5, 'taskbar': False, 'port': 8000, 'maxthreads': None, 'softcron': False, 'server_name': 'urvashi-VPCEH35EN', 'bpython': False, 'nogui': False, 'pid_filename': 'httpserver.pid', 'extcron': False, 'runcron': False, 'run_system_tests': False, 'test': None, 'folder': '/home/urvashi/Desktop/WEB2PY/web2py', 'config': '', 'minthreads': None, 'winservice': '', 'shell': None, 'run': '', 'log_filename': 'httpserver.log', 'debuglevel': 30, 'args': [''], 'socket_timeout': 5, 'ssl_ca_certificate': None, 'scheduler': None, 'profiler_filename': None, 'ssl_private_key': '', 'scheduler_groups': None, 'password': '123', 'request_queue_size': 5, 'ssl_certificate': '', 'cronjob': False, 'numthreads': None, 'quiet': False, 'interfaces': None, 'import_models': False, 'timeout': 10, 'plain': False, 'nobanner': False}>"
p2369
asbasbasbag69
(g85
g71
NtRp2370
(dp2371
g74
(dp2372
sg83
g2280
sg76
(lp2373
g69
(g90
g71
NtRp2374
(dp2375
g74
(dp2376
g94
g95
ssg83
g2370
sg76
(lp2377
g1192
asbag69
(g90
g71
NtRp2378
(dp2379
g74
(dp2380
g101
g102
ssg83
g2370
sg76
(lp2381
S':'
asbag69
(g90
g71
NtRp2382
(dp2383
g74
(dp2384
sg83
g2370
sg76
(lp2385
g69
(g70
g71
NtRp2386
(dp2387
g74
(dp2388
g82
I4
ssg83
g2382
sg76
(lp2389
S'set([])'
p2390
asbasbasbag69
(g85
g71
NtRp2391
(dp2392
g74
(dp2393
sg83
g2280
sg76
(lp2394
g69
(g90
g71
NtRp2395
(dp2396
g74
(dp2397
g94
g95
ssg83
g2391
sg76
(lp2398
g1214
asbag69
(g90
g71
NtRp2399
(dp2400
g74
(dp2401
g101
g102
ssg83
g2391
sg76
(lp2402
S':'
asbag69
(g90
g71
NtRp2403
(dp2404
g74
(dp2405
sg83
g2391
sg76
(lp2406
g69
(g70
g71
NtRp2407
(dp2408
g74
(dp2409
g82
I4
ssg83
g2403
sg76
(lp2410
g112
asbasbasbag69
(g85
g71
NtRp2411
(dp2412
g74
(dp2413
sg83
g2280
sg76
(lp2414
g69
(g90
g71
NtRp2415
(dp2416
g74
(dp2417
g94
g95
ssg83
g2411
sg76
(lp2418
g1235
asbag69
(g90
g71
NtRp2419
(dp2420
g74
(dp2421
g101
g102
ssg83
g2411
sg76
(lp2422
S':'
asbag69
(g90
g71
NtRp2423
(dp2424
g74
(dp2425
sg83
g2411
sg76
(lp2426
g69
(g70
g71
NtRp2427
(dp2428
g74
(dp2429
g82
I4
ssg83
g2423
sg76
(lp2430
g1248
asbasbasbag69
(g85
g71
NtRp2431
(dp2432
g74
(dp2433
sg83
g2280
sg76
(lp2434
g69
(g90
g71
NtRp2435
(dp2436
g74
(dp2437
g94
g95
ssg83
g2431
sg76
(lp2438
g1497
asbag69
(g90
g71
NtRp2439
(dp2440
g74
(dp2441
g101
g102
ssg83
g2431
sg76
(lp2442
S':'
asbag69
(g90
g71
NtRp2443
(dp2444
g74
(dp2445
sg83
g2431
sg76
(lp2446
g69
(g70
g71
NtRp2447
(dp2448
g74
(dp2449
g82
I4
ssg83
g2443
sg76
(lp2450
g112
asbasbasbag69
(g85
g71
NtRp2451
(dp2452
g74
(dp2453
sg83
g2280
sg76
(lp2454
g69
(g90
g71
NtRp2455
(dp2456
g74
(dp2457
g94
g95
ssg83
g2451
sg76
(lp2458
g1518
asbag69
(g90
g71
NtRp2459
(dp2460
g74
(dp2461
g101
g102
ssg83
g2451
sg76
(lp2462
S':'
asbag69
(g90
g71
NtRp2463
(dp2464
g74
(dp2465
sg83
g2451
sg76
(lp2466
g69
(g70
g71
NtRp2467
(dp2468
g74
(dp2469
g82
I4
ssg83
g2463
sg76
(lp2470
g112
asbasbasbag69
(g85
g71
NtRp2471
(dp2472
g74
(dp2473
sg83
g2280
sg76
(lp2474
g69
(g90
g71
NtRp2475
(dp2476
g74
(dp2477
g94
g95
ssg83
g2471
sg76
(lp2478
g1539
asbag69
(g90
g71
NtRp2479
(dp2480
g74
(dp2481
g101
g102
ssg83
g2471
sg76
(lp2482
S':'
asbag69
(g90
g71
NtRp2483
(dp2484
g74
(dp2485
sg83
g2471
sg76
(lp2486
g69
(g70
g71
NtRp2487
(dp2488
g74
(dp2489
g82
I4
ssg83
g2483
sg76
(lp2490
g69
(g78
g71
NtRp2491
(dp2492
g74
(dp2493
g82
I3
ssg83
Nsg76
(lp2494
g69
(g85
g71
NtRp2495
(dp2496
g74
(dp2497
sg83
g2491
sg76
(lp2498
g69
(g90
g71
NtRp2499
(dp2500
g74
(dp2501
sg83
g2495
sg76
(lp2502
g69
(g70
g71
NtRp2503
(dp2504
g74
(dp2505
g82
I3
ssg83
g2499
sg76
(lp2506
g1568
asbasbasbag69
(g85
g71
NtRp2507
(dp2508
g74
(dp2509
sg83
g2491
sg76
(lp2510
g69
(g90
g71
NtRp2511
(dp2512
g74
(dp2513
sg83
g2507
sg76
(lp2514
g69
(g70
g71
NtRp2515
(dp2516
g74
(dp2517
g82
I3
ssg83
g2511
sg76
(lp2518
g1581
asbasbasbag69
(g85
g71
NtRp2519
(dp2520
g74
(dp2521
sg83
g2491
sg76
(lp2522
g69
(g90
g71
NtRp2523
(dp2524
g74
(dp2525
sg83
g2519
sg76
(lp2526
g69
(g70
g71
NtRp2527
(dp2528
g74
(dp2529
g82
I3
ssg83
g2523
sg76
(lp2530
g1594
asbasbasbag69
(g85
g71
NtRp2531
(dp2532
g74
(dp2533
sg83
g2491
sg76
(lp2534
g69
(g90
g71
NtRp2535
(dp2536
g74
(dp2537
sg83
g2531
sg76
(lp2538
g69
(g70
g71
NtRp2539
(dp2540
g74
(dp2541
g82
I3
ssg83
g2535
sg76
(lp2542
g1607
asbasbasbag69
(g85
g71
NtRp2543
(dp2544
g74
(dp2545
sg83
g2491
sg76
(lp2546
g69
(g90
g71
NtRp2547
(dp2548
g74
(dp2549
sg83
g2543
sg76
(lp2550
g69
(g70
g71
NtRp2551
(dp2552
g74
(dp2553
g82
I3
ssg83
g2547
sg76
(lp2554
g1620
asbasbasbasbasbasbasbag69
(g85
g71
NtRp2555
(dp2556
g74
(dp2557
sg83
g2280
sg76
(lp2558
g69
(g90
g71
NtRp2559
(dp2560
g74
(dp2561
g94
g95
ssg83
g2555
sg76
(lp2562
g1888
asbag69
(g90
g71
NtRp2563
(dp2564
g74
(dp2565
g101
g102
ssg83
g2555
sg76
(lp2566
S':'
asbag69
(g90
g71
NtRp2567
(dp2568
g74
(dp2569
sg83
g2555
sg76
(lp2570
g69
(g70
g71
NtRp2571
(dp2572
g74
(dp2573
g82
I4
ssg83
g2567
sg76
(lp2574
g69
(g78
g71
NtRp2575
(dp2576
g74
(dp2577
g82
I3
ssg83
Nsg76
(lp2578
g69
(g85
g71
NtRp2579
(dp2580
g74
(dp2581
sg83
g2575
sg76
(lp2582
g69
(g90
g71
NtRp2583
(dp2584
g74
(dp2585
sg83
g2579
sg76
(lp2586
g69
(g70
g71
NtRp2587
(dp2588
g74
(dp2589
g82
I3
ssg83
g2583
sg76
(lp2590
S'2'
asbasbasbag69
(g85
g71
NtRp2591
(dp2592
g74
(dp2593
sg83
g2575
sg76
(lp2594
g69
(g90
g71
NtRp2595
(dp2596
g74
(dp2597
sg83
g2591
sg76
(lp2598
g69
(g70
g71
NtRp2599
(dp2600
g74
(dp2601
g82
I3
ssg83
g2595
sg76
(lp2602
S'3'
asbasbasbag69
(g85
g71
NtRp2603
(dp2604
g74
(dp2605
sg83
g2575
sg76
(lp2606
g69
(g90
g71
NtRp2607
(dp2608
g74
(dp2609
sg83
g2603
sg76
(lp2610
g69
(g70
g71
NtRp2611
(dp2612
g74
(dp2613
g82
I3
ssg83
g2607
sg76
(lp2614
S'2'
asbasbasbag69
(g85
g71
NtRp2615
(dp2616
g74
(dp2617
sg83
g2575
sg76
(lp2618
g69
(g90
g71
NtRp2619
(dp2620
g74
(dp2621
sg83
g2615
sg76
(lp2622
g69
(g70
g71
NtRp2623
(dp2624
g74
(dp2625
g82
I3
ssg83
g2619
sg76
(lp2626
S'datetime.datetime(2012, 12, 17, 15, 3, 30)'
p2627
asbasbasbag69
(g85
g71
NtRp2628
(dp2629
g74
(dp2630
sg83
g2575
sg76
(lp2631
g69
(g90
g71
NtRp2632
(dp2633
g74
(dp2634
sg83
g2628
sg76
(lp2635
g69
(g70
g71
NtRp2636
(dp2637
g74
(dp2638
g82
I3
ssg83
g2632
sg76
(lp2639
g1966
asbasbasbasbasbasbasbasbasbasbasbag69
(g85
g71
NtRp2640
(dp2641
g74
(dp2642
sg83
g79
sg76
(lp2643
g69
(g90
g71
NtRp2644
(dp2645
g74
(dp2646
g94
g95
ssg83
g2640
sg76
(lp2647
S'is_https'
p2648
asbag69
(g90
g71
NtRp2649
(dp2650
g74
(dp2651
g101
g102
ssg83
g2640
sg76
(lp2652
S':'
asbag69
(g90
g71
NtRp2653
(dp2654
g74
(dp2655
sg83
g2640
sg76
(lp2656
g69
(g70
g71
NtRp2657
(dp2658
g74
(dp2659
g82
I5
ssg83
g2653
sg76
(lp2660
g112
asbasbasbag69
(g85
g71
NtRp2661
(dp2662
g74
(dp2663
sg83
g79
sg76
(lp2664
g69
(g90
g71
NtRp2665
(dp2666
g74
(dp2667
g94
g95
ssg83
g2661
sg76
(lp2668
S'is_local'
p2669
asbag69
(g90
g71
NtRp2670
(dp2671
g74
(dp2672
g101
g102
ssg83
g2661
sg76
(lp2673
S':'
asbag69
(g90
g71
NtRp2674
(dp2675
g74
(dp2676
sg83
g2661
sg76
(lp2677
g69
(g70
g71
NtRp2678
(dp2679
g74
(dp2680
g82
I5
ssg83
g2674
sg76
(lp2681
g2075
asbasbasbag69
(g85
g71
NtRp2682
(dp2683
g74
(dp2684
sg83
g79
sg76
(lp2685
g69
(g90
g71
NtRp2686
(dp2687
g74
(dp2688
g94
g95
ssg83
g2682
sg76
(lp2689
S'is_restful'
p2690
asbag69
(g90
g71
NtRp2691
(dp2692
g74
(dp2693
g101
g102
ssg83
g2682
sg76
(lp2694
S':'
asbag69
(g90
g71
NtRp2695
(dp2696
g74
(dp2697
sg83
g2682
sg76
(lp2698
g69
(g70
g71
NtRp2699
(dp2700
g74
(dp2701
g82
I5
ssg83
g2695
sg76
(lp2702
g112
asbasbasbag69
(g85
g71
NtRp2703
(dp2704
g74
(dp2705
sg83
g79
sg76
(lp2706
g69
(g90
g71
NtRp2707
(dp2708
g74
(dp2709
g94
g95
ssg83
g2703
sg76
(lp2710
S'now'
p2711
asbag69
(g90
g71
NtRp2712
(dp2713
g74
(dp2714
g101
g102
ssg83
g2703
sg76
(lp2715
S':'
asbag69
(g90
g71
NtRp2716
(dp2717
g74
(dp2718
sg83
g2703
sg76
(lp2719
g69
(g70
g71
NtRp2720
(dp2721
g74
(dp2722
g82
I5
ssg83
g2716
sg76
(lp2723
S'datetime.datetime(2013, 10, 21, 21, 26, 45, 932371)'
p2724
asbasbasbag69
(g85
g71
NtRp2725
(dp2726
g74
(dp2727
sg83
g79
sg76
(lp2728
g69
(g90
g71
NtRp2729
(dp2730
g74
(dp2731
g94
g95
ssg83
g2725
sg76
(lp2732
S'post_vars'
p2733
asbag69
(g90
g71
NtRp2734
(dp2735
g74
(dp2736
g101
g102
ssg83
g2725
sg76
(lp2737
S':'
asbag69
(g90
g71
NtRp2738
(dp2739
g74
(dp2740
sg83
g2725
sg76
(lp2741
g69
(g70
g71
NtRp2742
(dp2743
g74
(dp2744
g82
I5
ssg83
g2738
sg76
(lp2745
g69
(g78
g71
NtRp2746
(dp2747
g74
(dp2748
g82
I4
ssg83
Nsg76
(lp2749
g69
(g85
g71
NtRp2750
(dp2751
g74
(dp2752
sg83
g2746
sg76
(lp2753
g69
(g90
g71
NtRp2754
(dp2755
g74
(dp2756
g94
g95
ssg83
g2750
sg76
(lp2757
S'Customer_ID'
p2758
asbag69
(g90
g71
NtRp2759
(dp2760
g74
(dp2761
g101
g102
ssg83
g2750
sg76
(lp2762
S':'
asbag69
(g90
g71
NtRp2763
(dp2764
g74
(dp2765
sg83
g2750
sg76
(lp2766
g69
(g70
g71
NtRp2767
(dp2768
g74
(dp2769
g82
I4
ssg83
g2763
sg76
(lp2770
S'1'
asbasbasbag69
(g85
g71
NtRp2771
(dp2772
g74
(dp2773
sg83
g2746
sg76
(lp2774
g69
(g90
g71
NtRp2775
(dp2776
g74
(dp2777
g94
g95
ssg83
g2771
sg76
(lp2778
S'Date'
p2779
asbag69
(g90
g71
NtRp2780
(dp2781
g74
(dp2782
g101
g102
ssg83
g2771
sg76
(lp2783
S':'
asbag69
(g90
g71
NtRp2784
(dp2785
g74
(dp2786
sg83
g2771
sg76
(lp2787
g69
(g70
g71
NtRp2788
(dp2789
g74
(dp2790
g82
I4
ssg83
g2784
sg76
(lp2791
S'2013-10-21'
p2792
asbasbasbag69
(g85
g71
NtRp2793
(dp2794
g74
(dp2795
sg83
g2746
sg76
(lp2796
g69
(g90
g71
NtRp2797
(dp2798
g74
(dp2799
g94
g95
ssg83
g2793
sg76
(lp2800
S'Model_no'
p2801
asbag69
(g90
g71
NtRp2802
(dp2803
g74
(dp2804
g101
g102
ssg83
g2793
sg76
(lp2805
S':'
asbag69
(g90
g71
NtRp2806
(dp2807
g74
(dp2808
sg83
g2793
sg76
(lp2809
g69
(g70
g71
NtRp2810
(dp2811
g74
(dp2812
g82
I4
ssg83
g2806
sg76
(lp2813
S'1'
asbasbasbag69
(g85
g71
NtRp2814
(dp2815
g74
(dp2816
sg83
g2746
sg76
(lp2817
g69
(g90
g71
NtRp2818
(dp2819
g74
(dp2820
g94
g95
ssg83
g2814
sg76
(lp2821
S'Waiting_list_no'
p2822
asbag69
(g90
g71
NtRp2823
(dp2824
g74
(dp2825
g101
g102
ssg83
g2814
sg76
(lp2826
S':'
asbag69
(g90
g71
NtRp2827
(dp2828
g74
(dp2829
sg83
g2814
sg76
(lp2830
g69
(g70
g71
NtRp2831
(dp2832
g74
(dp2833
g82
I4
ssg83
g2827
sg76
(lp2834
S'1'
asbasbasbasbasbasbasbag69
(g85
g71
NtRp2835
(dp2836
g74
(dp2837
sg83
g79
sg76
(lp2838
g69
(g90
g71
NtRp2839
(dp2840
g74
(dp2841
g94
g95
ssg83
g2835
sg76
(lp2842
S'raw_args'
p2843
asbag69
(g90
g71
NtRp2844
(dp2845
g74
(dp2846
g101
g102
ssg83
g2835
sg76
(lp2847
S':'
asbag69
(g90
g71
NtRp2848
(dp2849
g74
(dp2850
sg83
g2835
sg76
(lp2851
g69
(g70
g71
NtRp2852
(dp2853
g74
(dp2854
g82
I5
ssg83
g2848
sg76
(lp2855
S''
asbasbasbag69
(g85
g71
NtRp2856
(dp2857
g74
(dp2858
sg83
g79
sg76
(lp2859
g69
(g90
g71
NtRp2860
(dp2861
g74
(dp2862
g94
g95
ssg83
g2856
sg76
(lp2863
S'raw_extension'
p2864
asbag69
(g90
g71
NtRp2865
(dp2866
g74
(dp2867
g101
g102
ssg83
g2856
sg76
(lp2868
S':'
asbag69
(g90
g71
NtRp2869
(dp2870
g74
(dp2871
sg83
g2856
sg76
(lp2872
g69
(g70
g71
NtRp2873
(dp2874
g74
(dp2875
g82
I5
ssg83
g2869
sg76
(lp2876
S'None'
p2877
asbasbasbag69
(g85
g71
NtRp2878
(dp2879
g74
(dp2880
sg83
g79
sg76
(lp2881
g69
(g90
g71
NtRp2882
(dp2883
g74
(dp2884
g94
g95
ssg83
g2878
sg76
(lp2885
S'url'
p2886
asbag69
(g90
g71
NtRp2887
(dp2888
g74
(dp2889
g101
g102
ssg83
g2878
sg76
(lp2890
S':'
asbag69
(g90
g71
NtRp2891
(dp2892
g74
(dp2893
sg83
g2878
sg76
(lp2894
g69
(g70
g71
NtRp2895
(dp2896
g74
(dp2897
g82
I5
ssg83
g2891
sg76
(lp2898
g1642
asbasbasbag69
(g85
g71
NtRp2899
(dp2900
g74
(dp2901
sg83
g79
sg76
(lp2902
g69
(g90
g71
NtRp2903
(dp2904
g74
(dp2905
g94
g95
ssg83
g2899
sg76
(lp2906
S'utcnow'
p2907
asbag69
(g90
g71
NtRp2908
(dp2909
g74
(dp2910
g101
g102
ssg83
g2899
sg76
(lp2911
S':'
asbag69
(g90
g71
NtRp2912
(dp2913
g74
(dp2914
sg83
g2899
sg76
(lp2915
g69
(g70
g71
NtRp2916
(dp2917
g74
(dp2918
g82
I5
ssg83
g2912
sg76
(lp2919
S'datetime.datetime(2013, 10, 21, 15, 56, 45, 932431)'
p2920
asbasbasbag69
(g85
g71
NtRp2921
(dp2922
g74
(dp2923
sg83
g79
sg76
(lp2924
g69
(g90
g71
NtRp2925
(dp2926
g74
(dp2927
g94
g95
ssg83
g2921
sg76
(lp2928
S'uuid'
p2929
asbag69
(g90
g71
NtRp2930
(dp2931
g74
(dp2932
g101
g102
ssg83
g2921
sg76
(lp2933
S':'
asbag69
(g90
g71
NtRp2934
(dp2935
g74
(dp2936
sg83
g2921
sg76
(lp2937
g69
(g70
g71
NtRp2938
(dp2939
g74
(dp2940
g82
I5
ssg83
g2934
sg76
(lp2941
S'GoGreen_Motors_2/127.0.0.1.2013-10-21.21-26-45.79ffff60-6f8a-4fe5-9296-0f92bba98d43'
p2942
asbasbasbag69
(g85
g71
NtRp2943
(dp2944
g74
(dp2945
sg83
g79
sg76
(lp2946
g69
(g90
g71
NtRp2947
(dp2948
g74
(dp2949
g94
g95
ssg83
g2943
sg76
(lp2950
S'vars'
p2951
asbag69
(g90
g71
NtRp2952
(dp2953
g74
(dp2954
g101
g102
ssg83
g2943
sg76
(lp2955
S':'
asbag69
(g90
g71
NtRp2956
(dp2957
g74
(dp2958
sg83
g2943
sg76
(lp2959
g69
(g70
g71
NtRp2960
(dp2961
g74
(dp2962
g82
I5
ssg83
g2956
sg76
(lp2963
g69
(g78
g71
NtRp2964
(dp2965
g74
(dp2966
g82
I4
ssg83
Nsg76
(lp2967
g69
(g85
g71
NtRp2968
(dp2969
g74
(dp2970
sg83
g2964
sg76
(lp2971
g69
(g90
g71
NtRp2972
(dp2973
g74
(dp2974
g94
g95
ssg83
g2968
sg76
(lp2975
g2758
asbag69
(g90
g71
NtRp2976
(dp2977
g74
(dp2978
g101
g102
ssg83
g2968
sg76
(lp2979
S':'
asbag69
(g90
g71
NtRp2980
(dp2981
g74
(dp2982
sg83
g2968
sg76
(lp2983
g69
(g70
g71
NtRp2984
(dp2985
g74
(dp2986
g82
I4
ssg83
g2980
sg76
(lp2987
S'1'
asbasbasbag69
(g85
g71
NtRp2988
(dp2989
g74
(dp2990
sg83
g2964
sg76
(lp2991
g69
(g90
g71
NtRp2992
(dp2993
g74
(dp2994
g94
g95
ssg83
g2988
sg76
(lp2995
g2779
asbag69
(g90
g71
NtRp2996
(dp2997
g74
(dp2998
g101
g102
ssg83
g2988
sg76
(lp2999
S':'
asbag69
(g90
g71
NtRp3000
(dp3001
g74
(dp3002
sg83
g2988
sg76
(lp3003
g69
(g70
g71
NtRp3004
(dp3005
g74
(dp3006
g82
I4
ssg83
g3000
sg76
(lp3007
g2792
asbasbasbag69
(g85
g71
NtRp3008
(dp3009
g74
(dp3010
sg83
g2964
sg76
(lp3011
g69
(g90
g71
NtRp3012
(dp3013
g74
(dp3014
g94
g95
ssg83
g3008
sg76
(lp3015
g2801
asbag69
(g90
g71
NtRp3016
(dp3017
g74
(dp3018
g101
g102
ssg83
g3008
sg76
(lp3019
S':'
asbag69
(g90
g71
NtRp3020
(dp3021
g74
(dp3022
sg83
g3008
sg76
(lp3023
g69
(g70
g71
NtRp3024
(dp3025
g74
(dp3026
g82
I4
ssg83
g3020
sg76
(lp3027
S'1'
asbasbasbag69
(g85
g71
NtRp3028
(dp3029
g74
(dp3030
sg83
g2964
sg76
(lp3031
g69
(g90
g71
NtRp3032
(dp3033
g74
(dp3034
g94
g95
ssg83
g3028
sg76
(lp3035
g2822
asbag69
(g90
g71
NtRp3036
(dp3037
g74
(dp3038
g101
g102
ssg83
g3028
sg76
(lp3039
S':'
asbag69
(g90
g71
NtRp3040
(dp3041
g74
(dp3042
sg83
g3028
sg76
(lp3043
g69
(g70
g71
NtRp3044
(dp3045
g74
(dp3046
g82
I4
ssg83
g3040
sg76
(lp3047
S'1'
asbasbasbasbasbasbasbag69
(g85
g71
NtRp3048
(dp3049
g74
(dp3050
sg83
g79
sg76
(lp3051
g69
(g90
g71
NtRp3052
(dp3053
g74
(dp3054
g94
g95
ssg83
g3048
sg76
(lp3055
S'wsgi'
p3056
asbag69
(g90
g71
NtRp3057
(dp3058
g74
(dp3059
g101
g102
ssg83
g3048
sg76
(lp3060
S':'
asbag69
(g90
g71
NtRp3061
(dp3062
g74
(dp3063
sg83
g3048
sg76
(lp3064
g69
(g70
g71
NtRp3065
(dp3066
g74
(dp3067
g82
I5
ssg83
g3061
sg76
(lp3068
g69
(g78
g71
NtRp3069
(dp3070
g74
(dp3071
g82
I4
ssg83
Nsg76
(lp3072
g69
(g85
g71
NtRp3073
(dp3074
g74
(dp3075
sg83
g3069
sg76
(lp3076
g69
(g90
g71
NtRp3077
(dp3078
g74
(dp3079
g94
g95
ssg83
g3073
sg76
(lp3080
S'environ'
p3081
asbag69
(g90
g71
NtRp3082
(dp3083
g74
(dp3084
g101
g102
ssg83
g3073
sg76
(lp3085
S':'
asbag69
(g90
g71
NtRp3086
(dp3087
g74
(dp3088
sg83
g3073
sg76
(lp3089
g69
(g70
g71
NtRp3090
(dp3091
g74
(dp3092
g82
I4
ssg83
g3086
sg76
(lp3093
g69
(g78
g71
NtRp3094
(dp3095
g74
(dp3096
g82
I3
ssg83
Nsg76
(lp3097
g69
(g85
g71
NtRp3098
(dp3099
g74
(dp3100
sg83
g3094
sg76
(lp3101
g69
(g90
g71
NtRp3102
(dp3103
g74
(dp3104
g94
g95
ssg83
g3098
sg76
(lp3105
S'CONTENT_LENGTH'
p3106
asbag69
(g90
g71
NtRp3107
(dp3108
g74
(dp3109
g101
g102
ssg83
g3098
sg76
(lp3110
S':'
asbag69
(g90
g71
NtRp3111
(dp3112
g74
(dp3113
sg83
g3098
sg76
(lp3114
g69
(g70
g71
NtRp3115
(dp3116
g74
(dp3117
g82
I3
ssg83
g3111
sg76
(lp3118
g1161
asbasbasbag69
(g85
g71
NtRp3119
(dp3120
g74
(dp3121
sg83
g3094
sg76
(lp3122
g69
(g90
g71
NtRp3123
(dp3124
g74
(dp3125
g94
g95
ssg83
g3119
sg76
(lp3126
S'CONTENT_TYPE'
p3127
asbag69
(g90
g71
NtRp3128
(dp3129
g74
(dp3130
g101
g102
ssg83
g3119
sg76
(lp3131
S':'
asbag69
(g90
g71
NtRp3132
(dp3133
g74
(dp3134
sg83
g3119
sg76
(lp3135
g69
(g70
g71
NtRp3136
(dp3137
g74
(dp3138
g82
I3
ssg83
g3132
sg76
(lp3139
g1183
asbasbasbag69
(g85
g71
NtRp3140
(dp3141
g74
(dp3142
sg83
g3094
sg76
(lp3143
g69
(g90
g71
NtRp3144
(dp3145
g74
(dp3146
g94
g95
ssg83
g3140
sg76
(lp3147
S'HTTP_ACCEPT'
p3148
asbag69
(g90
g71
NtRp3149
(dp3150
g74
(dp3151
g101
g102
ssg83
g3140
sg76
(lp3152
S':'
asbag69
(g90
g71
NtRp3153
(dp3154
g74
(dp3155
sg83
g3140
sg76
(lp3156
g69
(g70
g71
NtRp3157
(dp3158
g74
(dp3159
g82
I3
ssg83
g3153
sg76
(lp3160
g1270
asbasbasbag69
(g85
g71
NtRp3161
(dp3162
g74
(dp3163
sg83
g3094
sg76
(lp3164
g69
(g90
g71
NtRp3165
(dp3166
g74
(dp3167
g94
g95
ssg83
g3161
sg76
(lp3168
S'HTTP_ACCEPT_ENCODING'
p3169
asbag69
(g90
g71
NtRp3170
(dp3171
g74
(dp3172
g101
g102
ssg83
g3161
sg76
(lp3173
S':'
asbag69
(g90
g71
NtRp3174
(dp3175
g74
(dp3176
sg83
g3161
sg76
(lp3177
g69
(g70
g71
NtRp3178
(dp3179
g74
(dp3180
g82
I3
ssg83
g3174
sg76
(lp3181
g1292
asbasbasbag69
(g85
g71
NtRp3182
(dp3183
g74
(dp3184
sg83
g3094
sg76
(lp3185
g69
(g90
g71
NtRp3186
(dp3187
g74
(dp3188
g94
g95
ssg83
g3182
sg76
(lp3189
S'HTTP_ACCEPT_LANGUAGE'
p3190
asbag69
(g90
g71
NtRp3191
(dp3192
g74
(dp3193
g101
g102
ssg83
g3182
sg76
(lp3194
S':'
asbag69
(g90
g71
NtRp3195
(dp3196
g74
(dp3197
sg83
g3182
sg76
(lp3198
g69
(g70
g71
NtRp3199
(dp3200
g74
(dp3201
g82
I3
ssg83
g3195
sg76
(lp3202
g1314
asbasbasbag69
(g85
g71
NtRp3203
(dp3204
g74
(dp3205
sg83
g3094
sg76
(lp3206
g69
(g90
g71
NtRp3207
(dp3208
g74
(dp3209
g94
g95
ssg83
g3203
sg76
(lp3210
S'HTTP_CACHE_CONTROL'
p3211
asbag69
(g90
g71
NtRp3212
(dp3213
g74
(dp3214
g101
g102
ssg83
g3203
sg76
(lp3215
S':'
asbag69
(g90
g71
NtRp3216
(dp3217
g74
(dp3218
sg83
g3203
sg76
(lp3219
g69
(g70
g71
NtRp3220
(dp3221
g74
(dp3222
g82
I3
ssg83
g3216
sg76
(lp3223
g1336
asbasbasbag69
(g85
g71
NtRp3224
(dp3225
g74
(dp3226
sg83
g3094
sg76
(lp3227
g69
(g90
g71
NtRp3228
(dp3229
g74
(dp3230
g94
g95
ssg83
g3224
sg76
(lp3231
S'HTTP_CONNECTION'
p3232
asbag69
(g90
g71
NtRp3233
(dp3234
g74
(dp3235
g101
g102
ssg83
g3224
sg76
(lp3236
S':'
asbag69
(g90
g71
NtRp3237
(dp3238
g74
(dp3239
sg83
g3224
sg76
(lp3240
g69
(g70
g71
NtRp3241
(dp3242
g74
(dp3243
g82
I3
ssg83
g3237
sg76
(lp3244
g1358
asbasbasbag69
(g85
g71
NtRp3245
(dp3246
g74
(dp3247
sg83
g3094
sg76
(lp3248
g69
(g90
g71
NtRp3249
(dp3250
g74
(dp3251
g94
g95
ssg83
g3245
sg76
(lp3252
S'HTTP_CONTENT_LENGTH'
p3253
asbag69
(g90
g71
NtRp3254
(dp3255
g74
(dp3256
g101
g102
ssg83
g3245
sg76
(lp3257
S':'
asbag69
(g90
g71
NtRp3258
(dp3259
g74
(dp3260
sg83
g3245
sg76
(lp3261
g69
(g70
g71
NtRp3262
(dp3263
g74
(dp3264
g82
I3
ssg83
g3258
sg76
(lp3265
g1161
asbasbasbag69
(g85
g71
NtRp3266
(dp3267
g74
(dp3268
sg83
g3094
sg76
(lp3269
g69
(g90
g71
NtRp3270
(dp3271
g74
(dp3272
g94
g95
ssg83
g3266
sg76
(lp3273
S'HTTP_CONTENT_TYPE'
p3274
asbag69
(g90
g71
NtRp3275
(dp3276
g74
(dp3277
g101
g102
ssg83
g3266
sg76
(lp3278
S':'
asbag69
(g90
g71
NtRp3279
(dp3280
g74
(dp3281
sg83
g3266
sg76
(lp3282
g69
(g70
g71
NtRp3283
(dp3284
g74
(dp3285
g82
I3
ssg83
g3279
sg76
(lp3286
g1183
asbasbasbag69
(g85
g71
NtRp3287
(dp3288
g74
(dp3289
sg83
g3094
sg76
(lp3290
g69
(g90
g71
NtRp3291
(dp3292
g74
(dp3293
g94
g95
ssg83
g3287
sg76
(lp3294
S'HTTP_COOKIE'
p3295
asbag69
(g90
g71
NtRp3296
(dp3297
g74
(dp3298
g101
g102
ssg83
g3287
sg76
(lp3299
S':'
asbag69
(g90
g71
NtRp3300
(dp3301
g74
(dp3302
sg83
g3287
sg76
(lp3303
g69
(g70
g71
NtRp3304
(dp3305
g74
(dp3306
g82
I3
ssg83
g3300
sg76
(lp3307
g1422
asbasbasbag69
(g85
g71
NtRp3308
(dp3309
g74
(dp3310
sg83
g3094
sg76
(lp3311
g69
(g90
g71
NtRp3312
(dp3313
g74
(dp3314
g94
g95
ssg83
g3308
sg76
(lp3315
S'HTTP_HOST'
p3316
asbag69
(g90
g71
NtRp3317
(dp3318
g74
(dp3319
g101
g102
ssg83
g3308
sg76
(lp3320
S':'
asbag69
(g90
g71
NtRp3321
(dp3322
g74
(dp3323
sg83
g3308
sg76
(lp3324
g69
(g70
g71
NtRp3325
(dp3326
g74
(dp3327
g82
I3
ssg83
g3321
sg76
(lp3328
g1444
asbasbasbag69
(g85
g71
NtRp3329
(dp3330
g74
(dp3331
sg83
g3094
sg76
(lp3332
g69
(g90
g71
NtRp3333
(dp3334
g74
(dp3335
g94
g95
ssg83
g3329
sg76
(lp3336
S'HTTP_REFERER'
p3337
asbag69
(g90
g71
NtRp3338
(dp3339
g74
(dp3340
g101
g102
ssg83
g3329
sg76
(lp3341
S':'
asbag69
(g90
g71
NtRp3342
(dp3343
g74
(dp3344
sg83
g3329
sg76
(lp3345
g69
(g70
g71
NtRp3346
(dp3347
g74
(dp3348
g82
I3
ssg83
g3342
sg76
(lp3349
g1466
asbasbasbag69
(g85
g71
NtRp3350
(dp3351
g74
(dp3352
sg83
g3094
sg76
(lp3353
g69
(g90
g71
NtRp3354
(dp3355
g74
(dp3356
g94
g95
ssg83
g3350
sg76
(lp3357
S'HTTP_USER_AGENT'
p3358
asbag69
(g90
g71
NtRp3359
(dp3360
g74
(dp3361
g101
g102
ssg83
g3350
sg76
(lp3362
S':'
asbag69
(g90
g71
NtRp3363
(dp3364
g74
(dp3365
sg83
g3350
sg76
(lp3366
g69
(g70
g71
NtRp3367
(dp3368
g74
(dp3369
g82
I3
ssg83
g3363
sg76
(lp3370
g1488
asbasbasbag69
(g85
g71
NtRp3371
(dp3372
g74
(dp3373
sg83
g3094
sg76
(lp3374
g69
(g90
g71
NtRp3375
(dp3376
g74
(dp3377
g94
g95
ssg83
g3371
sg76
(lp3378
S'PATH_INFO'
p3379
asbag69
(g90
g71
NtRp3380
(dp3381
g74
(dp3382
g101
g102
ssg83
g3371
sg76
(lp3383
S':'
asbag69
(g90
g71
NtRp3384
(dp3385
g74
(dp3386
sg83
g3371
sg76
(lp3387
g69
(g70
g71
NtRp3388
(dp3389
g74
(dp3390
g82
I3
ssg83
g3384
sg76
(lp3391
g1642
asbasbasbag69
(g85
g71
NtRp3392
(dp3393
g74
(dp3394
sg83
g3094
sg76
(lp3395
g69
(g90
g71
NtRp3396
(dp3397
g74
(dp3398
g94
g95
ssg83
g3392
sg76
(lp3399
S'QUERY_STRING'
p3400
asbag69
(g90
g71
NtRp3401
(dp3402
g74
(dp3403
g101
g102
ssg83
g3392
sg76
(lp3404
S':'
asbag69
(g90
g71
NtRp3405
(dp3406
g74
(dp3407
sg83
g3392
sg76
(lp3408
g69
(g70
g71
NtRp3409
(dp3410
g74
(dp3411
g82
I3
ssg83
g3405
sg76
(lp3412
S''
asbasbasbag69
(g85
g71
NtRp3413
(dp3414
g74
(dp3415
sg83
g3094
sg76
(lp3416
g69
(g90
g71
NtRp3417
(dp3418
g74
(dp3419
g94
g95
ssg83
g3413
sg76
(lp3420
S'REMOTE_ADDR'
p3421
asbag69
(g90
g71
NtRp3422
(dp3423
g74
(dp3424
g101
g102
ssg83
g3413
sg76
(lp3425
S':'
asbag69
(g90
g71
NtRp3426
(dp3427
g74
(dp3428
sg83
g3413
sg76
(lp3429
g69
(g70
g71
NtRp3430
(dp3431
g74
(dp3432
g82
I3
ssg83
g3426
sg76
(lp3433
g224
asbasbasbag69
(g85
g71
NtRp3434
(dp3435
g74
(dp3436
sg83
g3094
sg76
(lp3437
g69
(g90
g71
NtRp3438
(dp3439
g74
(dp3440
g94
g95
ssg83
g3434
sg76
(lp3441
S'REMOTE_PORT'
p3442
asbag69
(g90
g71
NtRp3443
(dp3444
g74
(dp3445
g101
g102
ssg83
g3434
sg76
(lp3446
S':'
asbag69
(g90
g71
NtRp3447
(dp3448
g74
(dp3449
sg83
g3434
sg76
(lp3450
g69
(g70
g71
NtRp3451
(dp3452
g74
(dp3453
g82
I3
ssg83
g3447
sg76
(lp3454
g1706
asbasbasbag69
(g85
g71
NtRp3455
(dp3456
g74
(dp3457
sg83
g3094
sg76
(lp3458
g69
(g90
g71
NtRp3459
(dp3460
g74
(dp3461
g94
g95
ssg83
g3455
sg76
(lp3462
S'REQUEST_METHOD'
p3463
asbag69
(g90
g71
NtRp3464
(dp3465
g74
(dp3466
g101
g102
ssg83
g3455
sg76
(lp3467
S':'
asbag69
(g90
g71
NtRp3468
(dp3469
g74
(dp3470
sg83
g3455
sg76
(lp3471
g69
(g70
g71
NtRp3472
(dp3473
g74
(dp3474
g82
I3
ssg83
g3468
sg76
(lp3475
g1728
asbasbasbag69
(g85
g71
NtRp3476
(dp3477
g74
(dp3478
sg83
g3094
sg76
(lp3479
g69
(g90
g71
NtRp3480
(dp3481
g74
(dp3482
g94
g95
ssg83
g3476
sg76
(lp3483
S'REQUEST_URI'
p3484
asbag69
(g90
g71
NtRp3485
(dp3486
g74
(dp3487
g101
g102
ssg83
g3476
sg76
(lp3488
S':'
asbag69
(g90
g71
NtRp3489
(dp3490
g74
(dp3491
sg83
g3476
sg76
(lp3492
g69
(g70
g71
NtRp3493
(dp3494
g74
(dp3495
g82
I3
ssg83
g3489
sg76
(lp3496
g1642
asbasbasbag69
(g85
g71
NtRp3497
(dp3498
g74
(dp3499
sg83
g3094
sg76
(lp3500
g69
(g90
g71
NtRp3501
(dp3502
g74
(dp3503
g94
g95
ssg83
g3497
sg76
(lp3504
S'SCRIPT_NAME'
p3505
asbag69
(g90
g71
NtRp3506
(dp3507
g74
(dp3508
g101
g102
ssg83
g3497
sg76
(lp3509
S':'
asbag69
(g90
g71
NtRp3510
(dp3511
g74
(dp3512
sg83
g3497
sg76
(lp3513
g69
(g70
g71
NtRp3514
(dp3515
g74
(dp3516
g82
I3
ssg83
g3510
sg76
(lp3517
S''
asbasbasbag69
(g85
g71
NtRp3518
(dp3519
g74
(dp3520
sg83
g3094
sg76
(lp3521
g69
(g90
g71
NtRp3522
(dp3523
g74
(dp3524
g94
g95
ssg83
g3518
sg76
(lp3525
S'SERVER_NAME'
p3526
asbag69
(g90
g71
NtRp3527
(dp3528
g74
(dp3529
g101
g102
ssg83
g3518
sg76
(lp3530
S':'
asbag69
(g90
g71
NtRp3531
(dp3532
g74
(dp3533
sg83
g3518
sg76
(lp3534
g69
(g70
g71
NtRp3535
(dp3536
g74
(dp3537
g82
I3
ssg83
g3531
sg76
(lp3538
g1792
asbasbasbag69
(g85
g71
NtRp3539
(dp3540
g74
(dp3541
sg83
g3094
sg76
(lp3542
g69
(g90
g71
NtRp3543
(dp3544
g74
(dp3545
g94
g95
ssg83
g3539
sg76
(lp3546
S'SERVER_PORT'
p3547
asbag69
(g90
g71
NtRp3548
(dp3549
g74
(dp3550
g101
g102
ssg83
g3539
sg76
(lp3551
S':'
asbag69
(g90
g71
NtRp3552
(dp3553
g74
(dp3554
sg83
g3539
sg76
(lp3555
g69
(g70
g71
NtRp3556
(dp3557
g74
(dp3558
g82
I3
ssg83
g3552
sg76
(lp3559
g1814
asbasbasbag69
(g85
g71
NtRp3560
(dp3561
g74
(dp3562
sg83
g3094
sg76
(lp3563
g69
(g90
g71
NtRp3564
(dp3565
g74
(dp3566
g94
g95
ssg83
g3560
sg76
(lp3567
S'SERVER_PROTOCOL'
p3568
asbag69
(g90
g71
NtRp3569
(dp3570
g74
(dp3571
g101
g102
ssg83
g3560
sg76
(lp3572
S':'
asbag69
(g90
g71
NtRp3573
(dp3574
g74
(dp3575
sg83
g3560
sg76
(lp3576
g69
(g70
g71
NtRp3577
(dp3578
g74
(dp3579
g82
I3
ssg83
g3573
sg76
(lp3580
g1836
asbasbasbag69
(g85
g71
NtRp3581
(dp3582
g74
(dp3583
sg83
g3094
sg76
(lp3584
g69
(g90
g71
NtRp3585
(dp3586
g74
(dp3587
g94
g95
ssg83
g3581
sg76
(lp3588
S'SERVER_SOFTWARE'
p3589
asbag69
(g90
g71
NtRp3590
(dp3591
g74
(dp3592
g101
g102
ssg83
g3581
sg76
(lp3593
S':'
asbag69
(g90
g71
NtRp3594
(dp3595
g74
(dp3596
sg83
g3581
sg76
(lp3597
g69
(g70
g71
NtRp3598
(dp3599
g74
(dp3600
g82
I3
ssg83
g3594
sg76
(lp3601
g1858
asbasbasbag69
(g85
g71
NtRp3602
(dp3603
g74
(dp3604
sg83
g3094
sg76
(lp3605
g69
(g90
g71
NtRp3606
(dp3607
g74
(dp3608
g94
g95
ssg83
g3602
sg76
(lp3609
S'wsgi.errors'
p3610
asbag69
(g90
g71
NtRp3611
(dp3612
g74
(dp3613
g101
g102
ssg83
g3602
sg76
(lp3614
S':'
asbag69
(g90
g71
NtRp3615
(dp3616
g74
(dp3617
sg83
g3602
sg76
(lp3618
g69
(g70
g71
NtRp3619
(dp3620
g74
(dp3621
g82
I3
ssg83
g3615
sg76
(lp3622
S"<open file '<stderr>', mode 'w' at 0x7fa097cd0270>"
p3623
asbasbasbag69
(g85
g71
NtRp3624
(dp3625
g74
(dp3626
sg83
g3094
sg76
(lp3627
g69
(g90
g71
NtRp3628
(dp3629
g74
(dp3630
g94
g95
ssg83
g3624
sg76
(lp3631
S'wsgi.file_wrapper'
p3632
asbag69
(g90
g71
NtRp3633
(dp3634
g74
(dp3635
g101
g102
ssg83
g3624
sg76
(lp3636
S':'
asbag69
(g90
g71
NtRp3637
(dp3638
g74
(dp3639
sg83
g3624
sg76
(lp3640
g69
(g70
g71
NtRp3641
(dp3642
g74
(dp3643
g82
I3
ssg83
g3637
sg76
(lp3644
S'<class wsgiref.util.FileWrapper at 0x1d21b48>'
p3645
asbasbasbag69
(g85
g71
NtRp3646
(dp3647
g74
(dp3648
sg83
g3094
sg76
(lp3649
g69
(g90
g71
NtRp3650
(dp3651
g74
(dp3652
g94
g95
ssg83
g3646
sg76
(lp3653
S'wsgi.input'
p3654
asbag69
(g90
g71
NtRp3655
(dp3656
g74
(dp3657
g101
g102
ssg83
g3646
sg76
(lp3658
S':'
asbag69
(g90
g71
NtRp3659
(dp3660
g74
(dp3661
sg83
g3646
sg76
(lp3662
g69
(g70
g71
NtRp3663
(dp3664
g74
(dp3665
g82
I3
ssg83
g3659
sg76
(lp3666
S"<open file '<fdopen>', mode 'w+b' at 0x7fa07c15ee40>"
p3667
asbasbasbag69
(g85
g71
NtRp3668
(dp3669
g74
(dp3670
sg83
g3094
sg76
(lp3671
g69
(g90
g71
NtRp3672
(dp3673
g74
(dp3674
g94
g95
ssg83
g3668
sg76
(lp3675
S'wsgi.multiprocess'
p3676
asbag69
(g90
g71
NtRp3677
(dp3678
g74
(dp3679
g101
g102
ssg83
g3668
sg76
(lp3680
S':'
asbag69
(g90
g71
NtRp3681
(dp3682
g74
(dp3683
sg83
g3668
sg76
(lp3684
g69
(g70
g71
NtRp3685
(dp3686
g74
(dp3687
g82
I3
ssg83
g3681
sg76
(lp3688
g112
asbasbasbag69
(g85
g71
NtRp3689
(dp3690
g74
(dp3691
sg83
g3094
sg76
(lp3692
g69
(g90
g71
NtRp3693
(dp3694
g74
(dp3695
g94
g95
ssg83
g3689
sg76
(lp3696
S'wsgi.multithread'
p3697
asbag69
(g90
g71
NtRp3698
(dp3699
g74
(dp3700
g101
g102
ssg83
g3689
sg76
(lp3701
S':'
asbag69
(g90
g71
NtRp3702
(dp3703
g74
(dp3704
sg83
g3689
sg76
(lp3705
g69
(g70
g71
NtRp3706
(dp3707
g74
(dp3708
g82
I3
ssg83
g3702
sg76
(lp3709
g2075
asbasbasbag69
(g85
g71
NtRp3710
(dp3711
g74
(dp3712
sg83
g3094
sg76
(lp3713
g69
(g90
g71
NtRp3714
(dp3715
g74
(dp3716
g94
g95
ssg83
g3710
sg76
(lp3717
S'wsgi.run_once'
p3718
asbag69
(g90
g71
NtRp3719
(dp3720
g74
(dp3721
g101
g102
ssg83
g3710
sg76
(lp3722
S':'
asbag69
(g90
g71
NtRp3723
(dp3724
g74
(dp3725
sg83
g3710
sg76
(lp3726
g69
(g70
g71
NtRp3727
(dp3728
g74
(dp3729
g82
I3
ssg83
g3723
sg76
(lp3730
g112
asbasbasbag69
(g85
g71
NtRp3731
(dp3732
g74
(dp3733
sg83
g3094
sg76
(lp3734
g69
(g90
g71
NtRp3735
(dp3736
g74
(dp3737
g94
g95
ssg83
g3731
sg76
(lp3738
S'wsgi.url_scheme'
p3739
asbag69
(g90
g71
NtRp3740
(dp3741
g74
(dp3742
g101
g102
ssg83
g3731
sg76
(lp3743
S':'
asbag69
(g90
g71
NtRp3744
(dp3745
g74
(dp3746
sg83
g3731
sg76
(lp3747
g69
(g70
g71
NtRp3748
(dp3749
g74
(dp3750
g82
I3
ssg83
g3744
sg76
(lp3751
g2118
asbasbasbag69
(g85
g71
NtRp3752
(dp3753
g74
(dp3754
sg83
g3094
sg76
(lp3755
g69
(g90
g71
NtRp3756
(dp3757
g74
(dp3758
g94
g95
ssg83
g3752
sg76
(lp3759
S'wsgi.version'
p3760
asbag69
(g90
g71
NtRp3761
(dp3762
g74
(dp3763
g101
g102
ssg83
g3752
sg76
(lp3764
S':'
asbag69
(g90
g71
NtRp3765
(dp3766
g74
(dp3767
sg83
g3752
sg76
(lp3768
g69
(g70
g71
NtRp3769
(dp3770
g74
(dp3771
g82
I3
ssg83
g3765
sg76
(lp3772
S'1'
asbasbasbasbasbasbasbasbasbasbasbasbasbsS'frames'
p3773
(lp3774
(dp3775
S'file'
p3776
S'/home/urvashi/Desktop/WEB2PY/web2py/gluon/restricted.py'
p3777
sS'dump'
p3778
(dp3779
S'environment'
p3780
S"{'A': <class 'gluon.html.A'>, 'Auth': <class 'gluon.tools.Auth'>, 'B': <class 'gluon.html.B'>, 'BEAUTIFY': <class 'gluon.html.BEAUTIFY'>, 'BODY': <class 'gluon.html.BODY'>, 'BR': <class 'gluon.html.BR'>, 'BUTTON': <class 'gluon.html.BUTTON'>, 'CAT': <class 'gluon.html.CAT'>, 'CENTER': <class 'gluon.html.CENTER'>, 'CLEANUP': <class 'gluon.validators.CLEANUP'>, ...}"
p3781
sS'ccode'
p3782
S'<code object <module> at 0x7fa074117c30, file "/...oGreen_Motors_2/controllers/default.py", line 13>'
p3783
ssS'lnum'
p3784
I212
sS'lines'
p3785
(dp3786
I207
S'    try:'
p3787
sI208
S'        if isinstance(code, types.CodeType):'
p3788
sI209
S'            ccode = code'
p3789
sI210
S'        else:'
p3790
sI211
S'            ccode = compile2(code, layer)'
p3791
sI212
S'        exec ccode in environment'
p3792
sI213
S'    except HTTP:'
p3793
sI214
S'        raise'
p3794
sI215
S'    except RestrictedError:'
p3795
sI216
S'        # do not encapsulate (obfuscate) the original RestrictedError'
p3796
ssS'call'
p3797
S"(code='# -*- coding: utf-8 -*-\\n# this file is released ...())\\n\\nresponse._vars=response._caller(order_bike)\\n', environment={'A': <class 'gluon.html.A'>, 'Auth': <class 'gluon.tools.Auth'>, 'B': <class 'gluon.html.B'>, 'BEAUTIFY': <class 'gluon.html.BEAUTIFY'>, 'BODY': <class 'gluon.html.BODY'>, 'BR': <class 'gluon.html.BR'>, 'BUTTON': <class 'gluon.html.BUTTON'>, 'CAT': <class 'gluon.html.CAT'>, 'CENTER': <class 'gluon.html.CENTER'>, 'CLEANUP': <class 'gluon.validators.CLEANUP'>, ...}, layer='/home/urvashi/Desktop/WEB2PY/web2py/applications/GoGreen_Motors_2/controllers/default.py')"
p3798
sS'func'
p3799
S'restricted'
p3800
sa(dp3801
g3776
S'/home/urvashi/Desktop/WEB2PY/web2py/applications/GoGreen_Motors_2/controllers/default.py'
p3802
sg3778
(dp3803
sg3784
I254
sg3785
(dp3804
I243
S'    http://..../[app]/default/data/update/[table]/[id]'
p3805
sI244
S'    http://..../[app]/default/data/delete/[table]/[id]'
p3806
sI245
S'    http://..../[app]/default/data/select/[table]'
p3807
sI246
S'    http://..../[app]/default/data/search/[table]'
p3808
sI247
S'    but URLs must be signed, i.e. linked with'
p3809
sI248
S"      A('table',_href=URL('data/tables',user_signature=True))"
p3810
sI249
S'    or with the signed load operator'
p3811
sI250
S"      LOAD('default','data.load',args='tables',ajax=True,user_signature=True)"
p3812
sI251
S'    """'
p3813
sI252
S'    return dict(form=crud())'
p3814
ssg3797
S'()'
p3815
sg3799
S'<module>'
p3816
sa(dp3817
g3776
S'/home/urvashi/Desktop/WEB2PY/web2py/gluon/globals.py'
p3818
sg3778
(dp3819
S'self'
p3820
S'undefined'
p3821
sS'f'
S'<function order_bike>'
p3822
ssg3784
I193
sg3785
(dp3823
I192
S'        self._vars = None'
p3824
sI193
S'        self._caller = lambda f: f()'
p3825
sI194
S'        self._view_environment = None'
p3826
sI195
S'        self._custom_commit = None'
p3827
sI196
S'        self._custom_rollback = None'
p3828
sI197
S''
sI188
S'        self.menu = []             # used by the default view layout'
p3829
sI189
S'        self.files = []            # used by web2py_ajax.html'
p3830
sI190
S'        self.generic_patterns = []  # patterns to allow generic views'
p3831
sI191
S"        self.delimiters = ('{{', '}}')"
p3832
ssg3797
S'(f=<function order_bike>)'
p3833
sg3799
S'<lambda>'
p3834
sa(dp3835
g3776
S'/home/urvashi/Desktop/WEB2PY/web2py/applications/GoGreen_Motors_2/controllers/default.py'
p3836
sg3778
(dp3837
S'e'
g3821
sS'auth.user.email'
p3838
S"'sherlock.holmes@gogreen.com'"
p3839
sS'auth.user'
p3840
S"<Row {'first_name': 'Sherlock', 'last_name': 'Ho...sword_key': '', 'registration_key': '', 'id': 2}>"
p3841
sS').select'
p3842
g3821
sS'global auth'
p3843
S'<gluon.tools.Auth object>'
p3844
sS'db.EMPLOYEE'
p3845
S'<Table EMPLOYEE (Emp_ID,Name,Address,Ph_no,Salary,Designation,Email_id)>'
p3846
sS'builtinstr'
p3847
S"<type 'str'>"
p3848
sS'global db'
p3849
S'<DAL uri="mysql://******:urvashi@localhost/DBPHASE3">'
p3850
sS'db.EMPLOYEE.Email_id'
p3851
S'<gluon.dal.Field object>'
p3852
ssg3784
I166
sg3785
(dp3853
I161
S"                    l=int(list[0]['FINANCE.Id']) + 1"
p3854
sI162
S'                    print l'
p3855
sI163
S'                #    e=db(db.EMPLOYEE.Emp_ID>0).select()'
p3856
sI164
S'                    print "///"'
p3857
sI165
S'                    print auth.user.email'
p3858
sI166
S'                    e=db(auth.user.email == str(db.EMPLOYEE.Email_id)).select()'
p3859
sI167
S"                    print '*****'"
p3860
sI168
S'                    print e'
p3861
sI169
S"                    ee=e[0]['EMPLOYEE.Emp_ID']"
p3862
sI170
S''
ssg3797
S'()'
p3863
sg3799
S'order_bike'
p3864
sa(dp3865
g3776
S'/home/urvashi/Desktop/WEB2PY/web2py/gluon/dal.py'
p3866
sg3778
(dp3867
S'self.query'
p3868
g112
sS'adapter.select'
p3869
S'<bound method MySQLAdapter.select of <gluon.dal.MySQLAdapter object>>'
p3870
sS'fields'
p3871
S'[]'
p3872
sS'adapter'
p3873
S'<gluon.dal.MySQLAdapter object>'
p3874
sS'attributes'
p3875
g21
sS'self'
p3876
S'<Set 0>'
p3877
ssg3784
I8905
sg3785
(dp3878
I8900
S"                                    attributes.get('join',None),"
p3879
sI8901
S"                                    attributes.get('left',None),"
p3880
sI8902
S"                                    attributes.get('orderby',None),"
p3881
sI8903
S"                                    attributes.get('groupby',None))"
p3882
sI8904
S'        fields = adapter.expand_all(fields, tablenames)'
p3883
sI8905
S'        return adapter.select(self.query,fields,attributes)'
p3884
sI8906
S''
sI8907
S'    def nested_select(self,*fields,**attributes):'
p3885
sI8908
S'        return Expression(self.db,self._select(*fields,**attributes))'
p3886
sI8909
S''
ssg3797
S'(self=<Set 0>, *fields=[], **attributes={})'
p3887
sg3799
S'select'
p3888
sa(dp3889
g3776
S'/home/urvashi/Desktop/WEB2PY/web2py/gluon/dal.py'
p3890
sg3778
(dp3891
S'self._select'
p3892
S'<bound method MySQLAdapter._select of <gluon.dal.MySQLAdapter object>>'
p3893
sS'fields'
p3894
S'[]'
p3895
sS'self'
p3896
S'<gluon.dal.MySQLAdapter object>'
p3897
sS'sql'
p3898
g3821
sS'query'
p3899
g112
sS'attributes'
p3900
g21
ssg3784
I1618
sg3785
(dp3901
I1613
S''
sI1614
S'    def select(self, query, fields, attributes):'
p3902
sI1615
S'        """'
p3903
sI1616
S'        Always returns a Rows object, possibly empty.'
p3904
sI1617
S'        """'
p3905
sI1618
S'        sql = self._select(query, fields, attributes)'
p3906
sI1619
S"        cache = attributes.get('cache', None)"
p3907
sI1620
S"        if cache and attributes.get('cacheable',False):"
p3908
sI1621
S"            del attributes['cache']"
p3909
sI1622
S'            (cache_model, time_expire) = cache'
p3910
ssg3797
S'(self=<gluon.dal.MySQLAdapter object>, query=False, fields=[], attributes={})'
p3911
sg3799
g3888
sa(dp3912
g3776
S'/home/urvashi/Desktop/WEB2PY/web2py/gluon/dal.py'
p3913
sg3778
(dp3914
S'builtinSyntaxError'
p3915
S"<type 'exceptions.SyntaxError'>"
p3916
ssg3784
I1474
sg3785
(dp3917
I1472
S''
sI1473
S'        if len(tablenames) < 1:'
p3918
sI1474
S"            raise SyntaxError('Set: no tables selected')"
p3919
sI1475
S"        sql_f = ', '.join(map(self.expand, fields))"
p3920
sI1476
S"        self._colnames = [c.strip() for c in sql_f.split(', ')]"
p3921
sI1477
S'        if query:'
p3922
sI1478
S"            sql_w = ' WHERE ' + self.expand(query)"
p3923
sI1469
S''
sI1470
S'        if use_common_filters(query):'
p3924
sI1471
S'            query = self.common_filter(query,tablenames)'
p3925
ssg3797
S'(self=<gluon.dal.MySQLAdapter object>, query=False, fields=[], attributes={})'
p3926
sg3799
S'_select'
p3927
sasS'pyver'
p3928
S'Python 2.7.3: /usr/bin/python'
p3929
sS'session'
p3930
g69
(g70
g71
NtRp3931
(dp3932
g74
(dp3933
sg76
(lp3934
g69
(g78
g71
NtRp3935
(dp3936
g74
(dp3937
g82
I5
ssg83
Nsg76
(lp3938
g69
(g85
g71
NtRp3939
(dp3940
g74
(dp3941
sg83
g3935
sg76
(lp3942
g69
(g90
g71
NtRp3943
(dp3944
g74
(dp3945
g94
g95
ssg83
g3939
sg76
(lp3946
S'auth'
p3947
asbag69
(g90
g71
NtRp3948
(dp3949
g74
(dp3950
g101
g102
ssg83
g3939
sg76
(lp3951
S':'
asbag69
(g90
g71
NtRp3952
(dp3953
g74
(dp3954
sg83
g3939
sg76
(lp3955
g69
(g70
g71
NtRp3956
(dp3957
g74
(dp3958
g82
I5
ssg83
g3952
sg76
(lp3959
g69
(g78
g71
NtRp3960
(dp3961
g74
(dp3962
g82
I4
ssg83
Nsg76
(lp3963
g69
(g85
g71
NtRp3964
(dp3965
g74
(dp3966
sg83
g3960
sg76
(lp3967
g69
(g90
g71
NtRp3968
(dp3969
g74
(dp3970
g94
g95
ssg83
g3964
sg76
(lp3971
S'expiration'
p3972
asbag69
(g90
g71
NtRp3973
(dp3974
g74
(dp3975
g101
g102
ssg83
g3964
sg76
(lp3976
S':'
asbag69
(g90
g71
NtRp3977
(dp3978
g74
(dp3979
sg83
g3964
sg76
(lp3980
g69
(g70
g71
NtRp3981
(dp3982
g74
(dp3983
g82
I4
ssg83
g3977
sg76
(lp3984
S'3600'
p3985
asbasbasbag69
(g85
g71
NtRp3986
(dp3987
g74
(dp3988
sg83
g3960
sg76
(lp3989
g69
(g90
g71
NtRp3990
(dp3991
g74
(dp3992
g94
g95
ssg83
g3986
sg76
(lp3993
S'hmac_key'
p3994
asbag69
(g90
g71
NtRp3995
(dp3996
g74
(dp3997
g101
g102
ssg83
g3986
sg76
(lp3998
S':'
asbag69
(g90
g71
NtRp3999
(dp4000
g74
(dp4001
sg83
g3986
sg76
(lp4002
g69
(g70
g71
NtRp4003
(dp4004
g74
(dp4005
g82
I4
ssg83
g3999
sg76
(lp4006
S'4163b31e-54a0-41c7-b8a7-ae1fa8b88d9e'
p4007
asbasbasbag69
(g85
g71
NtRp4008
(dp4009
g74
(dp4010
sg83
g3960
sg76
(lp4011
g69
(g90
g71
NtRp4012
(dp4013
g74
(dp4014
g94
g95
ssg83
g4008
sg76
(lp4015
S'last_visit'
p4016
asbag69
(g90
g71
NtRp4017
(dp4018
g74
(dp4019
g101
g102
ssg83
g4008
sg76
(lp4020
S':'
asbag69
(g90
g71
NtRp4021
(dp4022
g74
(dp4023
sg83
g4008
sg76
(lp4024
g69
(g70
g71
NtRp4025
(dp4026
g74
(dp4027
g82
I4
ssg83
g4021
sg76
(lp4028
S'datetime.datetime(2013, 10, 21, 21, 21, 34, 122795)'
p4029
asbasbasbag69
(g85
g71
NtRp4030
(dp4031
g74
(dp4032
sg83
g3960
sg76
(lp4033
g69
(g90
g71
NtRp4034
(dp4035
g74
(dp4036
g94
g95
ssg83
g4030
sg76
(lp4037
S'remember'
p4038
asbag69
(g90
g71
NtRp4039
(dp4040
g74
(dp4041
g101
g102
ssg83
g4030
sg76
(lp4042
S':'
asbag69
(g90
g71
NtRp4043
(dp4044
g74
(dp4045
sg83
g4030
sg76
(lp4046
g69
(g70
g71
NtRp4047
(dp4048
g74
(dp4049
g82
I4
ssg83
g4043
sg76
(lp4050
g112
asbasbasbag69
(g85
g71
NtRp4051
(dp4052
g74
(dp4053
sg83
g3960
sg76
(lp4054
g69
(g90
g71
NtRp4055
(dp4056
g74
(dp4057
g94
g95
ssg83
g4051
sg76
(lp4058
S'user'
p4059
asbag69
(g90
g71
NtRp4060
(dp4061
g74
(dp4062
g101
g102
ssg83
g4051
sg76
(lp4063
S':'
asbag69
(g90
g71
NtRp4064
(dp4065
g74
(dp4066
sg83
g4051
sg76
(lp4067
g69
(g70
g71
NtRp4068
(dp4069
g74
(dp4070
g82
I4
ssg83
g4064
sg76
(lp4071
g69
(g78
g71
NtRp4072
(dp4073
g74
(dp4074
g82
I3
ssg83
Nsg76
(lp4075
g69
(g85
g71
NtRp4076
(dp4077
g74
(dp4078
sg83
g4072
sg76
(lp4079
g69
(g90
g71
NtRp4080
(dp4081
g74
(dp4082
g94
g95
ssg83
g4076
sg76
(lp4083
S'email'
p4084
asbag69
(g90
g71
NtRp4085
(dp4086
g74
(dp4087
g101
g102
ssg83
g4076
sg76
(lp4088
S':'
asbag69
(g90
g71
NtRp4089
(dp4090
g74
(dp4091
sg83
g4076
sg76
(lp4092
g69
(g70
g71
NtRp4093
(dp4094
g74
(dp4095
g82
I3
ssg83
g4089
sg76
(lp4096
S'sherlock.holmes@gogreen.com'
p4097
asbasbasbag69
(g85
g71
NtRp4098
(dp4099
g74
(dp4100
sg83
g4072
sg76
(lp4101
g69
(g90
g71
NtRp4102
(dp4103
g74
(dp4104
g94
g95
ssg83
g4098
sg76
(lp4105
S'first_name'
p4106
asbag69
(g90
g71
NtRp4107
(dp4108
g74
(dp4109
g101
g102
ssg83
g4098
sg76
(lp4110
S':'
asbag69
(g90
g71
NtRp4111
(dp4112
g74
(dp4113
sg83
g4098
sg76
(lp4114
g69
(g70
g71
NtRp4115
(dp4116
g74
(dp4117
g82
I3
ssg83
g4111
sg76
(lp4118
S'Sherlock'
p4119
asbasbasbag69
(g85
g71
NtRp4120
(dp4121
g74
(dp4122
sg83
g4072
sg76
(lp4123
g69
(g90
g71
NtRp4124
(dp4125
g74
(dp4126
g94
g95
ssg83
g4120
sg76
(lp4127
S'id'
p4128
asbag69
(g90
g71
NtRp4129
(dp4130
g74
(dp4131
g101
g102
ssg83
g4120
sg76
(lp4132
S':'
asbag69
(g90
g71
NtRp4133
(dp4134
g74
(dp4135
sg83
g4120
sg76
(lp4136
g69
(g70
g71
NtRp4137
(dp4138
g74
(dp4139
g82
I3
ssg83
g4133
sg76
(lp4140
S'2'
asbasbasbag69
(g85
g71
NtRp4141
(dp4142
g74
(dp4143
sg83
g4072
sg76
(lp4144
g69
(g90
g71
NtRp4145
(dp4146
g74
(dp4147
g94
g95
ssg83
g4141
sg76
(lp4148
S'last_name'
p4149
asbag69
(g90
g71
NtRp4150
(dp4151
g74
(dp4152
g101
g102
ssg83
g4141
sg76
(lp4153
S':'
asbag69
(g90
g71
NtRp4154
(dp4155
g74
(dp4156
sg83
g4141
sg76
(lp4157
g69
(g70
g71
NtRp4158
(dp4159
g74
(dp4160
g82
I3
ssg83
g4154
sg76
(lp4161
S'Holmes'
p4162
asbasbasbag69
(g85
g71
NtRp4163
(dp4164
g74
(dp4165
sg83
g4072
sg76
(lp4166
g69
(g90
g71
NtRp4167
(dp4168
g74
(dp4169
g94
g95
ssg83
g4163
sg76
(lp4170
S'registration_id'
p4171
asbag69
(g90
g71
NtRp4172
(dp4173
g74
(dp4174
g101
g102
ssg83
g4163
sg76
(lp4175
S':'
asbag69
(g90
g71
NtRp4176
(dp4177
g74
(dp4178
sg83
g4163
sg76
(lp4179
g69
(g70
g71
NtRp4180
(dp4181
g74
(dp4182
g82
I3
ssg83
g4176
sg76
(lp4183
S''
asbasbasbag69
(g85
g71
NtRp4184
(dp4185
g74
(dp4186
sg83
g4072
sg76
(lp4187
g69
(g90
g71
NtRp4188
(dp4189
g74
(dp4190
g94
g95
ssg83
g4184
sg76
(lp4191
S'registration_key'
p4192
asbag69
(g90
g71
NtRp4193
(dp4194
g74
(dp4195
g101
g102
ssg83
g4184
sg76
(lp4196
S':'
asbag69
(g90
g71
NtRp4197
(dp4198
g74
(dp4199
sg83
g4184
sg76
(lp4200
g69
(g70
g71
NtRp4201
(dp4202
g74
(dp4203
g82
I3
ssg83
g4197
sg76
(lp4204
S''
asbasbasbag69
(g85
g71
NtRp4205
(dp4206
g74
(dp4207
sg83
g4072
sg76
(lp4208
g69
(g90
g71
NtRp4209
(dp4210
g74
(dp4211
g94
g95
ssg83
g4205
sg76
(lp4212
S'reset_password_key'
p4213
asbag69
(g90
g71
NtRp4214
(dp4215
g74
(dp4216
g101
g102
ssg83
g4205
sg76
(lp4217
S':'
asbag69
(g90
g71
NtRp4218
(dp4219
g74
(dp4220
sg83
g4205
sg76
(lp4221
g69
(g70
g71
NtRp4222
(dp4223
g74
(dp4224
g82
I3
ssg83
g4218
sg76
(lp4225
S''
asbasbasbasbasbasbasbag69
(g85
g71
NtRp4226
(dp4227
g74
(dp4228
sg83
g3960
sg76
(lp4229
g69
(g90
g71
NtRp4230
(dp4231
g74
(dp4232
g94
g95
ssg83
g4226
sg76
(lp4233
S'user_groups'
p4234
asbag69
(g90
g71
NtRp4235
(dp4236
g74
(dp4237
g101
g102
ssg83
g4226
sg76
(lp4238
S':'
asbag69
(g90
g71
NtRp4239
(dp4240
g74
(dp4241
sg83
g4226
sg76
(lp4242
g69
(g70
g71
NtRp4243
(dp4244
g74
(dp4245
g82
I4
ssg83
g4239
sg76
(lp4246
g69
(g78
g71
NtRp4247
(dp4248
g74
(dp4249
g82
I3
ssg83
Nsg76
(lp4250
g69
(g85
g71
NtRp4251
(dp4252
g74
(dp4253
sg83
g4247
sg76
(lp4254
g69
(g90
g71
NtRp4255
(dp4256
g74
(dp4257
g94
g95
ssg83
g4251
sg76
(lp4258
S'1'
asbag69
(g90
g71
NtRp4259
(dp4260
g74
(dp4261
g101
g102
ssg83
g4251
sg76
(lp4262
S':'
asbag69
(g90
g71
NtRp4263
(dp4264
g74
(dp4265
sg83
g4251
sg76
(lp4266
g69
(g70
g71
NtRp4267
(dp4268
g74
(dp4269
g82
I3
ssg83
g4263
sg76
(lp4270
S'user_2'
p4271
asbasbasbasbasbasbasbasbasbasbasbag69
(g85
g71
NtRp4272
(dp4273
g74
(dp4274
sg83
g3935
sg76
(lp4275
g69
(g90
g71
NtRp4276
(dp4277
g74
(dp4278
g94
g95
ssg83
g4272
sg76
(lp4279
S'flash'
p4280
asbag69
(g90
g71
NtRp4281
(dp4282
g74
(dp4283
g101
g102
ssg83
g4272
sg76
(lp4284
S':'
asbag69
(g90
g71
NtRp4285
(dp4286
g74
(dp4287
sg83
g4272
sg76
(lp4288
g69
(g70
g71
NtRp4289
(dp4290
g74
(dp4291
g82
I5
ssg83
g4285
sg76
(lp4292
S'None'
p4293
asbasbasbag69
(g85
g71
NtRp4294
(dp4295
g74
(dp4296
sg83
g3935
sg76
(lp4297
g69
(g90
g71
NtRp4298
(dp4299
g74
(dp4300
g94
g95
ssg83
g4294
sg76
(lp4301
S'last_orderby'
p4302
asbag69
(g90
g71
NtRp4303
(dp4304
g74
(dp4305
g101
g102
ssg83
g4294
sg76
(lp4306
S':'
asbag69
(g90
g71
NtRp4307
(dp4308
g74
(dp4309
sg83
g4294
sg76
(lp4310
g69
(g70
g71
NtRp4311
(dp4312
g74
(dp4313
g82
I5
ssg83
g4307
sg76
(lp4314
S'None'
p4315
asbasbasbag69
(g85
g71
NtRp4316
(dp4317
g74
(dp4318
sg83
g3935
sg76
(lp4319
g69
(g90
g71
NtRp4320
(dp4321
g74
(dp4322
g94
g95
ssg83
g4316
sg76
(lp4323
S'last_query'
p4324
asbag69
(g90
g71
NtRp4325
(dp4326
g74
(dp4327
g101
g102
ssg83
g4316
sg76
(lp4328
S':'
asbag69
(g90
g71
NtRp4329
(dp4330
g74
(dp4331
sg83
g4316
sg76
(lp4332
g69
(g70
g71
NtRp4333
(dp4334
g74
(dp4335
g82
I5
ssg83
g4329
sg76
(lp4336
S'db.EMPLOYEE.Emp_ID>0'
p4337
asbasbasbasbasbsS'etype'
p4338
S"<type 'exceptions.SyntaxError'>"
p4339
sS'date'
p4340
S'Mon Oct 21 21:26:45 2013'
p4341
sS'response'
p4342
g69
(g70
g71
NtRp4343
(dp4344
g74
(dp4345
sg76
(lp4346
g69
(g78
g71
NtRp4347
(dp4348
g74
(dp4349
g82
I5
ssg83
Nsg76
(lp4350
g69
(g85
g71
NtRp4351
(dp4352
g74
(dp4353
sg83
g4347
sg76
(lp4354
g69
(g90
g71
NtRp4355
(dp4356
g74
(dp4357
g94
g95
ssg83
g4351
sg76
(lp4358
g167
asbag69
(g90
g71
NtRp4359
(dp4360
g74
(dp4361
g101
g102
ssg83
g4351
sg76
(lp4362
S':'
asbag69
(g90
g71
NtRp4363
(dp4364
g74
(dp4365
sg83
g4351
sg76
(lp4366
g69
(g70
g71
NtRp4367
(dp4368
g74
(dp4369
g82
I5
ssg83
g4363
sg76
(lp4370
S'<cStringIO.StringO object at 0x7fa08056b490>'
p4371
asbasbasbag69
(g85
g71
NtRp4372
(dp4373
g74
(dp4374
sg83
g4347
sg76
(lp4375
g69
(g90
g71
NtRp4376
(dp4377
g74
(dp4378
g94
g95
ssg83
g4372
sg76
(lp4379
g255
asbag69
(g90
g71
NtRp4380
(dp4381
g74
(dp4382
g101
g102
ssg83
g4372
sg76
(lp4383
S':'
asbag69
(g90
g71
NtRp4384
(dp4385
g74
(dp4386
sg83
g4372
sg76
(lp4387
g69
(g70
g71
NtRp4388
(dp4389
g74
(dp4390
g82
I5
ssg83
g4384
sg76
(lp4391
g69
(g78
g71
NtRp4392
(dp4393
g74
(dp4394
g82
I4
ssg83
Nsg76
(lp4395
g69
(g85
g71
NtRp4396
(dp4397
g74
(dp4398
sg83
g4392
sg76
(lp4399
g69
(g90
g71
NtRp4400
(dp4401
g74
(dp4402
g94
g95
ssg83
g4396
sg76
(lp4403
S'session_id_gogreen_motors_2'
p4404
asbag69
(g90
g71
NtRp4405
(dp4406
g74
(dp4407
g101
g102
ssg83
g4396
sg76
(lp4408
S':'
asbag69
(g90
g71
NtRp4409
(dp4410
g74
(dp4411
sg83
g4396
sg76
(lp4412
g69
(g70
g71
NtRp4413
(dp4414
g74
(dp4415
g82
I4
ssg83
g4409
sg76
(lp4416
g673
ag69
(g78
g71
NtRp4417
(dp4418
g74
(dp4419
g82
I3
ssg83
Nsg76
(lp4420
g69
(g85
g71
NtRp4421
(dp4422
g74
(dp4423
sg83
g4417
sg76
(lp4424
g69
(g90
g71
NtRp4425
(dp4426
g74
(dp4427
g94
g95
ssg83
g4421
sg76
(lp4428
g306
asbag69
(g90
g71
NtRp4429
(dp4430
g74
(dp4431
g101
g102
ssg83
g4421
sg76
(lp4432
S':'
asbag69
(g90
g71
NtRp4433
(dp4434
g74
(dp4435
sg83
g4421
sg76
(lp4436
g69
(g70
g71
NtRp4437
(dp4438
g74
(dp4439
g82
I3
ssg83
g4433
sg76
(lp4440
S''
asbasbasbag69
(g85
g71
NtRp4441
(dp4442
g74
(dp4443
sg83
g4417
sg76
(lp4444
g69
(g90
g71
NtRp4445
(dp4446
g74
(dp4447
g94
g95
ssg83
g4441
sg76
(lp4448
g327
asbag69
(g90
g71
NtRp4449
(dp4450
g74
(dp4451
g101
g102
ssg83
g4441
sg76
(lp4452
S':'
asbag69
(g90
g71
NtRp4453
(dp4454
g74
(dp4455
sg83
g4441
sg76
(lp4456
g69
(g70
g71
NtRp4457
(dp4458
g74
(dp4459
g82
I3
ssg83
g4453
sg76
(lp4460
S''
asbasbasbag69
(g85
g71
NtRp4461
(dp4462
g74
(dp4463
sg83
g4417
sg76
(lp4464
g69
(g90
g71
NtRp4465
(dp4466
g74
(dp4467
g94
g95
ssg83
g4461
sg76
(lp4468
g348
asbag69
(g90
g71
NtRp4469
(dp4470
g74
(dp4471
g101
g102
ssg83
g4461
sg76
(lp4472
S':'
asbag69
(g90
g71
NtRp4473
(dp4474
g74
(dp4475
sg83
g4461
sg76
(lp4476
g69
(g70
g71
NtRp4477
(dp4478
g74
(dp4479
g82
I3
ssg83
g4473
sg76
(lp4480
S''
asbasbasbag69
(g85
g71
NtRp4481
(dp4482
g74
(dp4483
sg83
g4417
sg76
(lp4484
g69
(g90
g71
NtRp4485
(dp4486
g74
(dp4487
g94
g95
ssg83
g4481
sg76
(lp4488
g369
asbag69
(g90
g71
NtRp4489
(dp4490
g74
(dp4491
g101
g102
ssg83
g4481
sg76
(lp4492
S':'
asbag69
(g90
g71
NtRp4493
(dp4494
g74
(dp4495
sg83
g4481
sg76
(lp4496
g69
(g70
g71
NtRp4497
(dp4498
g74
(dp4499
g82
I3
ssg83
g4493
sg76
(lp4500
S''
asbasbasbag69
(g85
g71
NtRp4501
(dp4502
g74
(dp4503
sg83
g4417
sg76
(lp4504
g69
(g90
g71
NtRp4505
(dp4506
g74
(dp4507
g94
g95
ssg83
g4501
sg76
(lp4508
g390
asbag69
(g90
g71
NtRp4509
(dp4510
g74
(dp4511
g101
g102
ssg83
g4501
sg76
(lp4512
S':'
asbag69
(g90
g71
NtRp4513
(dp4514
g74
(dp4515
sg83
g4501
sg76
(lp4516
g69
(g70
g71
NtRp4517
(dp4518
g74
(dp4519
g82
I3
ssg83
g4513
sg76
(lp4520
S''
asbasbasbag69
(g85
g71
NtRp4521
(dp4522
g74
(dp4523
sg83
g4417
sg76
(lp4524
g69
(g90
g71
NtRp4525
(dp4526
g74
(dp4527
g94
g95
ssg83
g4521
sg76
(lp4528
g411
asbag69
(g90
g71
NtRp4529
(dp4530
g74
(dp4531
g101
g102
ssg83
g4521
sg76
(lp4532
S':'
asbag69
(g90
g71
NtRp4533
(dp4534
g74
(dp4535
sg83
g4521
sg76
(lp4536
g69
(g70
g71
NtRp4537
(dp4538
g74
(dp4539
g82
I3
ssg83
g4533
sg76
(lp4540
S'/'
asbasbasbag69
(g85
g71
NtRp4541
(dp4542
g74
(dp4543
sg83
g4417
sg76
(lp4544
g69
(g90
g71
NtRp4545
(dp4546
g74
(dp4547
g94
g95
ssg83
g4541
sg76
(lp4548
g432
asbag69
(g90
g71
NtRp4549
(dp4550
g74
(dp4551
g101
g102
ssg83
g4541
sg76
(lp4552
S':'
asbag69
(g90
g71
NtRp4553
(dp4554
g74
(dp4555
sg83
g4541
sg76
(lp4556
g69
(g70
g71
NtRp4557
(dp4558
g74
(dp4559
g82
I3
ssg83
g4553
sg76
(lp4560
S''
asbasbasbag69
(g85
g71
NtRp4561
(dp4562
g74
(dp4563
sg83
g4417
sg76
(lp4564
g69
(g90
g71
NtRp4565
(dp4566
g74
(dp4567
g94
g95
ssg83
g4561
sg76
(lp4568
g453
asbag69
(g90
g71
NtRp4569
(dp4570
g74
(dp4571
g101
g102
ssg83
g4561
sg76
(lp4572
S':'
asbag69
(g90
g71
NtRp4573
(dp4574
g74
(dp4575
sg83
g4561
sg76
(lp4576
g69
(g70
g71
NtRp4577
(dp4578
g74
(dp4579
g82
I3
ssg83
g4573
sg76
(lp4580
S''
asbasbasbasbasbasbasbasbasbasbasbag69
(g85
g71
NtRp4581
(dp4582
g74
(dp4583
sg83
g4347
sg76
(lp4584
g69
(g90
g71
NtRp4585
(dp4586
g74
(dp4587
g94
g95
ssg83
g4581
sg76
(lp4588
S'delimiters'
p4589
asbag69
(g90
g71
NtRp4590
(dp4591
g74
(dp4592
g101
g102
ssg83
g4581
sg76
(lp4593
S':'
asbag69
(g90
g71
NtRp4594
(dp4595
g74
(dp4596
sg83
g4581
sg76
(lp4597
g69
(g70
g71
NtRp4598
(dp4599
g74
(dp4600
g82
I5
ssg83
g4594
sg76
(lp4601
g69
(g78
g71
NtRp4602
(dp4603
g74
(dp4604
g82
I4
ssg83
Nsg76
(lp4605
g69
(g85
g71
NtRp4606
(dp4607
g74
(dp4608
sg83
g4602
sg76
(lp4609
g69
(g90
g71
NtRp4610
(dp4611
g74
(dp4612
sg83
g4606
sg76
(lp4613
g69
(g70
g71
NtRp4614
(dp4615
g74
(dp4616
g82
I4
ssg83
g4610
sg76
(lp4617
S'{{'
p4618
asbasbasbag69
(g85
g71
NtRp4619
(dp4620
g74
(dp4621
sg83
g4602
sg76
(lp4622
g69
(g90
g71
NtRp4623
(dp4624
g74
(dp4625
sg83
g4619
sg76
(lp4626
g69
(g70
g71
NtRp4627
(dp4628
g74
(dp4629
g82
I4
ssg83
g4623
sg76
(lp4630
S'}}'
p4631
asbasbasbasbasbasbasbag69
(g85
g71
NtRp4632
(dp4633
g74
(dp4634
sg83
g4347
sg76
(lp4635
g69
(g90
g71
NtRp4636
(dp4637
g74
(dp4638
g94
g95
ssg83
g4632
sg76
(lp4639
S'files'
p4640
asbag69
(g90
g71
NtRp4641
(dp4642
g74
(dp4643
g101
g102
ssg83
g4632
sg76
(lp4644
S':'
asbag69
(g90
g71
NtRp4645
(dp4646
g74
(dp4647
sg83
g4632
sg76
(lp4648
g69
(g70
g71
NtRp4649
(dp4650
g74
(dp4651
g82
I5
ssg83
g4645
sg76
(lp4652
g69
(g78
g71
NtRp4653
(dp4654
g74
(dp4655
g82
I4
ssg83
Nsg76
(lp4656
sbasbasbasbag69
(g85
g71
NtRp4657
(dp4658
g74
(dp4659
sg83
g4347
sg76
(lp4660
g69
(g90
g71
NtRp4661
(dp4662
g74
(dp4663
g94
g95
ssg83
g4657
sg76
(lp4664
S'flash'
p4665
asbag69
(g90
g71
NtRp4666
(dp4667
g74
(dp4668
g101
g102
ssg83
g4657
sg76
(lp4669
S':'
asbag69
(g90
g71
NtRp4670
(dp4671
g74
(dp4672
sg83
g4657
sg76
(lp4673
g69
(g70
g71
NtRp4674
(dp4675
g74
(dp4676
g82
I5
ssg83
g4670
sg76
(lp4677
S'Bike Ordered !!'
p4678
asbasbasbag69
(g85
g71
NtRp4679
(dp4680
g74
(dp4681
sg83
g4347
sg76
(lp4682
g69
(g90
g71
NtRp4683
(dp4684
g74
(dp4685
g94
g95
ssg83
g4679
sg76
(lp4686
S'generic_patterns'
p4687
asbag69
(g90
g71
NtRp4688
(dp4689
g74
(dp4690
g101
g102
ssg83
g4679
sg76
(lp4691
S':'
asbag69
(g90
g71
NtRp4692
(dp4693
g74
(dp4694
sg83
g4679
sg76
(lp4695
g69
(g70
g71
NtRp4696
(dp4697
g74
(dp4698
g82
I5
ssg83
g4692
sg76
(lp4699
g69
(g78
g71
NtRp4700
(dp4701
g74
(dp4702
g82
I4
ssg83
Nsg76
(lp4703
g69
(g85
g71
NtRp4704
(dp4705
g74
(dp4706
sg83
g4700
sg76
(lp4707
g69
(g90
g71
NtRp4708
(dp4709
g74
(dp4710
sg83
g4704
sg76
(lp4711
g69
(g70
g71
NtRp4712
(dp4713
g74
(dp4714
g82
I4
ssg83
g4708
sg76
(lp4715
S'*'
asbasbasbasbasbasbasbag69
(g85
g71
NtRp4716
(dp4717
g74
(dp4718
sg83
g4347
sg76
(lp4719
g69
(g90
g71
NtRp4720
(dp4721
g74
(dp4722
g94
g95
ssg83
g4716
sg76
(lp4723
S'google_analytics_id'
p4724
asbag69
(g90
g71
NtRp4725
(dp4726
g74
(dp4727
g101
g102
ssg83
g4716
sg76
(lp4728
S':'
asbag69
(g90
g71
NtRp4729
(dp4730
g74
(dp4731
sg83
g4716
sg76
(lp4732
g69
(g70
g71
NtRp4733
(dp4734
g74
(dp4735
g82
I5
ssg83
g4729
sg76
(lp4736
S'None'
p4737
asbasbasbag69
(g85
g71
NtRp4738
(dp4739
g74
(dp4740
sg83
g4347
sg76
(lp4741
g69
(g90
g71
NtRp4742
(dp4743
g74
(dp4744
g94
g95
ssg83
g4738
sg76
(lp4745
S'headers'
p4746
asbag69
(g90
g71
NtRp4747
(dp4748
g74
(dp4749
g101
g102
ssg83
g4738
sg76
(lp4750
S':'
asbag69
(g90
g71
NtRp4751
(dp4752
g74
(dp4753
sg83
g4738
sg76
(lp4754
g69
(g70
g71
NtRp4755
(dp4756
g74
(dp4757
g82
I5
ssg83
g4751
sg76
(lp4758
g69
(g78
g71
NtRp4759
(dp4760
g74
(dp4761
g82
I4
ssg83
Nsg76
(lp4762
g69
(g85
g71
NtRp4763
(dp4764
g74
(dp4765
sg83
g4759
sg76
(lp4766
g69
(g90
g71
NtRp4767
(dp4768
g74
(dp4769
g94
g95
ssg83
g4763
sg76
(lp4770
S'X-Powered-By'
p4771
asbag69
(g90
g71
NtRp4772
(dp4773
g74
(dp4774
g101
g102
ssg83
g4763
sg76
(lp4775
S':'
asbag69
(g90
g71
NtRp4776
(dp4777
g74
(dp4778
sg83
g4763
sg76
(lp4779
g69
(g70
g71
NtRp4780
(dp4781
g74
(dp4782
g82
I4
ssg83
g4776
sg76
(lp4783
S'web2py'
p4784
asbasbasbasbasbasbasbag69
(g85
g71
NtRp4785
(dp4786
g74
(dp4787
sg83
g4347
sg76
(lp4788
g69
(g90
g71
NtRp4789
(dp4790
g74
(dp4791
g94
g95
ssg83
g4785
sg76
(lp4792
S'logo'
p4793
asbag69
(g90
g71
NtRp4794
(dp4795
g74
(dp4796
g101
g102
ssg83
g4785
sg76
(lp4797
S':'
asbag69
(g90
g71
NtRp4798
(dp4799
g74
(dp4800
sg83
g4785
sg76
(lp4801
g69
(g70
g71
NtRp4802
(dp4803
g74
(dp4804
g82
I5
ssg83
g4798
sg76
(lp4805
g69
(cgluon.html
A
p4806
g71
NtRp4807
(dp4808
g74
(dp4809
S'_class'
p4810
S'brand'
p4811
sS'_href'
p4812
S'http://www.web2py.com/'
p4813
ssg83
Nsg76
(lp4814
g69
(cgluon.html
B
p4815
g71
NtRp4816
(dp4817
g74
(dp4818
sg83
g4807
sg76
(lp4819
S'web'
p4820
ag69
(cgluon.html
SPAN
p4821
g71
NtRp4822
(dp4823
g74
(dp4824
sg83
g4816
sg76
(lp4825
I2
asbaS'py'
p4826
asbacgluon.html
XML_unpickle
p4827
(S's\r\x00\x00\x00&trade;&nbsp;'
tRp4828
asbasbasbasbag69
(g85
g71
NtRp4829
(dp4830
g74
(dp4831
sg83
g4347
sg76
(lp4832
g69
(g90
g71
NtRp4833
(dp4834
g74
(dp4835
g94
g95
ssg83
g4829
sg76
(lp4836
S'menu'
p4837
asbag69
(g90
g71
NtRp4838
(dp4839
g74
(dp4840
g101
g102
ssg83
g4829
sg76
(lp4841
S':'
asbag69
(g90
g71
NtRp4842
(dp4843
g74
(dp4844
sg83
g4829
sg76
(lp4845
g69
(g70
g71
NtRp4846
(dp4847
g74
(dp4848
g82
I5
ssg83
g4842
sg76
(lp4849
g69
(g78
g71
NtRp4850
(dp4851
g74
(dp4852
g82
I4
ssg83
Nsg76
(lp4853
g69
(g85
g71
NtRp4854
(dp4855
g74
(dp4856
sg83
g4850
sg76
(lp4857
g69
(g90
g71
NtRp4858
(dp4859
g74
(dp4860
sg83
g4854
sg76
(lp4861
g69
(g70
g71
NtRp4862
(dp4863
g74
(dp4864
g82
I4
ssg83
g4858
sg76
(lp4865
g69
(g78
g71
NtRp4866
(dp4867
g74
(dp4868
g82
I3
ssg83
Nsg76
(lp4869
g69
(g85
g71
NtRp4870
(dp4871
g74
(dp4872
sg83
g4866
sg76
(lp4873
g69
(g90
g71
NtRp4874
(dp4875
g74
(dp4876
sg83
g4870
sg76
(lp4877
g69
(g70
g71
NtRp4878
(dp4879
g74
(dp4880
g82
I3
ssg83
g4874
sg76
(lp4881
cgluon.languages
lazyT_unpickle
p4882
(S's\x04\x00\x00\x00Home'
tRp4883
asbasbasbag69
(g85
g71
NtRp4884
(dp4885
g74
(dp4886
sg83
g4866
sg76
(lp4887
g69
(g90
g71
NtRp4888
(dp4889
g74
(dp4890
sg83
g4884
sg76
(lp4891
g69
(g70
g71
NtRp4892
(dp4893
g74
(dp4894
g82
I3
ssg83
g4888
sg76
(lp4895
g112
asbasbasbag69
(g85
g71
NtRp4896
(dp4897
g74
(dp4898
sg83
g4866
sg76
(lp4899
g69
(g90
g71
NtRp4900
(dp4901
g74
(dp4902
sg83
g4896
sg76
(lp4903
g69
(g70
g71
NtRp4904
(dp4905
g74
(dp4906
g82
I3
ssg83
g4900
sg76
(lp4907
S'/GoGreen_Motors_2/default/index'
p4908
asbasbasbag69
(g85
g71
NtRp4909
(dp4910
g74
(dp4911
sg83
g4866
sg76
(lp4912
g69
(g90
g71
NtRp4913
(dp4914
g74
(dp4915
sg83
g4909
sg76
(lp4916
g69
(g70
g71
NtRp4917
(dp4918
g74
(dp4919
g82
I3
ssg83
g4913
sg76
(lp4920
g69
(g78
g71
NtRp4921
(dp4922
g74
(dp4923
g82
I2
ssg83
Nsg76
(lp4924
sbasbasbasbasbasbasbasbag69
(g85
g71
NtRp4925
(dp4926
g74
(dp4927
sg83
g4850
sg76
(lp4928
g69
(g90
g71
NtRp4929
(dp4930
g74
(dp4931
sg83
g4925
sg76
(lp4932
g69
(g70
g71
NtRp4933
(dp4934
g74
(dp4935
g82
I4
ssg83
g4929
sg76
(lp4936
g69
(g78
g71
NtRp4937
(dp4938
g74
(dp4939
g82
I3
ssg83
Nsg76
(lp4940
g69
(g85
g71
NtRp4941
(dp4942
g74
(dp4943
sg83
g4937
sg76
(lp4944
g69
(g90
g71
NtRp4945
(dp4946
g74
(dp4947
sg83
g4941
sg76
(lp4948
g69
(g70
g71
NtRp4949
(dp4950
g74
(dp4951
g82
I3
ssg83
g4945
sg76
(lp4952
g69
(g4821
g71
NtRp4953
(dp4954
g74
(dp4955
g4810
S'highlighted'
p4956
ssg83
Nsg76
(lp4957
g4784
asbasbasbasbag69
(g85
g71
NtRp4958
(dp4959
g74
(dp4960
sg83
g4937
sg76
(lp4961
g69
(g90
g71
NtRp4962
(dp4963
g74
(dp4964
sg83
g4958
sg76
(lp4965
g69
(g70
g71
NtRp4966
(dp4967
g74
(dp4968
g82
I3
ssg83
g4962
sg76
(lp4969
g112
asbasbasbag69
(g85
g71
NtRp4970
(dp4971
g74
(dp4972
sg83
g4937
sg76
(lp4973
g69
(g90
g71
NtRp4974
(dp4975
g74
(dp4976
sg83
g4970
sg76
(lp4977
g69
(g70
g71
NtRp4978
(dp4979
g74
(dp4980
g82
I3
ssg83
g4974
sg76
(lp4981
S'http://web2py.com'
p4982
asbasbasbag69
(g85
g71
NtRp4983
(dp4984
g74
(dp4985
sg83
g4937
sg76
(lp4986
g69
(g90
g71
NtRp4987
(dp4988
g74
(dp4989
sg83
g4983
sg76
(lp4990
g69
(g70
g71
NtRp4991
(dp4992
g74
(dp4993
g82
I3
ssg83
g4987
sg76
(lp4994
g69
(g78
g71
NtRp4995
(dp4996
g74
(dp4997
g82
I2
ssg83
Nsg76
(lp4998
g69
(g85
g71
NtRp4999
(dp5000
g74
(dp5001
sg83
g4995
sg76
(lp5002
g69
(g90
g71
NtRp5003
(dp5004
g74
(dp5005
sg83
g4999
sg76
(lp5006
g69
(g70
g71
NtRp5007
(dp5008
g74
(dp5009
g82
I2
ssg83
g5003
sg76
(lp5010
g69
(g78
g71
NtRp5011
(dp5012
g74
(dp5013
g82
I1
ssg83
Nsg76
(lp5014
g69
(g85
g71
NtRp5015
(dp5016
g74
(dp5017
sg83
g5011
sg76
(lp5018
g69
(g90
g71
NtRp5019
(dp5020
g74
(dp5021
sg83
g5015
sg76
(lp5022
g69
(g70
g71
NtRp5023
(dp5024
g74
(dp5025
g82
I1
ssg83
g5019
sg76
(lp5026
g4882
(S's\x08\x00\x00\x00My Sites'
tRp5027
asbasbasbag69
(g85
g71
NtRp5028
(dp5029
g74
(dp5030
sg83
g5011
sg76
(lp5031
g69
(g90
g71
NtRp5032
(dp5033
g74
(dp5034
sg83
g5028
sg76
(lp5035
g69
(g70
g71
NtRp5036
(dp5037
g74
(dp5038
g82
I1
ssg83
g5032
sg76
(lp5039
I00
asbasbasbag69
(g85
g71
NtRp5040
(dp5041
g74
(dp5042
sg83
g5011
sg76
(lp5043
g69
(g90
g71
NtRp5044
(dp5045
g74
(dp5046
sg83
g5040
sg76
(lp5047
g69
(g70
g71
NtRp5048
(dp5049
g74
(dp5050
g82
I1
ssg83
g5044
sg76
(lp5051
S'/admin/default/site'
p5052
asbasbasbasbasbasbasbag69
(g85
g71
NtRp5053
(dp5054
g74
(dp5055
sg83
g4995
sg76
(lp5056
g69
(g90
g71
NtRp5057
(dp5058
g74
(dp5059
sg83
g5053
sg76
(lp5060
g69
(g70
g71
NtRp5061
(dp5062
g74
(dp5063
g82
I2
ssg83
g5057
sg76
(lp5064
g69
(g78
g71
NtRp5065
(dp5066
g74
(dp5067
g82
I1
ssg83
Nsg76
(lp5068
g69
(g85
g71
NtRp5069
(dp5070
g74
(dp5071
sg83
g5065
sg76
(lp5072
g69
(g90
g71
NtRp5073
(dp5074
g74
(dp5075
sg83
g5069
sg76
(lp5076
g69
(g70
g71
NtRp5077
(dp5078
g74
(dp5079
g82
I1
ssg83
g5073
sg76
(lp5080
g4882
(S's\x08\x00\x00\x00This App'
tRp5081
asbasbasbag69
(g85
g71
NtRp5082
(dp5083
g74
(dp5084
sg83
g5065
sg76
(lp5085
g69
(g90
g71
NtRp5086
(dp5087
g74
(dp5088
sg83
g5082
sg76
(lp5089
g69
(g70
g71
NtRp5090
(dp5091
g74
(dp5092
g82
I1
ssg83
g5086
sg76
(lp5093
I00
asbasbasbag69
(g85
g71
NtRp5094
(dp5095
g74
(dp5096
sg83
g5065
sg76
(lp5097
g69
(g90
g71
NtRp5098
(dp5099
g74
(dp5100
sg83
g5094
sg76
(lp5101
g69
(g70
g71
NtRp5102
(dp5103
g74
(dp5104
g82
I1
ssg83
g5098
sg76
(lp5105
S'/admin/default/design/GoGreen_Motors_2'
p5106
asbasbasbag69
(g85
g71
NtRp5107
(dp5108
g74
(dp5109
sg83
g5065
sg76
(lp5110
g69
(g90
g71
NtRp5111
(dp5112
g74
(dp5113
sg83
g5107
sg76
(lp5114
g69
(g70
g71
NtRp5115
(dp5116
g74
(dp5117
g82
I1
ssg83
g5111
sg76
(lp5118
(lp5119
(g4882
(S's\n\x00\x00\x00Controller'
tRp5120
I00
S'/admin/default/edit/GoGreen_Motors_2/controllers/default.py'
tp5121
a(g4882
(S's\x04\x00\x00\x00View'
tRp5122
I00
S'/admin/default/edit/GoGreen_Motors_2/views/default/order_bike.html'
tp5123
a(g4882
(S's\x06\x00\x00\x00Layout'
tRp5124
I00
S'/admin/default/edit/GoGreen_Motors_2/views/layout.html'
tp5125
a(g4882
(S's\n\x00\x00\x00Stylesheet'
tRp5126
I00
S'/admin/default/edit/GoGreen_Motors_2/static/css/web2py.css'
tp5127
a(g4882
(S's\x08\x00\x00\x00DB Model'
tRp5128
I00
S'/admin/default/edit/GoGreen_Motors_2/models/db.py'
tp5129
a(g4882
(S's\n\x00\x00\x00Menu Model'
tRp5130
I00
S'/admin/default/edit/GoGreen_Motors_2/models/menu.py'
tp5131
a(g4882
(S's\x08\x00\x00\x00Database'
tRp5132
I00
S'/GoGreen_Motors_2/appadmin/index'
tp5133
a(g4882
(S's\x06\x00\x00\x00Errors'
tRp5134
I00
S'/admin/default/errors/GoGreen_Motors_2'
tp5135
a(g4882
(S's\x05\x00\x00\x00About'
tRp5136
I00
S'/admin/default/about/GoGreen_Motors_2'
tp5137
aasbasbasbasbasbasbasbag69
(g85
g71
NtRp5138
(dp5139
g74
(dp5140
sg83
g4995
sg76
(lp5141
g69
(g90
g71
NtRp5142
(dp5143
g74
(dp5144
sg83
g5138
sg76
(lp5145
g69
(g70
g71
NtRp5146
(dp5147
g74
(dp5148
g82
I2
ssg83
g5142
sg76
(lp5149
g69
(g78
g71
NtRp5150
(dp5151
g74
(dp5152
g82
I1
ssg83
Nsg76
(lp5153
g69
(g85
g71
NtRp5154
(dp5155
g74
(dp5156
sg83
g5150
sg76
(lp5157
g69
(g90
g71
NtRp5158
(dp5159
g74
(dp5160
sg83
g5154
sg76
(lp5161
g69
(g70
g71
NtRp5162
(dp5163
g74
(dp5164
g82
I1
ssg83
g5158
sg76
(lp5165
S'web2py.com'
p5166
asbasbasbag69
(g85
g71
NtRp5167
(dp5168
g74
(dp5169
sg83
g5150
sg76
(lp5170
g69
(g90
g71
NtRp5171
(dp5172
g74
(dp5173
sg83
g5167
sg76
(lp5174
g69
(g70
g71
NtRp5175
(dp5176
g74
(dp5177
g82
I1
ssg83
g5171
sg76
(lp5178
I00
asbasbasbag69
(g85
g71
NtRp5179
(dp5180
g74
(dp5181
sg83
g5150
sg76
(lp5182
g69
(g90
g71
NtRp5183
(dp5184
g74
(dp5185
sg83
g5179
sg76
(lp5186
g69
(g70
g71
NtRp5187
(dp5188
g74
(dp5189
g82
I1
ssg83
g5183
sg76
(lp5190
S'http://www.web2py.com'
p5191
asbasbasbag69
(g85
g71
NtRp5192
(dp5193
g74
(dp5194
sg83
g5150
sg76
(lp5195
g69
(g90
g71
NtRp5196
(dp5197
g74
(dp5198
sg83
g5192
sg76
(lp5199
g69
(g70
g71
NtRp5200
(dp5201
g74
(dp5202
g82
I1
ssg83
g5196
sg76
(lp5203
(lp5204
(g4882
(S's\x08\x00\x00\x00Download'
tRp5205
I00
S'http://www.web2py.com/examples/default/download'
p5206
tp5207
a(g4882
(S's\x07\x00\x00\x00Support'
tRp5208
I00
S'http://www.web2py.com/examples/default/support'
p5209
tp5210
a(g4882
(S's\x04\x00\x00\x00Demo'
tRp5211
I00
S'http://web2py.com/demo_admin'
p5212
tp5213
a(g4882
(S's\x0e\x00\x00\x00Quick Examples'
tRp5214
I00
S'http://web2py.com/examples/default/examples'
p5215
tp5216
a(g4882
(S's\x03\x00\x00\x00FAQ'
tRp5217
I00
S'http://web2py.com/AlterEgo'
p5218
tp5219
a(g4882
(S's\x06\x00\x00\x00Videos'
tRp5220
I00
S'http://www.web2py.com/examples/default/videos/'
p5221
tp5222
a(g4882
(S's\x11\x00\x00\x00Free Applications'
tRp5223
I00
S'http://web2py.com/appliances'
p5224
tp5225
a(g4882
(S's\x07\x00\x00\x00Plugins'
tRp5226
I00
S'http://web2py.com/plugins'
p5227
tp5228
a(g4882
(S's\x07\x00\x00\x00Layouts'
tRp5229
I00
S'http://web2py.com/layouts'
p5230
tp5231
a(g4882
(S's\x07\x00\x00\x00Recipes'
tRp5232
I00
S'http://web2pyslices.com/'
p5233
tp5234
a(g4882
(S's\x08\x00\x00\x00Semantic'
tRp5235
I00
S'http://web2py.com/semantic'
p5236
tp5237
aasbasbasbasbasbasbasbag69
(g85
g71
NtRp5238
(dp5239
g74
(dp5240
sg83
g4995
sg76
(lp5241
g69
(g90
g71
NtRp5242
(dp5243
g74
(dp5244
sg83
g5238
sg76
(lp5245
g69
(g70
g71
NtRp5246
(dp5247
g74
(dp5248
g82
I2
ssg83
g5242
sg76
(lp5249
g69
(g78
g71
NtRp5250
(dp5251
g74
(dp5252
g82
I1
ssg83
Nsg76
(lp5253
g69
(g85
g71
NtRp5254
(dp5255
g74
(dp5256
sg83
g5250
sg76
(lp5257
g69
(g90
g71
NtRp5258
(dp5259
g74
(dp5260
sg83
g5254
sg76
(lp5261
g69
(g70
g71
NtRp5262
(dp5263
g74
(dp5264
g82
I1
ssg83
g5258
sg76
(lp5265
g4882
(S's\r\x00\x00\x00Documentation'
tRp5266
asbasbasbag69
(g85
g71
NtRp5267
(dp5268
g74
(dp5269
sg83
g5250
sg76
(lp5270
g69
(g90
g71
NtRp5271
(dp5272
g74
(dp5273
sg83
g5267
sg76
(lp5274
g69
(g70
g71
NtRp5275
(dp5276
g74
(dp5277
g82
I1
ssg83
g5271
sg76
(lp5278
I00
asbasbasbag69
(g85
g71
NtRp5279
(dp5280
g74
(dp5281
sg83
g5250
sg76
(lp5282
g69
(g90
g71
NtRp5283
(dp5284
g74
(dp5285
sg83
g5279
sg76
(lp5286
g69
(g70
g71
NtRp5287
(dp5288
g74
(dp5289
g82
I1
ssg83
g5283
sg76
(lp5290
S'http://www.web2py.com/book'
p5291
asbasbasbag69
(g85
g71
NtRp5292
(dp5293
g74
(dp5294
sg83
g5250
sg76
(lp5295
g69
(g90
g71
NtRp5296
(dp5297
g74
(dp5298
sg83
g5292
sg76
(lp5299
g69
(g70
g71
NtRp5300
(dp5301
g74
(dp5302
g82
I1
ssg83
g5296
sg76
(lp5303
(lp5304
(g4882
(S's\x07\x00\x00\x00Preface'
tRp5305
I00
S'http://www.web2py.com/book/default/chapter/00'
p5306
tp5307
a(g4882
(S's\x0c\x00\x00\x00Introduction'
tRp5308
I00
S'http://www.web2py.com/book/default/chapter/01'
p5309
tp5310
a(g4882
(S's\x06\x00\x00\x00Python'
tRp5311
I00
S'http://www.web2py.com/book/default/chapter/02'
p5312
tp5313
a(g4882
(S's\x08\x00\x00\x00Overview'
tRp5314
I00
S'http://www.web2py.com/book/default/chapter/03'
p5315
tp5316
a(g4882
(S's\x08\x00\x00\x00The Core'
tRp5317
I00
S'http://www.web2py.com/book/default/chapter/04'
p5318
tp5319
a(g4882
(S's\t\x00\x00\x00The Views'
tRp5320
I00
S'http://www.web2py.com/book/default/chapter/05'
p5321
tp5322
a(g4882
(S's\x08\x00\x00\x00Database'
tRp5323
I00
S'http://www.web2py.com/book/default/chapter/06'
p5324
tp5325
a(g4882
(S's\x14\x00\x00\x00Forms and Validators'
tRp5326
I00
S'http://www.web2py.com/book/default/chapter/07'
p5327
tp5328
a(g4882
(S's\r\x00\x00\x00Email and SMS'
tRp5329
I00
S'http://www.web2py.com/book/default/chapter/08'
p5330
tp5331
a(g4882
(S's\x0e\x00\x00\x00Access Control'
tRp5332
I00
S'http://www.web2py.com/book/default/chapter/09'
p5333
tp5334
a(g4882
(S's\x08\x00\x00\x00Services'
tRp5335
I00
S'http://www.web2py.com/book/default/chapter/10'
p5336
tp5337
a(g4882
(S's\x0c\x00\x00\x00Ajax Recipes'
tRp5338
I00
S'http://www.web2py.com/book/default/chapter/11'
p5339
tp5340
a(g4882
(S's\x16\x00\x00\x00Components and Plugins'
tRp5341
I00
S'http://www.web2py.com/book/default/chapter/12'
p5342
tp5343
a(g4882
(S's\x12\x00\x00\x00Deployment Recipes'
tRp5344
I00
S'http://www.web2py.com/book/default/chapter/13'
p5345
tp5346
a(g4882
(S's\r\x00\x00\x00Other Recipes'
tRp5347
I00
S'http://www.web2py.com/book/default/chapter/14'
p5348
tp5349
a(g4882
(S's\r\x00\x00\x00Buy this book'
tRp5350
I00
S'http://stores.lulu.com/web2py'
p5351
tp5352
aasbasbasbasbasbasbasbag69
(g85
g71
NtRp5353
(dp5354
g74
(dp5355
sg83
g4995
sg76
(lp5356
g69
(g90
g71
NtRp5357
(dp5358
g74
(dp5359
sg83
g5353
sg76
(lp5360
g69
(g70
g71
NtRp5361
(dp5362
g74
(dp5363
g82
I2
ssg83
g5357
sg76
(lp5364
g69
(g78
g71
NtRp5365
(dp5366
g74
(dp5367
g82
I1
ssg83
Nsg76
(lp5368
g69
(g85
g71
NtRp5369
(dp5370
g74
(dp5371
sg83
g5365
sg76
(lp5372
g69
(g90
g71
NtRp5373
(dp5374
g74
(dp5375
sg83
g5369
sg76
(lp5376
g69
(g70
g71
NtRp5377
(dp5378
g74
(dp5379
g82
I1
ssg83
g5373
sg76
(lp5380
g4882
(S's\t\x00\x00\x00Community'
tRp5381
asbasbasbag69
(g85
g71
NtRp5382
(dp5383
g74
(dp5384
sg83
g5365
sg76
(lp5385
g69
(g90
g71
NtRp5386
(dp5387
g74
(dp5388
sg83
g5382
sg76
(lp5389
g69
(g70
g71
NtRp5390
(dp5391
g74
(dp5392
g82
I1
ssg83
g5386
sg76
(lp5393
I00
asbasbasbag69
(g85
g71
NtRp5394
(dp5395
g74
(dp5396
sg83
g5365
sg76
(lp5397
g69
(g90
g71
NtRp5398
(dp5399
g74
(dp5400
sg83
g5394
sg76
(lp5401
g69
(g70
g71
NtRp5402
(dp5403
g74
(dp5404
g82
I1
ssg83
g5398
sg76
(lp5405
Nasbasbasbag69
(g85
g71
NtRp5406
(dp5407
g74
(dp5408
sg83
g5365
sg76
(lp5409
g69
(g90
g71
NtRp5410
(dp5411
g74
(dp5412
sg83
g5406
sg76
(lp5413
g69
(g70
g71
NtRp5414
(dp5415
g74
(dp5416
g82
I1
ssg83
g5410
sg76
(lp5417
(lp5418
(g4882
(S's\x06\x00\x00\x00Groups'
tRp5419
I00
S'http://www.web2py.com/examples/default/usergroups'
p5420
tp5421
a(g4882
(S's\x07\x00\x00\x00Twitter'
tRp5422
I00
S'http://twitter.com/web2py'
p5423
tp5424
a(g4882
(S's\t\x00\x00\x00Live Chat'
tRp5425
I00
S'http://webchat.freenode.net/?channels=web2py'
p5426
tp5427
aasbasbasbasbasbasbasbag69
(g85
g71
NtRp5428
(dp5429
g74
(dp5430
sg83
g4995
sg76
(lp5431
g69
(g90
g71
NtRp5432
(dp5433
g74
(dp5434
sg83
g5428
sg76
(lp5435
g69
(g70
g71
NtRp5436
(dp5437
g74
(dp5438
g82
I2
ssg83
g5432
sg76
(lp5439
g69
(g78
g71
NtRp5440
(dp5441
g74
(dp5442
g82
I1
ssg83
Nsg76
(lp5443
g69
(g85
g71
NtRp5444
(dp5445
g74
(dp5446
sg83
g5440
sg76
(lp5447
g69
(g90
g71
NtRp5448
(dp5449
g74
(dp5450
sg83
g5444
sg76
(lp5451
g69
(g70
g71
NtRp5452
(dp5453
g74
(dp5454
g82
I1
ssg83
g5448
sg76
(lp5455
g4882
(S's\x07\x00\x00\x00Plugins'
tRp5456
asbasbasbag69
(g85
g71
NtRp5457
(dp5458
g74
(dp5459
sg83
g5440
sg76
(lp5460
g69
(g90
g71
NtRp5461
(dp5462
g74
(dp5463
sg83
g5457
sg76
(lp5464
g69
(g70
g71
NtRp5465
(dp5466
g74
(dp5467
g82
I1
ssg83
g5461
sg76
(lp5468
I00
asbasbasbag69
(g85
g71
NtRp5469
(dp5470
g74
(dp5471
sg83
g5440
sg76
(lp5472
g69
(g90
g71
NtRp5473
(dp5474
g74
(dp5475
sg83
g5469
sg76
(lp5476
g69
(g70
g71
NtRp5477
(dp5478
g74
(dp5479
g82
I1
ssg83
g5473
sg76
(lp5480
Nasbasbasbag69
(g85
g71
NtRp5481
(dp5482
g74
(dp5483
sg83
g5440
sg76
(lp5484
g69
(g90
g71
NtRp5485
(dp5486
g74
(dp5487
sg83
g5481
sg76
(lp5488
g69
(g70
g71
NtRp5489
(dp5490
g74
(dp5491
g82
I1
ssg83
g5485
sg76
(lp5492
(lp5493
(S'plugin_wiki'
p5494
I00
S'http://web2py.com/examples/default/download'
p5495
tp5496
a(g4882
(S's\r\x00\x00\x00Other Plugins'
tRp5497
I00
g5227
tp5498
a(g4882
(S's\x0e\x00\x00\x00Layout Plugins'
tRp5499
I00
g5230
tp5500
aasbasbasbasbasbasbasbasbasbasbasbasbasbasbasbasbasbasbasbag69
(g85
g71
NtRp5501
(dp5502
g74
(dp5503
sg83
g4347
sg76
(lp5504
g69
(g90
g71
NtRp5505
(dp5506
g74
(dp5507
g94
g95
ssg83
g5501
sg76
(lp5508
S'meta'
p5509
asbag69
(g90
g71
NtRp5510
(dp5511
g74
(dp5512
g101
g102
ssg83
g5501
sg76
(lp5513
S':'
asbag69
(g90
g71
NtRp5514
(dp5515
g74
(dp5516
sg83
g5501
sg76
(lp5517
g69
(g70
g71
NtRp5518
(dp5519
g74
(dp5520
g82
I5
ssg83
g5514
sg76
(lp5521
g69
(g78
g71
NtRp5522
(dp5523
g74
(dp5524
g82
I4
ssg83
Nsg76
(lp5525
g69
(g85
g71
NtRp5526
(dp5527
g74
(dp5528
sg83
g5522
sg76
(lp5529
g69
(g90
g71
NtRp5530
(dp5531
g74
(dp5532
g94
g95
ssg83
g5526
sg76
(lp5533
S'author'
p5534
asbag69
(g90
g71
NtRp5535
(dp5536
g74
(dp5537
g101
g102
ssg83
g5526
sg76
(lp5538
S':'
asbag69
(g90
g71
NtRp5539
(dp5540
g74
(dp5541
sg83
g5526
sg76
(lp5542
g69
(g70
g71
NtRp5543
(dp5544
g74
(dp5545
g82
I4
ssg83
g5539
sg76
(lp5546
S'Your Name <you@example.com>'
p5547
asbasbasbag69
(g85
g71
NtRp5548
(dp5549
g74
(dp5550
sg83
g5522
sg76
(lp5551
g69
(g90
g71
NtRp5552
(dp5553
g74
(dp5554
g94
g95
ssg83
g5548
sg76
(lp5555
S'description'
p5556
asbag69
(g90
g71
NtRp5557
(dp5558
g74
(dp5559
g101
g102
ssg83
g5548
sg76
(lp5560
S':'
asbag69
(g90
g71
NtRp5561
(dp5562
g74
(dp5563
sg83
g5548
sg76
(lp5564
g69
(g70
g71
NtRp5565
(dp5566
g74
(dp5567
g82
I4
ssg83
g5561
sg76
(lp5568
S'a cool new app'
p5569
asbasbasbag69
(g85
g71
NtRp5570
(dp5571
g74
(dp5572
sg83
g5522
sg76
(lp5573
g69
(g90
g71
NtRp5574
(dp5575
g74
(dp5576
g94
g95
ssg83
g5570
sg76
(lp5577
S'generator'
p5578
asbag69
(g90
g71
NtRp5579
(dp5580
g74
(dp5581
g101
g102
ssg83
g5570
sg76
(lp5582
S':'
asbag69
(g90
g71
NtRp5583
(dp5584
g74
(dp5585
sg83
g5570
sg76
(lp5586
g69
(g70
g71
NtRp5587
(dp5588
g74
(dp5589
g82
I4
ssg83
g5583
sg76
(lp5590
S'Web2py Web Framework'
p5591
asbasbasbag69
(g85
g71
NtRp5592
(dp5593
g74
(dp5594
sg83
g5522
sg76
(lp5595
g69
(g90
g71
NtRp5596
(dp5597
g74
(dp5598
g94
g95
ssg83
g5592
sg76
(lp5599
S'keywords'
p5600
asbag69
(g90
g71
NtRp5601
(dp5602
g74
(dp5603
g101
g102
ssg83
g5592
sg76
(lp5604
S':'
asbag69
(g90
g71
NtRp5605
(dp5606
g74
(dp5607
sg83
g5592
sg76
(lp5608
g69
(g70
g71
NtRp5609
(dp5610
g74
(dp5611
g82
I4
ssg83
g5605
sg76
(lp5612
S'web2py, python, framework'
p5613
asbasbasbasbasbasbasbag69
(g85
g71
NtRp5614
(dp5615
g74
(dp5616
sg83
g4347
sg76
(lp5617
g69
(g90
g71
NtRp5618
(dp5619
g74
(dp5620
g94
g95
ssg83
g5614
sg76
(lp5621
S'models_to_run'
p5622
asbag69
(g90
g71
NtRp5623
(dp5624
g74
(dp5625
g101
g102
ssg83
g5614
sg76
(lp5626
S':'
asbag69
(g90
g71
NtRp5627
(dp5628
g74
(dp5629
sg83
g5614
sg76
(lp5630
g69
(g70
g71
NtRp5631
(dp5632
g74
(dp5633
g82
I5
ssg83
g5627
sg76
(lp5634
g69
(g78
g71
NtRp5635
(dp5636
g74
(dp5637
g82
I4
ssg83
Nsg76
(lp5638
g69
(g85
g71
NtRp5639
(dp5640
g74
(dp5641
sg83
g5635
sg76
(lp5642
g69
(g90
g71
NtRp5643
(dp5644
g74
(dp5645
sg83
g5639
sg76
(lp5646
g69
(g70
g71
NtRp5647
(dp5648
g74
(dp5649
g82
I4
ssg83
g5643
sg76
(lp5650
S'^\\w+\\.py$'
p5651
asbasbasbag69
(g85
g71
NtRp5652
(dp5653
g74
(dp5654
sg83
g5635
sg76
(lp5655
g69
(g90
g71
NtRp5656
(dp5657
g74
(dp5658
sg83
g5652
sg76
(lp5659
g69
(g70
g71
NtRp5660
(dp5661
g74
(dp5662
g82
I4
ssg83
g5656
sg76
(lp5663
S'^default/\\w+\\.py$'
p5664
asbasbasbag69
(g85
g71
NtRp5665
(dp5666
g74
(dp5667
sg83
g5635
sg76
(lp5668
g69
(g90
g71
NtRp5669
(dp5670
g74
(dp5671
sg83
g5665
sg76
(lp5672
g69
(g70
g71
NtRp5673
(dp5674
g74
(dp5675
g82
I4
ssg83
g5669
sg76
(lp5676
S'^default/order_bike/\\w+\\.py$'
p5677
asbasbasbasbasbasbasbag69
(g85
g71
NtRp5678
(dp5679
g74
(dp5680
sg83
g4347
sg76
(lp5681
g69
(g90
g71
NtRp5682
(dp5683
g74
(dp5684
g94
g95
ssg83
g5678
sg76
(lp5685
S'postprocessing'
p5686
asbag69
(g90
g71
NtRp5687
(dp5688
g74
(dp5689
g101
g102
ssg83
g5678
sg76
(lp5690
S':'
asbag69
(g90
g71
NtRp5691
(dp5692
g74
(dp5693
sg83
g5678
sg76
(lp5694
g69
(g70
g71
NtRp5695
(dp5696
g74
(dp5697
g82
I5
ssg83
g5691
sg76
(lp5698
g69
(g78
g71
NtRp5699
(dp5700
g74
(dp5701
g82
I4
ssg83
Nsg76
(lp5702
sbasbasbasbag69
(g85
g71
NtRp5703
(dp5704
g74
(dp5705
sg83
g4347
sg76
(lp5706
g69
(g90
g71
NtRp5707
(dp5708
g74
(dp5709
g94
g95
ssg83
g5703
sg76
(lp5710
S'session_cookie_expires'
p5711
asbag69
(g90
g71
NtRp5712
(dp5713
g74
(dp5714
g101
g102
ssg83
g5703
sg76
(lp5715
S':'
asbag69
(g90
g71
NtRp5716
(dp5717
g74
(dp5718
sg83
g5703
sg76
(lp5719
g69
(g70
g71
NtRp5720
(dp5721
g74
(dp5722
g82
I5
ssg83
g5716
sg76
(lp5723
S'None'
p5724
asbasbasbag69
(g85
g71
NtRp5725
(dp5726
g74
(dp5727
sg83
g4347
sg76
(lp5728
g69
(g90
g71
NtRp5729
(dp5730
g74
(dp5731
g94
g95
ssg83
g5725
sg76
(lp5732
S'session_data_name'
p5733
asbag69
(g90
g71
NtRp5734
(dp5735
g74
(dp5736
g101
g102
ssg83
g5725
sg76
(lp5737
S':'
asbag69
(g90
g71
NtRp5738
(dp5739
g74
(dp5740
sg83
g5725
sg76
(lp5741
g69
(g70
g71
NtRp5742
(dp5743
g74
(dp5744
g82
I5
ssg83
g5738
sg76
(lp5745
S'session_data_gogreen_motors_2'
p5746
asbasbasbag69
(g85
g71
NtRp5747
(dp5748
g74
(dp5749
sg83
g4347
sg76
(lp5750
g69
(g90
g71
NtRp5751
(dp5752
g74
(dp5753
g94
g95
ssg83
g5747
sg76
(lp5754
S'session_file'
p5755
asbag69
(g90
g71
NtRp5756
(dp5757
g74
(dp5758
g101
g102
ssg83
g5747
sg76
(lp5759
S':'
asbag69
(g90
g71
NtRp5760
(dp5761
g74
(dp5762
sg83
g5747
sg76
(lp5763
g69
(g70
g71
NtRp5764
(dp5765
g74
(dp5766
g82
I5
ssg83
g5760
sg76
(lp5767
S"<open file '/home/urvashi/Desktop/WEB2PY/web2py/applications/GoGreen_Motors_2/sessions/127.0.0.1-7b9c0c70-b6cb-4ea9-8c10-36eb3d436819', mode 'rb+' at 0x7fa0841a58a0>"
p5768
asbasbasbag69
(g85
g71
NtRp5769
(dp5770
g74
(dp5771
sg83
g4347
sg76
(lp5772
g69
(g90
g71
NtRp5773
(dp5774
g74
(dp5775
g94
g95
ssg83
g5769
sg76
(lp5776
S'session_filename'
p5777
asbag69
(g90
g71
NtRp5778
(dp5779
g74
(dp5780
g101
g102
ssg83
g5769
sg76
(lp5781
S':'
asbag69
(g90
g71
NtRp5782
(dp5783
g74
(dp5784
sg83
g5769
sg76
(lp5785
g69
(g70
g71
NtRp5786
(dp5787
g74
(dp5788
g82
I5
ssg83
g5782
sg76
(lp5789
S'/home/urvashi/Desktop/WEB2PY/web2py/applications/GoGreen_Motors_2/sessions/127.0.0.1-7b9c0c70-b6cb-4ea9-8c10-36eb3d436819'
p5790
asbasbasbag69
(g85
g71
NtRp5791
(dp5792
g74
(dp5793
sg83
g4347
sg76
(lp5794
g69
(g90
g71
NtRp5795
(dp5796
g74
(dp5797
g94
g95
ssg83
g5791
sg76
(lp5798
S'session_id'
p5799
asbag69
(g90
g71
NtRp5800
(dp5801
g74
(dp5802
g101
g102
ssg83
g5791
sg76
(lp5803
S':'
asbag69
(g90
g71
NtRp5804
(dp5805
g74
(dp5806
sg83
g5791
sg76
(lp5807
g69
(g70
g71
NtRp5808
(dp5809
g74
(dp5810
g82
I5
ssg83
g5804
sg76
(lp5811
g673
asbasbasbag69
(g85
g71
NtRp5812
(dp5813
g74
(dp5814
sg83
g4347
sg76
(lp5815
g69
(g90
g71
NtRp5816
(dp5817
g74
(dp5818
g94
g95
ssg83
g5812
sg76
(lp5819
S'session_id_name'
p5820
asbag69
(g90
g71
NtRp5821
(dp5822
g74
(dp5823
g101
g102
ssg83
g5812
sg76
(lp5824
S':'
asbag69
(g90
g71
NtRp5825
(dp5826
g74
(dp5827
sg83
g5812
sg76
(lp5828
g69
(g70
g71
NtRp5829
(dp5830
g74
(dp5831
g82
I5
ssg83
g5825
sg76
(lp5832
g4404
asbasbasbag69
(g85
g71
NtRp5833
(dp5834
g74
(dp5835
sg83
g4347
sg76
(lp5836
g69
(g90
g71
NtRp5837
(dp5838
g74
(dp5839
g94
g95
ssg83
g5833
sg76
(lp5840
S'session_locked'
p5841
asbag69
(g90
g71
NtRp5842
(dp5843
g74
(dp5844
g101
g102
ssg83
g5833
sg76
(lp5845
S':'
asbag69
(g90
g71
NtRp5846
(dp5847
g74
(dp5848
sg83
g5833
sg76
(lp5849
g69
(g70
g71
NtRp5850
(dp5851
g74
(dp5852
g82
I5
ssg83
g5846
sg76
(lp5853
g2075
asbasbasbag69
(g85
g71
NtRp5854
(dp5855
g74
(dp5856
sg83
g4347
sg76
(lp5857
g69
(g90
g71
NtRp5858
(dp5859
g74
(dp5860
g94
g95
ssg83
g5854
sg76
(lp5861
S'session_new'
p5862
asbag69
(g90
g71
NtRp5863
(dp5864
g74
(dp5865
g101
g102
ssg83
g5854
sg76
(lp5866
S':'
asbag69
(g90
g71
NtRp5867
(dp5868
g74
(dp5869
sg83
g5854
sg76
(lp5870
g69
(g70
g71
NtRp5871
(dp5872
g74
(dp5873
g82
I5
ssg83
g5867
sg76
(lp5874
g112
asbasbasbag69
(g85
g71
NtRp5875
(dp5876
g74
(dp5877
sg83
g4347
sg76
(lp5878
g69
(g90
g71
NtRp5879
(dp5880
g74
(dp5881
g94
g95
ssg83
g5875
sg76
(lp5882
S'session_storage_type'
p5883
asbag69
(g90
g71
NtRp5884
(dp5885
g74
(dp5886
g101
g102
ssg83
g5875
sg76
(lp5887
S':'
asbag69
(g90
g71
NtRp5888
(dp5889
g74
(dp5890
sg83
g5875
sg76
(lp5891
g69
(g70
g71
NtRp5892
(dp5893
g74
(dp5894
g82
I5
ssg83
g5888
sg76
(lp5895
g3776
asbasbasbag69
(g85
g71
NtRp5896
(dp5897
g74
(dp5898
sg83
g4347
sg76
(lp5899
g69
(g90
g71
NtRp5900
(dp5901
g74
(dp5902
g94
g95
ssg83
g5896
sg76
(lp5903
S'status'
p5904
asbag69
(g90
g71
NtRp5905
(dp5906
g74
(dp5907
g101
g102
ssg83
g5896
sg76
(lp5908
S':'
asbag69
(g90
g71
NtRp5909
(dp5910
g74
(dp5911
sg83
g5896
sg76
(lp5912
g69
(g70
g71
NtRp5913
(dp5914
g74
(dp5915
g82
I5
ssg83
g5909
sg76
(lp5916
S'200'
p5917
asbasbasbag69
(g85
g71
NtRp5918
(dp5919
g74
(dp5920
sg83
g4347
sg76
(lp5921
g69
(g90
g71
NtRp5922
(dp5923
g74
(dp5924
g94
g95
ssg83
g5918
sg76
(lp5925
S'subtitle'
p5926
asbag69
(g90
g71
NtRp5927
(dp5928
g74
(dp5929
g101
g102
ssg83
g5918
sg76
(lp5930
S':'
asbag69
(g90
g71
NtRp5931
(dp5932
g74
(dp5933
sg83
g5918
sg76
(lp5934
g69
(g70
g71
NtRp5935
(dp5936
g74
(dp5937
g82
I5
ssg83
g5931
sg76
(lp5938
g4882
(S's\r\x00\x00\x00customize me!'
tRp5939
asbasbasbag69
(g85
g71
NtRp5940
(dp5941
g74
(dp5942
sg83
g4347
sg76
(lp5943
g69
(g90
g71
NtRp5944
(dp5945
g74
(dp5946
g94
g95
ssg83
g5940
sg76
(lp5947
S'title'
p5948
asbag69
(g90
g71
NtRp5949
(dp5950
g74
(dp5951
g101
g102
ssg83
g5940
sg76
(lp5952
S':'
asbag69
(g90
g71
NtRp5953
(dp5954
g74
(dp5955
sg83
g5940
sg76
(lp5956
g69
(g70
g71
NtRp5957
(dp5958
g74
(dp5959
g82
I5
ssg83
g5953
sg76
(lp5960
S'Gogreen Motors 2'
p5961
asbasbasbag69
(g85
g71
NtRp5962
(dp5963
g74
(dp5964
sg83
g4347
sg76
(lp5965
g69
(g90
g71
NtRp5966
(dp5967
g74
(dp5968
g94
g95
ssg83
g5962
sg76
(lp5969
S'view'
p5970
asbag69
(g90
g71
NtRp5971
(dp5972
g74
(dp5973
g101
g102
ssg83
g5962
sg76
(lp5974
S':'
asbag69
(g90
g71
NtRp5975
(dp5976
g74
(dp5977
sg83
g5962
sg76
(lp5978
g69
(g70
g71
NtRp5979
(dp5980
g74
(dp5981
g82
I5
ssg83
g5975
sg76
(lp5982
S'default/order_bike.html'
p5983
asbasbasbasbasbsS'locals'
p5984
(dp5985
S'tables'
p5986
S'<bound method MySQLAdapter.tables of <gluon.dal.MySQLAdapter object>>'
p5987
sS'fields'
p5988
S'[]'
p5989
sS'self'
p5990
S'<gluon.dal.MySQLAdapter object>'
p5991
sS'tablenames'
p5992
S'[]'
p5993
sS'query'
p5994
g112
sg74
g21
sS'args_get'
p5995
S'<built-in method get of dict object>'
p5996
sssS'traceback'
p5997
S'Traceback (most recent call last):\n  File "/home/urvashi/Desktop/WEB2PY/web2py/gluon/restricted.py", line 212, in restricted\n    exec ccode in environment\n  File "/home/urvashi/Desktop/WEB2PY/web2py/applications/GoGreen_Motors_2/controllers/default.py", line 254, in <module>\n  File "/home/urvashi/Desktop/WEB2PY/web2py/gluon/globals.py", line 193, in <lambda>\n    self._caller = lambda f: f()\n  File "/home/urvashi/Desktop/WEB2PY/web2py/applications/GoGreen_Motors_2/controllers/default.py", line 166, in order_bike\n    e=db(auth.user.email == str(db.EMPLOYEE.Email_id)).select()\n  File "/home/urvashi/Desktop/WEB2PY/web2py/gluon/dal.py", line 8905, in select\n    return adapter.select(self.query,fields,attributes)\n  File "/home/urvashi/Desktop/WEB2PY/web2py/gluon/dal.py", line 1618, in select\n    sql = self._select(query, fields, attributes)\n  File "/home/urvashi/Desktop/WEB2PY/web2py/gluon/dal.py", line 1474, in _select\n    raise SyntaxError(\'Set: no tables selected\')\nSyntaxError: Set: no tables selected\n'
p5998
s.